
rsc/test_file/good_files/32exe:
08049a60 d _DYNAMIC
08049b44 d _GLOBAL_OFFSET_TABLE_
080486da t _GLOBAL__sub_I_main
0804883c R _IO_stdin_used
         w _Jv_RegisterClasses
0804869a t _Z41__static_initialization_and_destruction_0ii
0804870e W _ZN1N13setAnnotationEPc
080486f6 W _ZN1NC1Ei
080486f6 W _ZN1NC2Ei
0804874e W _ZN1NmiERS_
0804873a W _ZN1NplERS_
         U _ZNSt8ios_base4InitC1Ev@@GLIBCXX_3.4
         U _ZNSt8ios_base4InitD1Ev@@GLIBCXX_3.4
08049bb4 b _ZStL8__ioinit
08048854 V _ZTI1N
08048850 V _ZTS1N
08048840 V _ZTV1N
08049b80 V _ZTVN10__cxxabiv117__class_type_infoE@@CXXABI_1.3
         U _Znwj@@GLIBCXX_3.4
08049a50 d __CTOR_END__
08049a4c d __CTOR_LIST__
08049a58 D __DTOR_END__
08049a54 d __DTOR_LIST__
08048a44 r __FRAME_END__
08049a5c d __JCR_END__
08049a5c d __JCR_LIST__
08049b7c A __bss_start
         U __cxa_atexit@@GLIBC_2.1.3
08049b74 D __data_start
080487f0 t __do_global_ctors_aux
08048570 t __do_global_dtors_aux
08049b78 D __dso_handle
         w __gmon_start__
080487e2 T __i686.get_pc_thunk.bx
08049a4c d __init_array_end
08049a48 d __init_array_start
080487e0 T __libc_csu_fini
08048770 T __libc_csu_init
         U __libc_start_main@@GLIBC_2.0
08049b7c A _edata
08049bb8 A _end
         U _exit@@GLIBC_2.0
0804881c T _fini
08048838 R _fp_hw
08048464 T _init
08048540 T _start
08049bac b completed.6159
08049b74 W data_start
08049bb0 b dtor_idx.6161
080485d0 t frame_dummy
080485f4 T main
         U memcpy@@GLIBC_2.0
         U strlen@@GLIBC_2.0

rsc/test_file/good_files/64.o:
0000000000003d88 d _DYNAMIC
0000000000003f78 d _GLOBAL_OFFSET_TABLE_
0000000000002000 R _IO_stdin_used
                 w _ITM_deregisterTMCloneTable
                 w _ITM_registerTMCloneTable
00000000000021c0 r __FRAME_END__
00000000000020e4 r __GNU_EH_FRAME_HDR
0000000000004010 D __TMC_END__
000000000000038c r __abi_tag
0000000000004010 B __bss_start
                 w __cxa_finalize@GLIBC_2.2.5
0000000000004000 D __data_start
0000000000001200 t __do_global_dtors_aux
0000000000003d80 d __do_global_dtors_aux_fini_array_entry
0000000000004008 D __dso_handle
0000000000003d78 d __frame_dummy_init_array_entry
                 w __gmon_start__
                 U __libc_start_main@GLIBC_2.34
                 U __stack_chk_fail@GLIBC_2.4
0000000000004010 D _edata
0000000000004030 B _end
00000000000014a0 T _fini
0000000000001000 T _init
0000000000001160 T _start
                 U close@GLIBC_2.2.5
0000000000004028 b completed.0
0000000000004000 W data_start
0000000000001190 t deregister_tm_clones
                 U fprintf@GLIBC_2.2.5
0000000000001240 t frame_dummy
                 U fstat@GLIBC_2.33
0000000000001249 T main
                 U mmap@GLIBC_2.2.5
                 U munmap@GLIBC_2.2.5
                 U open@GLIBC_2.2.5
                 U perror@GLIBC_2.2.5
                 U puts@GLIBC_2.2.5
00000000000011c0 t register_tm_clones
0000000000004020 B stderr@GLIBC_2.2.5

rsc/test_file/good_files/64exe:
0000000000003d80 d _DYNAMIC
0000000000003f70 d _GLOBAL_OFFSET_TABLE_
0000000000002000 R _IO_stdin_used
                 w _ITM_deregisterTMCloneTable
                 w _ITM_registerTMCloneTable
0000000000002200 r __FRAME_END__
00000000000020fc r __GNU_EH_FRAME_HDR
0000000000004010 D __TMC_END__
000000000000038c r __abi_tag
0000000000004010 B __bss_start
                 w __cxa_finalize@GLIBC_2.2.5
0000000000004000 D __data_start
0000000000001220 t __do_global_dtors_aux
0000000000003d78 d __do_global_dtors_aux_fini_array_entry
0000000000004008 D __dso_handle
                 U __errno_location@GLIBC_2.2.5
0000000000003d70 d __frame_dummy_init_array_entry
                 w __gmon_start__
                 U __libc_start_main@GLIBC_2.34
                 U __stack_chk_fail@GLIBC_2.4
0000000000004010 D _edata
0000000000004018 B _end
00000000000014f8 T _fini
0000000000001000 T _init
0000000000001180 T _start
                 U close@GLIBC_2.2.5
0000000000004010 b completed.0
0000000000004000 W data_start
00000000000011b0 t deregister_tm_clones
0000000000001260 t frame_dummy
                 U fstat@GLIBC_2.33
0000000000001269 T ft_check
0000000000001423 T main
                 U mmap@GLIBC_2.2.5
                 U munmap@GLIBC_2.2.5
                 U open@GLIBC_2.2.5
                 U perror@GLIBC_2.2.5
                 U printf@GLIBC_2.2.5
                 U puts@GLIBC_2.2.5
00000000000011e0 t register_tm_clones

rsc/test_file/good_files/a.out:
0000000000600e60 d _DYNAMIC
0000000000601000 d _GLOBAL_OFFSET_TABLE_
0000000000400530 R _IO_stdin_used
000000000040063c r __FRAME_END__
0000000000400534 r __GNU_EH_FRAME_HDR
0000000000601028 D __TMC_END__
0000000000601028 B __bss_start
0000000000601018 D __data_start
0000000000400460 t __do_global_dtors_aux
0000000000600e58 d __do_global_dtors_aux_fini_array_entry
0000000000601020 D __dso_handle
0000000000600e50 d __frame_dummy_init_array_entry
                 w __gmon_start__
0000000000600e58 d __init_array_end
0000000000600e50 d __init_array_start
0000000000400520 T __libc_csu_fini
00000000004004b0 T __libc_csu_init
                 U __libc_start_main@@GLIBC_2.2.5
00000000004003e0 T _dl_relocate_static_pie
0000000000601028 D _edata
0000000000601030 B _end
0000000000400524 T _fini
0000000000400390 T _init
00000000004003b0 T _start
0000000000601028 b completed.7698
0000000000601018 W data_start
00000000004003f0 t deregister_tm_clones
0000000000400490 t frame_dummy
00000000004004a0 T main
0000000000400420 t register_tm_clones

rsc/test_file/good_files/containers:
0000000000588e60 r .str
00000000005893a0 r .str
000000000058a360 r .str
000000000058ac20 r .str
000000000058bac0 r .str
000000000058da80 r .str
000000000058f5a0 r .str
0000000000588ea0 r .str.1
00000000005893e0 r .str.1
000000000058a3a0 r .str.1
000000000058ac80 r .str.1
000000000058bb00 r .str.1
000000000058dac0 r .str.1
000000000058f5e0 r .str.1
00000000005890e0 r .str.10
000000000058bd40 r .str.10
000000000058dd00 r .str.10
000000000058f820 r .str.10
0000000000589120 r .str.11
000000000058bd80 r .str.11
000000000058dd40 r .str.11
000000000058f860 r .str.11
0000000000589160 r .str.12
000000000058bdc0 r .str.12
000000000058dd80 r .str.12
000000000058f8a0 r .str.12
000000000058be00 r .str.13
000000000058ddc0 r .str.13
000000000058f8e0 r .str.13
000000000058be40 r .str.14
000000000058de00 r .str.14
000000000058f920 r .str.14
000000000058be80 r .str.15
000000000058de40 r .str.15
000000000058f960 r .str.15
000000000058bec0 r .str.16
000000000058de80 r .str.16
000000000058f9a0 r .str.16
000000000058bf00 r .str.17
000000000058df00 r .str.17
000000000058f9e0 r .str.17
000000000058bf40 r .str.18
000000000058fa20 r .str.18
000000000058bf80 r .str.19
000000000058fa60 r .str.19
0000000000588ee0 r .str.2
0000000000589420 r .str.2
000000000058a3e0 r .str.2
000000000058ace0 r .str.2
000000000058bb40 r .str.2
000000000058db00 r .str.2
000000000058f620 r .str.2
000000000058bfc0 r .str.20
000000000058faa0 r .str.20
000000000058c000 r .str.21
000000000058fae0 r .str.21
000000000058c040 r .str.22
000000000058fb20 r .str.22
000000000058c080 r .str.23
000000000058fb60 r .str.23
000000000058c100 r .str.24
000000000058fba0 r .str.24
000000000058c140 r .str.25
000000000058fbe0 r .str.25
000000000058c180 r .str.26
000000000058fc20 r .str.26
000000000058fc60 r .str.27
000000000058fca0 r .str.28
000000000058fd20 r .str.29
0000000000588f20 r .str.3
0000000000589460 r .str.3
000000000058a420 r .str.3
000000000058ad60 r .str.3
000000000058bb80 r .str.3
000000000058db40 r .str.3
000000000058f660 r .str.3
000000000058fd60 r .str.30
000000000058fda0 r .str.31
000000000058fde0 r .str.32
0000000000588f60 r .str.4
00000000005894a0 r .str.4
000000000058a4a0 r .str.4
000000000058ada0 r .str.4
000000000058bbc0 r .str.4
000000000058db80 r .str.4
000000000058f6a0 r .str.4
0000000000588fa0 r .str.5
000000000058bc00 r .str.5
000000000058dbc0 r .str.5
000000000058f6e0 r .str.5
0000000000588fe0 r .str.6
000000000058bc40 r .str.6
000000000058dc00 r .str.6
000000000058f720 r .str.6
0000000000589020 r .str.7
000000000058bc80 r .str.7
000000000058dc40 r .str.7
000000000058f760 r .str.7
0000000000589060 r .str.8
000000000058bcc0 r .str.8
000000000058dc80 r .str.8
000000000058f7a0 r .str.8
00000000005890a0 r .str.9
000000000058bd00 r .str.9
000000000058dcc0 r .str.9
000000000058f7e0 r .str.9
00000000005bd940 r GCC_except_table1
00000000005bd9a0 r GCC_except_table1
00000000005be130 r GCC_except_table1
00000000005be52c r GCC_except_table1
00000000005bed58 r GCC_except_table1
00000000005bfe88 r GCC_except_table1
00000000005c10cc r GCC_except_table1
00000000005c19b4 r GCC_except_table10
00000000005be0a8 r GCC_except_table100
00000000005be960 r GCC_except_table101
00000000005c1db8 r GCC_except_table101
00000000005be970 r GCC_except_table102
00000000005be97c r GCC_except_table103
00000000005c1dd0 r GCC_except_table103
00000000005be0b4 r GCC_except_table104
00000000005be514 r GCC_except_table104
00000000005be0d8 r GCC_except_table107
00000000005be520 r GCC_except_table109
00000000005be9b8 r GCC_except_table109
00000000005be9d0 r GCC_except_table110
00000000005c1e1c r GCC_except_table110
00000000005bea00 r GCC_except_table111
00000000005bf7ac r GCC_except_table115
00000000005c0e14 r GCC_except_table116
00000000005c0e38 r GCC_except_table117
00000000005c0e5c r GCC_except_table118
00000000005c1e44 r GCC_except_table118
00000000005be6e4 r GCC_except_table12
00000000005bff08 r GCC_except_table12
00000000005c0e80 r GCC_except_table120
00000000005c1e68 r GCC_except_table120
00000000005c1eb0 r GCC_except_table121
00000000005bf7e0 r GCC_except_table122
00000000005bf820 r GCC_except_table123
00000000005c0ea4 r GCC_except_table124
00000000005c0eb0 r GCC_except_table125
00000000005bf82c r GCC_except_table127
00000000005be100 r GCC_except_table128
00000000005c17ac r GCC_except_table128
00000000005bdd98 r GCC_except_table13
00000000005bf4cc r GCC_except_table13
00000000005be10c r GCC_except_table130
00000000005bf850 r GCC_except_table130
00000000005bea18 r GCC_except_table134
00000000005c1ed4 r GCC_except_table135
00000000005bea38 r GCC_except_table136
00000000005c1ee0 r GCC_except_table136
00000000005bea68 r GCC_except_table139
00000000005bf878 r GCC_except_table143
00000000005bea78 r GCC_except_table144
00000000005bddd8 r GCC_except_table15
00000000005c1ef8 r GCC_except_table151
00000000005c1f04 r GCC_except_table152
00000000005bf884 r GCC_except_table158
00000000005bddf8 r GCC_except_table16
00000000005be6f8 r GCC_except_table16
00000000005bf4e4 r GCC_except_table16
00000000005c1a0c r GCC_except_table16
00000000005bea84 r GCC_except_table165
00000000005bde10 r GCC_except_table17
00000000005c0a98 r GCC_except_table17
00000000005bf8a8 r GCC_except_table172
00000000005beab8 r GCC_except_table173
00000000005beaf8 r GCC_except_table174
00000000005beb04 r GCC_except_table178
00000000005bf8cc r GCC_except_table178
00000000005be254 r GCC_except_table18
00000000005bf4fc r GCC_except_table18
00000000005bf8f0 r GCC_except_table180
00000000005beb28 r GCC_except_table181
00000000005bf924 r GCC_except_table181
00000000005bf93c r GCC_except_table182
00000000005bf948 r GCC_except_table183
00000000005bf96c r GCC_except_table184
00000000005c0ec8 r GCC_except_table188
00000000005bde64 r GCC_except_table19
00000000005bf520 r GCC_except_table19
00000000005beb50 r GCC_except_table195
00000000005bdba4 r GCC_except_table20
00000000005be268 r GCC_except_table20
00000000005bf994 r GCC_except_table200
00000000005beb5c r GCC_except_table205
00000000005beb90 r GCC_except_table212
00000000005bf9b8 r GCC_except_table216
00000000005bf53c r GCC_except_table22
00000000005bffa8 r GCC_except_table22
00000000005c1a30 r GCC_except_table22
00000000005bf9c4 r GCC_except_table222
00000000005c0ed4 r GCC_except_table224
00000000005c1f1c r GCC_except_table229
00000000005be720 r GCC_except_table23
00000000005c1f28 r GCC_except_table230
00000000005c0f28 r GCC_except_table234
00000000005c0f80 r GCC_except_table237
00000000005bebb4 r GCC_except_table239
00000000005be740 r GCC_except_table24
00000000005c1a48 r GCC_except_table24
00000000005c0fb4 r GCC_except_table241
00000000005bebcc r GCC_except_table242
00000000005c1f4c r GCC_except_table242
00000000005c0fc0 r GCC_except_table246
00000000005c1f70 r GCC_except_table246
00000000005bebd8 r GCC_except_table248
00000000005c0acc r GCC_except_table25
00000000005c1a6c r GCC_except_table25
00000000005bebec r GCC_except_table250
00000000005bf9fc r GCC_except_table251
00000000005c0fcc r GCC_except_table251
00000000005bec0c r GCC_except_table252
00000000005c1014 r GCC_except_table252
00000000005bec18 r GCC_except_table254
00000000005bec60 r GCC_except_table256
00000000005c1048 r GCC_except_table256
00000000005c1fdc r GCC_except_table256
00000000005c201c r GCC_except_table257
00000000005bfa68 r GCC_except_table259
00000000005bfaa8 r GCC_except_table260
00000000005c2028 r GCC_except_table262
00000000005c1088 r GCC_except_table263
00000000005bfab4 r GCC_except_table264
00000000005becb4 r GCC_except_table265
00000000005c204c r GCC_except_table265
00000000005bfad8 r GCC_except_table267
00000000005bed0c r GCC_except_table268
00000000005c208c r GCC_except_table268
00000000005bfb18 r GCC_except_table269
00000000005c1094 r GCC_except_table269
00000000005bf558 r GCC_except_table27
00000000005c1a88 r GCC_except_table27
00000000005bed40 r GCC_except_table274
00000000005bed4c r GCC_except_table276
00000000005c20f0 r GCC_except_table280
00000000005bfb7c r GCC_except_table281
00000000005c20fc r GCC_except_table282
00000000005bfb88 r GCC_except_table283
00000000005c2144 r GCC_except_table283
00000000005bfbd0 r GCC_except_table284
00000000005be774 r GCC_except_table29
00000000005bfc10 r GCC_except_table291
00000000005bdd5c r GCC_except_table3
00000000005be220 r GCC_except_table3
00000000005be798 r GCC_except_table30
00000000005bef90 r GCC_except_table30
00000000005c0aec r GCC_except_table30
00000000005c1aa4 r GCC_except_table30
00000000005c2184 r GCC_except_table302
00000000005bfcdc r GCC_except_table306
00000000005bdc04 r GCC_except_table31
00000000005c1ac8 r GCC_except_table31
00000000005bfcf4 r GCC_except_table311
00000000005bfd00 r GCC_except_table315
00000000005c2250 r GCC_except_table317
00000000005be7d8 r GCC_except_table32
00000000005c2290 r GCC_except_table321
00000000005c22a8 r GCC_except_table325
00000000005bfd38 r GCC_except_table326
00000000005c22dc r GCC_except_table326
00000000005c22f4 r GCC_except_table327
00000000005c2300 r GCC_except_table328
00000000005c2324 r GCC_except_table329
00000000005bf57c r GCC_except_table33
00000000005c0b0c r GCC_except_table33
00000000005bfd60 r GCC_except_table334
00000000005bfda0 r GCC_except_table335
00000000005bfdc4 r GCC_except_table336
00000000005bfe04 r GCC_except_table338
00000000005bfe48 r GCC_except_table339
00000000005be288 r GCC_except_table34
00000000005c1ae4 r GCC_except_table34
00000000005c234c r GCC_except_table345
00000000005c0b38 r GCC_except_table35
00000000005bf5b0 r GCC_except_table36
00000000005c0b80 r GCC_except_table36
00000000005c2370 r GCC_except_table361
00000000005c237c r GCC_except_table367
00000000005c1b00 r GCC_except_table37
00000000005c0020 r GCC_except_table38
00000000005be294 r GCC_except_table39
00000000005c23b4 r GCC_except_table397
00000000005c0ba0 r GCC_except_table40
00000000005c1b18 r GCC_except_table40
00000000005c2420 r GCC_except_table406
00000000005c2460 r GCC_except_table407
00000000005bdeac r GCC_except_table41
00000000005be2dc r GCC_except_table41
00000000005bf5ec r GCC_except_table41
00000000005c246c r GCC_except_table414
00000000005c2490 r GCC_except_table417
00000000005bf610 r GCC_except_table42
00000000005c24d0 r GCC_except_table429
00000000005bf650 r GCC_except_table43
00000000005c0074 r GCC_except_table43
00000000005c24dc r GCC_except_table431
00000000005c2524 r GCC_except_table432
00000000005bded0 r GCC_except_table44
00000000005c0bb4 r GCC_except_table44
00000000005c1b30 r GCC_except_table44
00000000005c2564 r GCC_except_table440
00000000005bdee8 r GCC_except_table46
00000000005bf0ac r GCC_except_table46
00000000005c1b54 r GCC_except_table46
00000000005c2588 r GCC_except_table461
00000000005c25ac r GCC_except_table462
00000000005c25c4 r GCC_except_table468
00000000005c0bcc r GCC_except_table47
00000000005c2630 r GCC_except_table477
00000000005c2670 r GCC_except_table478
00000000005c267c r GCC_except_table483
00000000005c26a0 r GCC_except_table486
00000000005bdcb0 r GCC_except_table49
00000000005c1220 r GCC_except_table49
00000000005c26e0 r GCC_except_table498
00000000005be234 r GCC_except_table5
00000000005c0a4c r GCC_except_table5
00000000005c0c08 r GCC_except_table50
00000000005c26ec r GCC_except_table500
00000000005c2734 r GCC_except_table501
00000000005be330 r GCC_except_table51
00000000005c2774 r GCC_except_table513
00000000005bf690 r GCC_except_table52
00000000005c01c0 r GCC_except_table52
00000000005c2798 r GCC_except_table528
00000000005c0c44 r GCC_except_table53
00000000005c27b0 r GCC_except_table533
00000000005c27bc r GCC_except_table537
00000000005bdf0c r GCC_except_table54
00000000005be388 r GCC_except_table54
00000000005c1b90 r GCC_except_table54
00000000005c27f4 r GCC_except_table549
00000000005c1bdc r GCC_except_table55
00000000005c281c r GCC_except_table557
00000000005c0c9c r GCC_except_table56
00000000005c284c r GCC_except_table563
00000000005c2858 r GCC_except_table564
00000000005c288c r GCC_except_table565
00000000005bf6d0 r GCC_except_table57
00000000005c1310 r GCC_except_table57
00000000005be808 r GCC_except_table58
00000000005bdf18 r GCC_except_table59
00000000005be6b0 r GCC_except_table6
00000000005be3bc r GCC_except_table60
00000000005c1c28 r GCC_except_table60
00000000005be3c8 r GCC_except_table62
00000000005be814 r GCC_except_table63
00000000005c0ccc r GCC_except_table63
00000000005c1c68 r GCC_except_table63
00000000005be85c r GCC_except_table65
00000000005bf6f8 r GCC_except_table65
00000000005bdf4c r GCC_except_table66
00000000005be3d4 r GCC_except_table67
00000000005bf71c r GCC_except_table67
00000000005c1ca4 r GCC_except_table68
00000000005c1cc8 r GCC_except_table69
00000000005bdd70 r GCC_except_table7
00000000005c1d08 r GCC_except_table70
00000000005c0cfc r GCC_except_table72
00000000005bf2a4 r GCC_except_table73
00000000005c1448 r GCC_except_table73
00000000005c0d48 r GCC_except_table74
00000000005be8b0 r GCC_except_table75
00000000005bdf58 r GCC_except_table76
00000000005bdf8c r GCC_except_table77
00000000005be3e0 r GCC_except_table78
00000000005be908 r GCC_except_table78
00000000005bdfd4 r GCC_except_table79
00000000005c0d78 r GCC_except_table79
00000000005bf480 r GCC_except_table8
00000000005bf764 r GCC_except_table81
00000000005bf770 r GCC_except_table82
00000000005be3ec r GCC_except_table83
00000000005c0dd8 r GCC_except_table83
00000000005be93c r GCC_except_table84
00000000005be434 r GCC_except_table85
00000000005be028 r GCC_except_table87
00000000005c04d4 r GCC_except_table87
00000000005c1d48 r GCC_except_table87
00000000005be948 r GCC_except_table89
00000000005be6c4 r GCC_except_table9
00000000005be034 r GCC_except_table91
00000000005c14fc r GCC_except_table94
00000000005be488 r GCC_except_table95
00000000005be954 r GCC_except_table96
00000000005bf788 r GCC_except_table97
00000000005be4e0 r GCC_except_table98
00000000005bf794 r GCC_except_table98
00000000005c1d6c r GCC_except_table98
00000000005be068 r GCC_except_table99
00000000005c4d08 d _DYNAMIC
00000000005c5000 d _GLOBAL_OFFSET_TABLE_
0000000000420660 t _GLOBAL__sub_I_all_tests.cpp
00000000004204e0 t _GLOBAL__sub_I_asan_rtl.cpp
00000000004205a0 t _GLOBAL__sub_I_benchmark.cpp
0000000000420540 t _GLOBAL__sub_I_main.cpp
00000000004207e0 t _GLOBAL__sub_I_map_test.cpp
0000000000420720 t _GLOBAL__sub_I_set_tests.cpp
0000000000420600 t _GLOBAL__sub_I_stack_test.cpp
00000000004206c0 t _GLOBAL__sub_I_subject_tests.cpp
0000000000420780 t _GLOBAL__sub_I_vector_test.cpp
0000000000577000 R _IO_stdin_used
                 U _Unwind_Backtrace@GCC_3.3
                 U _Unwind_GetIP@GCC_3.0
0000000000486230 W _Unwind_RaiseException
                 U _Unwind_Resume@GCC_3.0
000000000053ecc0 T _Z10map_accessv
0000000000547bb0 W _Z10pair_printIKN2ft4pairIKiiEEEvRT_
0000000000546f30 W _Z10pair_printIN2ft4pairIKiiEEEvRT_
00000000004e1160 T _Z10stack_testv
00000000004e2a70 W _Z10type_printINSt7__cxx1112basic_stringIcSt11char_traitsIcESaIcEEEEvT_
00000000004d55c0 W _Z10type_printIbEvT_
0000000000538da0 W _Z10type_printIcEvT_
0000000000506bc0 W _Z10type_printIiEvT_
00000000004d5680 W _Z10type_printIlEvT_
00000000004d5620 W _Z10type_printImEvT_
00000000005285b0 T _Z11access_testv
00000000004d1300 T _Z11stack_benchv
0000000000533820 W _Z12print_vectorIN2ft6vectorI8LeakTestIiESaIS3_EEEEvRT_
0000000000536060 W _Z12print_vectorIN2ft6vectorIcSaIcEEEEvRT_
0000000000532a20 W _Z12print_vectorIN2ft6vectorIiSaIiEEEEvRT_
00000000004e8680 T _Z12subject_testPKc
0000000000527e10 T _Z13capacity_testv
00000000004e8350 T _Z13run_map_testsb
00000000004e84c0 T _Z13run_set_testsb
000000000046f0d0 T _Z13unpoison_filePN11__sanitizer16__sanitizer_FILEE
00000000005446a0 T _Z14map_operationsv
000000000052b1a0 T _Z14modifiers_testv
0000000000549690 W _Z14print_map_sizeIN2ft3mapIKNSt7__cxx1112basic_stringIcSt11char_traitsIcESaIcEEEiSt4lessIS8_ESaINS0_4pairIS8_iEEEEEEvRT_
000000000054b9d0 W _Z14print_map_sizeIN2ft3mapIKi8LeakTestIiESt4lessIS2_ESaINS0_4pairIS2_S4_EEEEEEvRT_
000000000054de20 W _Z14print_map_sizeIN2ft3mapIKiNSt7__cxx1112basic_stringIcSt11char_traitsIcESaIcEEESt4lessIS2_ESaINS0_4pairIS2_S8_EEEEEEvRT_
00000000004d5f50 W _Z14print_map_sizeIN2ft3mapIKiiSt4lessIS2_ESaINS0_4pairIS2_iEEEEEEvRT_
0000000000560010 W _Z14print_map_sizeIN2ft3mapIKiiSt7greaterIS2_ESaINS0_4pairIS2_iEEEEEEvRT_
000000000050ad00 W _Z14print_map_sizeIN2ft3setINSt7__cxx1112basic_stringIcSt11char_traitsIcESaIcEEESt4lessIS7_ESaIS7_EEEEvRT_
00000000005066c0 W _Z14print_map_sizeIN2ft3setIiSt4lessIiESaIiEEEEvRT_
000000000051b1c0 W _Z14print_map_sizeIN2ft3setIiSt7greaterIiESaIiEEEEvRT_
0000000000504740 T _Z14set_operationsv
00000000004e7e60 T _Z15print_used_timeR7timeval
00000000004e81f0 T _Z15run_stack_testsb
000000000053fab0 T _Z16map_constructorsv
00000000004e8080 T _Z16run_vector_testsb
0000000000501340 T _Z16set_constructorsv
00000000004cf990 T _Z16vector_benchmarkv
0000000000533470 W _Z17print_vector_sizeIN2ft6vectorI8LeakTestIiESaIS3_EEEEvRT_
000000000053d190 W _Z17print_vector_sizeIN2ft6vectorIcSaIcEEEEvRT_
0000000000539240 W _Z17print_vector_sizeIN2ft6vectorIiSaIiEEEEvRT_
00000000004d2f40 W _Z17print_vector_sizeIN2ft6vectorIlSaIlEEEEvRT_
0000000000529680 T _Z19default_constructorv
0000000000541b20 T _Z19map_modifiers_testsv
0000000000502600 T _Z19set_modifiers_testsv
00000000004c63a0 T _Z19ubsan_GetStackTracePN11__sanitizer18BufferedStackTraceEmmmPvb
000000000047b490 T _Z20wrapped_qsort_comparPKvS0_
000000000047b7c0 T _Z22wrapped_qsort_r_comparPKvS0_Pv
0000000000436c20 T _Z23MemcmpInterceptorCommonPvPFiPKvS1_mES1_S1_m
0000000000528f50 T _Z25fill_and_copy_constructorv
000000000052b180 T _Z27constructor_destructor_testv
000000000052db50 T _Z27random_access_iterator_testv
0000000000529c70 T _Z42fill_range_constructor_and_assign_operatorv
000000000053d510 T _Z8map_iterv
00000000004ff6f0 T _Z8set_iterv
00000000004d18a0 T _Z9map_benchv
0000000000541210 T _Z9map_leaksv
0000000000549b80 W _Z9print_mapIN2ft3mapIKNSt7__cxx1112basic_stringIcSt11char_traitsIcESaIcEEEiSt4lessIS8_ESaINS0_4pairIS8_iEEEEEEvRT_
000000000054c760 W _Z9print_mapIN2ft3mapIKiNSt7__cxx1112basic_stringIcSt11char_traitsIcESaIcEEESt4lessIS2_ESaINS0_4pairIS2_S8_EEEEEEvRT_
0000000000546830 W _Z9print_mapIN2ft3mapIKiiSt4lessIS2_ESaINS0_4pairIS2_iEEEEEEvRT_
000000000054a030 W _Z9print_mapIN2ft3mapIKiiSt7greaterIS2_ESaINS0_4pairIS2_iEEEEEEvRT_
0000000000509960 W _Z9print_setIN2ft3setINSt7__cxx1112basic_stringIcSt11char_traitsIcESaIcEEESt4lessIS7_ESaIS7_EEEEvRT_
00000000005067c0 W _Z9print_setIN2ft3setIiSt4lessIiESaIiEEEEvRT_
00000000005082e0 W _Z9print_setIN2ft3setIiSt7greaterIiESaIiEEEEvRT_
00000000004d2210 T _Z9set_benchv
0000000000e6fc10 b _ZL10CurrentUBR
00000000004c6e40 t _ZL10RenderTextPN11__sanitizer20InternalScopedStringEPKcPKN7__ubsan4Diag3ArgE
0000000000587e3e r _ZL10kVptrCheck
0000000000000008 b _ZL10pglob_copy
0000000000000038 b _ZL10qsort_size
0000000000439090 t _ZL10read_iovecPvPN11__sanitizer17__sanitizer_iovecEmm
00000000004c7440 t _ZL10upperBoundmPN7__ubsan5RangeEj
0000000000488570 t _ZL11AtCxaAtexitPv
0000000000434360 t _ZL11StrstrCheckPvPcPKcS2_
00000000005d8c20 b _ZL11ioctl_table
000000000044c3a0 t _ZL11read_msghdrPvPN11__sanitizer18__sanitizer_msghdrEl
0000000000454b40 t _ZL11read_pollfdPvPN11__sanitizer18__sanitizer_pollfdEm
000000000043a050 t _ZL11unpoison_tmPvPN11__sanitizer14__sanitizer_tmE
00000000004384a0 t _ZL11write_iovecPvPN11__sanitizer17__sanitizer_iovecEmm
0000000000589500 r _ZL12null_pointer
000000000058a460 r _ZL12null_pointer
000000000058ad20 r _ZL12null_pointer
000000000058c0c0 r _ZL12null_pointer
000000000058dec0 r _ZL12null_pointer
000000000058fce0 r _ZL12null_pointer
0000000000000030 b _ZL12qsort_compar
0000000000000048 b _ZL12qsort_r_size
000000000043c880 t _ZL12scanf_commonPvibPKcP13__va_list_tag
0000000000471840 t _ZL12wrapped_readPvPcm
0000000000471880 t _ZL12wrapped_seekPvPyi
0000000000458440 t _ZL12write_mntentPvPN11__sanitizer18__sanitizer_mntentE
000000000044b900 t _ZL12write_msghdrPvPN11__sanitizer18__sanitizer_msghdrEl
0000000000454ee0 t _ZL12write_pollfdPvPN11__sanitizer18__sanitizer_pollfdEm
000000000043dd10 t _ZL13printf_commonPvPKcP13__va_list_tag
0000000000e6fbf0 b _ZL13ubsan_init_mu
00000000004718a0 t _ZL13wrapped_closePv
0000000000471860 t _ZL13wrapped_writePvPKcm
0000000000448810 t _ZL13write_hostentPvPN11__sanitizer19__sanitizer_hostentE
0000000000000040 b _ZL14qsort_r_compar
0000000000000018 b _ZL14scandir_compar
0000000000000010 b _ZL14scandir_filter
0000000000441af0 t _ZL14unpoison_groupPvPN11__sanitizer17__sanitizer_groupE
0000000000477ff0 t _ZL14write_protoentPvPN11__sanitizer20__sanitizer_protoentE
000000000046edf0 t _ZL14xdrrec_rd_wrapPcS_i
000000000046ede0 t _ZL14xdrrec_wr_wrapPcS_i
0000000000e6fb48 b _ZL15suppression_ctx
00000000004450f0 t _ZL15unpoison_glob_tPvPN11__sanitizer18__sanitizer_glob_tE
0000000000440ff0 t _ZL15unpoison_passwdPvPN11__sanitizer18__sanitizer_passwdE
00000000004904a0 t _ZL15wrapped_gl_statPKcPv
00000000005d87d0 b _ZL15xdrrec_wrap_map
00000000004cefc0 t _ZL16findBaseAtOffsetPKN10__cxxabiv117__class_type_infoEl
00000000004cb1f0 t _ZL16handleNonNullArgPN7__ubsan14NonNullArgDataENS_13ReportOptionsEb
0000000000490a10 t _ZL16ioctl_table_fillv
00000000005d8c10 b _ZL16ioctl_table_size
0000000000000028 b _ZL16scandir64_compar
0000000000000020 b _ZL16scandir64_filter
0000000000490470 t _ZL16wrapped_gl_lstatPKcPv
0000000000450370 t _ZL17StrtolFixAndCheckPvPKcPPcS2_i
0000000000485ea0 t _ZL17asan_thread_startPv
00000000004cbc60 t _ZL17handleCFIBadIcallPN7__ubsan16CFICheckFailDataEmNS_13ReportOptionsE
00000000005d8098 b _ZL17ioctl_initialized
00000000005c7b20 d _ZL17kSuppressionTypes
0000000000e6fbf1 b _ZL17ubsan_initialized
0000000000490450 t _ZL18wrapped_gl_opendirPKc
0000000000490430 t _ZL18wrapped_gl_readdirPv
00000000005dcc20 b _ZL19allocated_for_dlsym
00000000004cade0 t _ZL19handleNonNullReturnPN7__ubsan17NonNullReturnDataEPNS_14SourceLocationENS_13ReportOptionsEb
0000000000490410 t _ZL19wrapped_gl_closedirPv
00000000004ca8f0 t _ZL20handleInvalidBuiltinPN7__ubsan18InvalidBuiltinDataENS_13ReportOptionsE
0000000000490320 t _ZL21format_get_value_sizecPKcb
00000000004cab50 t _ZL21handleInvalidObjCCastPN7__ubsan15InvalidObjCCastEmNS_13ReportOptionsE
00000000004c96f0 t _ZL21handleOutOfBoundsImplPN7__ubsan15OutOfBoundsDataEmNS_13ReportOptionsE
00000000004cee10 t _ZL21isDerivedFromAtOffsetPKN10__cxxabiv117__class_type_infoES2_l
00000000005dac20 b _ZL22alloc_memory_for_dlsym
00000000004ca170 t _ZL22handleLoadInvalidValuePN7__ubsan16InvalidValueDataEmNS_13ReportOptionsE
00000000004c7860 t _ZL22handleTypeMismatchImplPN7__ubsan16TypeMismatchDataEmNS_13ReportOptionsE
0000000000454180 t _ZL22wrapped_scandir_comparPPKN11__sanitizer18__sanitizer_direntES3_
0000000000454160 t _ZL22wrapped_scandir_filterPKN11__sanitizer18__sanitizer_direntE
00000000004c9e60 t _ZL23handleFloatCastOverflowPvmN7__ubsan13ReportOptionsE
00000000004c9ab0 t _ZL23handleMissingReturnImplPN7__ubsan15UnreachableDataENS_13ReportOptionsE
0000000000e6fb80 b _ZL23suppression_placeholder
00000000004c8d80 t _ZL24handleDivremOverflowImplPN7__ubsan12OverflowDataEmmNS_13ReportOptionsE
00000000004ca410 t _ZL24handleImplicitConversionPN7__ubsan22ImplicitConversionDataENS_13ReportOptionsEmm
00000000004c8a80 t _ZL24handleNegateOverflowImplPN7__ubsan12OverflowDataEmNS_13ReportOptionsE
00000000005dab60 b _ZL24interceptor_metadata_map
0000000000454890 t _ZL24wrapped_scandir64_comparPPKN11__sanitizer20__sanitizer_dirent64ES3_
0000000000454870 t _ZL24wrapped_scandir64_filterPKN11__sanitizer20__sanitizer_dirent64E
00000000004c8580 t _ZL25handleIntegerOverflowImplIN7__ubsan5ValueEEvPNS0_12OverflowDataEmPKcT_NS0_13ReportOptionsE
00000000004cb600 t _ZL25handlePointerOverflowImplPN7__ubsan19PointerOverflowDataEmmNS_13ReportOptionsE
00000000004c9c20 t _ZL25handleVLABoundNotPositivePN7__ubsan12VLABoundDataEmNS_13ReportOptionsE
00000000004cdc00 t _ZL26HandleDynamicTypeCacheMissPN7__ubsan24DynamicTypeCacheMissDataEmmNS_13ReportOptionsE
00000000004c90f0 t _ZL26handleShiftOutOfBoundsImplPN7__ubsan20ShiftOutOfBoundsDataEmmNS_13ReportOptionsE
0000000000488d00 t _ZL28InitializeCommonInterceptorsv
00000000004c9940 t _ZL28handleBuiltinUnreachableImplPN7__ubsan15UnreachableDataENS_13ReportOptionsE
00000000004c7f00 t _ZL29handleAlignmentAssumptionImplPN7__ubsan23AlignmentAssumptionDataEmmmNS_13ReportOptionsE
00000000005dcc28 b _ZL30last_dlsym_alloc_size_in_words
0000000000485f70 t _ZL32ClearShadowMemoryForContextStackmm
00000000005c46e0 d _ZL9kGlobCopy
00000000004ebe40 W _ZN11MutantStackIcE3endEv
00000000004ebd90 W _ZN11MutantStackIcE5beginEv
00000000004ebae0 W _ZN11MutantStackIcEC2Ev
00000000004ebf50 W _ZN11MutantStackIcED2Ev
00000000004beb80 T _ZN11__sanitizer10ExtractIntEPKcS1_Pi
00000000004b1a40 T _ZN11__sanitizer10FileExistsEPKc
00000000004ae5c0 T _ZN11__sanitizer10FlagParser10ll_strndupEPKcm
00000000004ae790 T _ZN11__sanitizer10FlagParser10parse_flagEPKc
00000000004aec50 T _ZN11__sanitizer10FlagParser11ParseStringEPKcS2_
00000000004ae6f0 T _ZN11__sanitizer10FlagParser11fatal_errorEPKc
00000000004aeac0 T _ZN11__sanitizer10FlagParser11parse_flagsEPKc
00000000004aea10 T _ZN11__sanitizer10FlagParser11run_handlerEPKcS2_
00000000004aee70 T _ZN11__sanitizer10FlagParser15RegisterHandlerEPKcPNS_15FlagHandlerBaseES2_
00000000004ae740 T _ZN11__sanitizer10FlagParser15skip_whitespaceEv
00000000004aeb50 T _ZN11__sanitizer10FlagParser18ParseStringFromEnvEPKc
00000000004ae610 T _ZN11__sanitizer10FlagParser21PrintFlagDescriptionsEv
000000000066f248 B _ZN11__sanitizer10FlagParser5AllocE
00000000004ae720 T _ZN11__sanitizer10FlagParser8is_spaceEc
00000000004aed10 T _ZN11__sanitizer10FlagParser9ParseFileEPKcb
00000000004aeec0 T _ZN11__sanitizer10FlagParserC1Ev
00000000004aeec0 T _ZN11__sanitizer10FlagParserC2Ev
00000000004b1db0 T _ZN11__sanitizer10GetEnvironEv
00000000004b8eb0 T _ZN11__sanitizer10GetTlsSizeEv
00000000004b88e0 T _ZN11__sanitizer10ProtectGapEmmmm
0000000000426b50 W _ZN11__sanitizer10QuarantineIN6__asan18QuarantineCallbackENS1_9AsanChunkEE15DrainAndRecycleEPNS_15QuarantineCacheIS2_EES2_
00000000004236e0 W _ZN11__sanitizer10QuarantineIN6__asan18QuarantineCallbackENS1_9AsanChunkEE5DrainEPNS_15QuarantineCacheIS2_EES2_
0000000000423800 W _ZN11__sanitizer10QuarantineIN6__asan18QuarantineCallbackENS1_9AsanChunkEE7RecycleEmS2_
0000000000423d30 W _ZN11__sanitizer10QuarantineIN6__asan18QuarantineCallbackENS1_9AsanChunkEE9DoRecycleEPNS_15QuarantineCacheIS2_EES2_
00000000004be310 T _ZN11__sanitizer10RenderDataEPNS_20InternalScopedStringEPKcPKNS_8DataInfoES3_
00000000004ac760 T _ZN11__sanitizer10ReportFile13GetReportPathEv
00000000004ac650 T _ZN11__sanitizer10ReportFile13SetReportPathEPKc
00000000004c12f0 T _ZN11__sanitizer10ReportFile14SupportsColorsEv
00000000004ac4c0 T _ZN11__sanitizer10ReportFile17ReopenIfNecessaryEv
00000000004b3db0 T _ZN11__sanitizer10ReportFile5WriteEPKcm
00000000004bcf80 T _ZN11__sanitizer10StackTrace12GetCurrentPcEv
00000000004bcf70 T _ZN11__sanitizer10StackTrace20GetNextInstructionPcEm
00000000004bed50 T _ZN11__sanitizer10Symbolizer11SymbolizePCEm
0000000000e6f910 B _ZN11__sanitizer10Symbolizer11symbolizer_E
00000000004c08f0 T _ZN11__sanitizer10Symbolizer12PlatformInitEv
00000000004bee60 T _ZN11__sanitizer10Symbolizer13SymbolizeDataEmPNS_8DataInfoE
00000000004c0c10 T _ZN11__sanitizer10Symbolizer14LateInitializeEv
00000000004bf360 T _ZN11__sanitizer10Symbolizer14RefreshModulesEv
00000000004bef50 T _ZN11__sanitizer10Symbolizer14SymbolizeFrameEmPNS_9FrameInfoE
00000000004be6a0 T _ZN11__sanitizer10Symbolizer15ModuleNameOwner12GetOwnedCopyEPKc
00000000004be8f0 T _ZN11__sanitizer10Symbolizer15SymbolizerScopeC1EPKS0_
00000000004be8f0 T _ZN11__sanitizer10Symbolizer15SymbolizerScopeC2EPKS0_
00000000004be910 T _ZN11__sanitizer10Symbolizer15SymbolizerScopeD1Ev
00000000004be910 T _ZN11__sanitizer10Symbolizer15SymbolizerScopeD2Ev
00000000004c0880 T _ZN11__sanitizer10Symbolizer16PlatformDemangleEPKc
00000000004be930 T _ZN11__sanitizer10Symbolizer19LateInitializeToolsEv
00000000004bf190 T _ZN11__sanitizer10Symbolizer20FindModuleForAddressEm
00000000004be640 T _ZN11__sanitizer10Symbolizer20InvalidateModuleListEv
0000000000e6f920 B _ZN11__sanitizer10Symbolizer21symbolizer_allocator_E
00000000004bf020 T _ZN11__sanitizer10Symbolizer27GetModuleNameAndOffsetForPCEmPPKcPm
00000000004bee10 T _ZN11__sanitizer10Symbolizer33FindModuleNameAndOffsetForAddressEmPPKcPmPNS_10ModuleArchE
00000000004bf090 T _ZN11__sanitizer10Symbolizer5FlushEv
00000000004be650 T _ZN11__sanitizer10Symbolizer8AddHooksEPFvvES2_
00000000004bf100 T _ZN11__sanitizer10Symbolizer8DemangleEPKc
0000000000e6f918 B _ZN11__sanitizer10Symbolizer8init_mu_E
00000000004beac0 T _ZN11__sanitizer10Symbolizer9GetOrInitEv
00000000004be880 T _ZN11__sanitizer10SymbolizerC1ENS_13IntrusiveListINS_14SymbolizerToolEEE
00000000004be880 T _ZN11__sanitizer10SymbolizerC2ENS_13IntrusiveListINS_14SymbolizerToolEEE
00000000004b8ea0 T _ZN11__sanitizer10ThreadSelfEv
00000000004b31f0 T _ZN11__sanitizer10UnmapOrDieEPvm
0000000000584945 R _ZN11__sanitizer10false_type5valueE
0000000000583bf8 R _ZN11__sanitizer10sa_siginfoE
00000000005c72f8 D _ZN11__sanitizer10timeval_szE
00000000004904d0 W _ZN11__sanitizer11AddrHashMapI25CommonInterceptorMetadataLm31051EE7acquireEPNS2_6HandleE
00000000004908d0 W _ZN11__sanitizer11AddrHashMapI25CommonInterceptorMetadataLm31051EE7releaseEPNS2_6HandleE
000000000049a450 W _ZN11__sanitizer11AddrHashMapIP13XdrRecWrapperLm11EE7acquireEPNS3_6HandleE
000000000049a7b0 W _ZN11__sanitizer11AddrHashMapIP13XdrRecWrapperLm11EE7releaseEPNS3_6HandleE
00000000004be460 T _ZN11__sanitizer11AddressInfo14FillModuleInfoEPKcmNS_10ModuleArchE
00000000004be420 T _ZN11__sanitizer11AddressInfo5ClearEv
00000000004be400 T _ZN11__sanitizer11AddressInfoC1Ev
00000000004be400 T _ZN11__sanitizer11AddressInfoC2Ev
00000000004b80b0 T _ZN11__sanitizer11CheckFailedEPKciS1_yy
00000000004accc0 T _ZN11__sanitizer11CommonFlags11SetDefaultsEv
00000000004ace00 T _ZN11__sanitizer11CommonFlags8CopyFromERKS0_
00000000004bec60 T _ZN11__sanitizer11ExtractSptrEPKcS1_Pl
00000000004bebf0 T _ZN11__sanitizer11ExtractUptrEPKcS1_Pm
00000000004ae3a0 W _ZN11__sanitizer11FlagHandlerINS_16HandleSignalModeEE5ParseEPKc
00000000004ae490 W _ZN11__sanitizer11FlagHandlerINS_16HandleSignalModeEE6FormatEPcm
0000000000427a80 W _ZN11__sanitizer11FlagHandlerIPKcE5ParseES2_
0000000000427a90 W _ZN11__sanitizer11FlagHandlerIPKcE6FormatEPcm
0000000000427990 W _ZN11__sanitizer11FlagHandlerIbE5ParseEPKc
0000000000427a40 W _ZN11__sanitizer11FlagHandlerIbE6FormatEPcm
0000000000427910 W _ZN11__sanitizer11FlagHandlerIiE5ParseEPKc
0000000000427960 W _ZN11__sanitizer11FlagHandlerIiE6FormatEPcm
00000000004ae4c0 W _ZN11__sanitizer11FlagHandlerImE5ParseEPKc
00000000004ae510 W _ZN11__sanitizer11FlagHandlerImE6FormatEPcm
00000000004b2930 T _ZN11__sanitizer11GetPageSizeEv
00000000004b8c80 T _ZN11__sanitizer11InitTlsSizeEv
00000000004b2e60 T _ZN11__sanitizer11MaybeReexecEv
00000000004bddc0 T _ZN11__sanitizer11RenderFrameEPNS_20InternalScopedStringEPKcimPKNS_11AddressInfoEbS3_S3_
00000000004b95d0 T _ZN11__sanitizer11UnmapFromToEmm
00000000004b3900 T _ZN11__sanitizer11WriteToFileEiPKvmPmPi
00000000004b0cb0 T _ZN11__sanitizer11mem_is_zeroEPKcm
00000000005c52a0 D _ZN11__sanitizer11report_fileE
00000000005c7308 D _ZN11__sanitizer11sigset_t_szE
00000000004b6a00 T _ZN11__sanitizer12DTLS_DestroyEv
00000000004beb30 T _ZN11__sanitizer12ExtractTokenEPKcS1_PPc
00000000005c7a4c D _ZN11__sanitizer12IOCTL_LPCHARE
00000000005c7a60 D _ZN11__sanitizer12IOCTL_LPTIMEE
00000000005c7a64 D _ZN11__sanitizer12IOCTL_LPWAITE
00000000005c77dc D _ZN11__sanitizer12IOCTL_TCFLSHE
00000000005c77e0 D _ZN11__sanitizer12IOCTL_TCGETAE
00000000005c77e4 D _ZN11__sanitizer12IOCTL_TCGETSE
00000000005c77e8 D _ZN11__sanitizer12IOCTL_TCSBRKE
00000000005c77f0 D _ZN11__sanitizer12IOCTL_TCSETAE
00000000005c77fc D _ZN11__sanitizer12IOCTL_TCSETSE
00000000005c7808 D _ZN11__sanitizer12IOCTL_TCXONCE
00000000004a7e40 T _ZN11__sanitizer12InternalFreeEPvPNS_30SizeClassAllocator32LocalCacheINS_20SizeClassAllocator32INS_4AP32EEEEE
00000000004a9d80 T _ZN11__sanitizer12LoadedModule15addAddressRangeEmmbbPKc
00000000004a9b90 T _ZN11__sanitizer12LoadedModule3setEPKcm
00000000004a9cb0 T _ZN11__sanitizer12LoadedModule3setEPKcmNS_10ModuleArchEPhb
00000000004a9c30 T _ZN11__sanitizer12LoadedModule5clearEv
00000000004ba0e0 T _ZN11__sanitizer12MmapNoAccessEm
00000000004b5150 T _ZN11__sanitizer12ParseDecimalEPPKc
00000000004aa200 T _ZN11__sanitizer12PrintCmdlineEv
00000000004b38c0 T _ZN11__sanitizer12ReadFromFileEiPvmPmPi
00000000004b5ba0 T _ZN11__sanitizer12ReadProcMapsEPNS_16ProcSelfMapsBuffE
00000000004aa300 T _ZN11__sanitizer12RunFreeHooksEPKv
00000000004c5d40 W _ZN11__sanitizer12SortAndDedupINS_18InternalMmapVectorIjEENS_11CompareLessIjEEEEvRT_T0_
00000000004ba9b0 T _ZN11__sanitizer12StopTheWorldEPFvRKNS_20SuspendedThreadsListEPvES3_
00000000004b23e0 T _ZN11__sanitizer12ThreadLister11ListThreadsEPNS_18InternalMmapVectorIyEE
00000000004b2720 T _ZN11__sanitizer12ThreadLister7IsAliveEi
00000000004b2310 T _ZN11__sanitizer12ThreadListerC1Ei
00000000004b2310 T _ZN11__sanitizer12ThreadListerC2Ei
00000000004b28e0 T _ZN11__sanitizer12ThreadListerD1Ev
00000000004b28e0 T _ZN11__sanitizer12ThreadListerD2Ev
00000000004c21c0 t _ZN11__sanitizer12_GLOBAL__N_112Unwind_TraceEP15_Unwind_ContextPv
00000000005c73b4 D _ZN11__sanitizer12glob_nomatchE
00000000004b1990 T _ZN11__sanitizer12internal_dupEi
00000000005c7304 D _ZN11__sanitizer12mbstate_t_szE
00000000005c72e8 D _ZN11__sanitizer12pthread_t_szE
00000000005c72d8 D _ZN11__sanitizer12siginfo_t_szE
00000000005c72cc D _ZN11__sanitizer12struct_tm_szE
00000000004c0f80 W _ZN11__sanitizer13Addr2LinePool11SendCommandEPKcm
00000000004c0e40 W _ZN11__sanitizer13Addr2LinePool11SymbolizePCEmPNS_15SymbolizedStackE
00000000004c0e80 W _ZN11__sanitizer13Addr2LinePool13SymbolizeDataEmPNS_8DataInfoE
00000000004b2030 T _ZN11__sanitizer13BlockingMutex11CheckLockedEv
00000000004b1f70 T _ZN11__sanitizer13BlockingMutex4LockEv
00000000004b1fe0 T _ZN11__sanitizer13BlockingMutex6UnlockEv
00000000004b1f60 T _ZN11__sanitizer13BlockingMutexC1Ev
00000000004b1f60 T _ZN11__sanitizer13BlockingMutexC2Ev
00000000004b2e80 T _ZN11__sanitizer13CheckMPROTECTEv
00000000004c0390 T _ZN11__sanitizer13DemangleSwiftEPKc
00000000004b9820 T _ZN11__sanitizer13GetThreadSelfEv
00000000005c7684 D _ZN11__sanitizer13IOCTL_FDFLUSHE
00000000005c76b0 D _ZN11__sanitizer13IOCTL_FDMSGONE
00000000005c76bc D _ZN11__sanitizer13IOCTL_FDRESETE
00000000005c7500 D _ZN11__sanitizer13IOCTL_FIOCLEXE
00000000005c7508 D _ZN11__sanitizer13IOCTL_FIONBIOE
00000000005c79fc D _ZN11__sanitizer13IOCTL_KDADDIOE
00000000005c7a00 D _ZN11__sanitizer13IOCTL_KDDELIOE
00000000005c7a40 D _ZN11__sanitizer13IOCTL_LPABORTE
00000000005c7a58 D _ZN11__sanitizer13IOCTL_LPRESETE
00000000005c77ec D _ZN11__sanitizer13IOCTL_TCSBRKPE
00000000005c77f4 D _ZN11__sanitizer13IOCTL_TCSETAFE
00000000005c77f8 D _ZN11__sanitizer13IOCTL_TCSETAWE
00000000005c7800 D _ZN11__sanitizer13IOCTL_TCSETSFE
00000000005c7804 D _ZN11__sanitizer13IOCTL_TCSETSWE
00000000005c7814 D _ZN11__sanitizer13IOCTL_TIOCINQE
00000000005c7594 D _ZN11__sanitizer13IOCTL_TIOCPKTE
00000000005c75a4 D _ZN11__sanitizer13IOCTL_TIOCSTIE
00000000004a7bb0 T _ZN11__sanitizer13InternalAllocEmPNS_30SizeClassAllocator32LocalCacheINS_20SizeClassAllocator32INS_4AP32EEEEEm
00000000004b2a90 T _ZN11__sanitizer13LibraryNameIsEPKcS1_
00000000004b9220 T _ZN11__sanitizer13ListOfModules12fallbackInitEv
00000000004b8fa0 T _ZN11__sanitizer13ListOfModules4initEv
00000000004b2e30 T _ZN11__sanitizer13SignalContext10InitPcSpBpEv
00000000004b2e20 T _ZN11__sanitizer13SignalContext16DumpAllRegistersEPv
00000000004c1f00 W _ZN11__sanitizer13SignalContextC2EPvS1_
00000000004bc7f0 T _ZN11__sanitizer13StackDepotGetEj
00000000004bc340 T _ZN11__sanitizer13StackDepotPutENS_10StackTraceE
00000000004a9ee0 T _ZN11__sanitizer13TemplateMatchEPKcS1_
00000000004b8580 T _ZN11__sanitizer13WriteToSyslogEPKc
00000000004b19a0 T _ZN11__sanitizer13internal_dup2Eii
00000000004b2130 T _ZN11__sanitizer13internal_forkEv
00000000004b1810 T _ZN11__sanitizer13internal_mmapEPvmiiiy
00000000004b1880 T _ZN11__sanitizer13internal_openEPKci
00000000004b1890 T _ZN11__sanitizer13internal_openEPKcij
00000000004b18a0 T _ZN11__sanitizer13internal_readEiPvm
00000000004b1930 T _ZN11__sanitizer13internal_statEPKcPv
00000000005c7310 D _ZN11__sanitizer13struct_tms_szE
00000000005c7330 D _ZN11__sanitizer13ucontext_t_szE
000000000066f258 B _ZN11__sanitizer13unknown_flagsE
00000000004b7ea0 T _ZN11__sanitizer14AddDieCallbackEPFvvE
00000000004b9460 T _ZN11__sanitizer14AndroidLogInitEv
00000000004c0360 T _ZN11__sanitizer14DemangleCXXABIEPKc
00000000004b3c40 T _ZN11__sanitizer14DumpProcessMapEv
00000000004aa050 T _ZN11__sanitizer14GetProcessNameEv
00000000005c760c D _ZN11__sanitizer14IOCTL_BLKRAGETE
00000000005c7610 D _ZN11__sanitizer14IOCTL_BLKRASETE
00000000005c7614 D _ZN11__sanitizer14IOCTL_BLKROGETE
00000000005c7618 D _ZN11__sanitizer14IOCTL_BLKROSETE
00000000005c75c0 D _ZN11__sanitizer14IOCTL_EVIOCGIDE
00000000005c75e4 D _ZN11__sanitizer14IOCTL_EVIOCGSWE
00000000005c75f8 D _ZN11__sanitizer14IOCTL_EVIOCSFFE
00000000005c767c D _ZN11__sanitizer14IOCTL_FDCLRPRME
00000000005c7680 D _ZN11__sanitizer14IOCTL_FDDEFPRME
00000000005c7688 D _ZN11__sanitizer14IOCTL_FDFMTBEGE
00000000005c768c D _ZN11__sanitizer14IOCTL_FDFMTENDE
00000000005c7690 D _ZN11__sanitizer14IOCTL_FDFMTTRKE
00000000005c76a8 D _ZN11__sanitizer14IOCTL_FDGETPRME
00000000005c76ac D _ZN11__sanitizer14IOCTL_FDMSGOFFE
00000000005c76b8 D _ZN11__sanitizer14IOCTL_FDRAWCMDE
00000000005c76cc D _ZN11__sanitizer14IOCTL_FDSETPRME
00000000005c74fc D _ZN11__sanitizer14IOCTL_FIOASYNCE
00000000005c750c D _ZN11__sanitizer14IOCTL_FIONCLEXE
00000000005c79ec D _ZN11__sanitizer14IOCTL_GIO_CMAPE
00000000005c79f0 D _ZN11__sanitizer14IOCTL_GIO_FONTE
00000000005c7ae4 D _ZN11__sanitizer14IOCTL_KDENABIOE
00000000005c7ae8 D _ZN11__sanitizer14IOCTL_KDGETLEDE
00000000005c7a0c D _ZN11__sanitizer14IOCTL_KDGKBENTE
00000000005c7a10 D _ZN11__sanitizer14IOCTL_KDGKBLEDE
00000000005c7af8 D _ZN11__sanitizer14IOCTL_KDMKTONEE
00000000005c7afc D _ZN11__sanitizer14IOCTL_KDSETLEDE
00000000005c7a2c D _ZN11__sanitizer14IOCTL_KDSKBENTE
00000000005c7a30 D _ZN11__sanitizer14IOCTL_KDSKBLEDE
00000000005c7a50 D _ZN11__sanitizer14IOCTL_LPGETIRQE
00000000005c7a5c D _ZN11__sanitizer14IOCTL_LPSETIRQE
00000000005c7848 D _ZN11__sanitizer14IOCTL_MTIOCGETE
00000000005c7718 D _ZN11__sanitizer14IOCTL_MTIOCPOSE
00000000005c784c D _ZN11__sanitizer14IOCTL_MTIOCTOPE
00000000005c7a70 D _ZN11__sanitizer14IOCTL_PIO_CMAPE
00000000005c7a74 D _ZN11__sanitizer14IOCTL_PIO_FONTE
00000000005c774c D _ZN11__sanitizer14IOCTL_SIOCDARPE
00000000005c7758 D _ZN11__sanitizer14IOCTL_SIOCGARPE
00000000005c777c D _ZN11__sanitizer14IOCTL_SIOCSARPE
00000000005c7564 D _ZN11__sanitizer14IOCTL_TIOCCONSE
00000000005c7568 D _ZN11__sanitizer14IOCTL_TIOCEXCLE
00000000005c756c D _ZN11__sanitizer14IOCTL_TIOCGETDE
00000000005c7578 D _ZN11__sanitizer14IOCTL_TIOCMBICE
00000000005c757c D _ZN11__sanitizer14IOCTL_TIOCMBISE
00000000005c7580 D _ZN11__sanitizer14IOCTL_TIOCMGETE
00000000005c7584 D _ZN11__sanitizer14IOCTL_TIOCMSETE
00000000005c758c D _ZN11__sanitizer14IOCTL_TIOCNXCLE
00000000005c7590 D _ZN11__sanitizer14IOCTL_TIOCOUTQE
00000000005c759c D _ZN11__sanitizer14IOCTL_TIOCSETDE
00000000004a7dd0 T _ZN11__sanitizer14InternalCallocEmmPNS_30SizeClassAllocator32LocalCacheINS_20SizeClassAllocator32INS_4AP32EEEEE
00000000004b3da0 T _ZN11__sanitizer14IsAbsolutePathEPKc
00000000004bf800 T _ZN11__sanitizer14LLVMSymbolizer11SymbolizePCEmPNS_15SymbolizedStackE
00000000004bf980 T _ZN11__sanitizer14LLVMSymbolizer13SymbolizeDataEmPNS_8DataInfoE
00000000004bf9d0 T _ZN11__sanitizer14LLVMSymbolizer14SymbolizeFrameEmPNS_9FrameInfoE
00000000004bf840 T _ZN11__sanitizer14LLVMSymbolizer20FormatAndSendCommandEPKcS2_mNS_10ModuleArchE
00000000004bf3a0 T _ZN11__sanitizer14LLVMSymbolizerC1EPKcPNS_17LowLevelAllocatorE
00000000004bf3a0 T _ZN11__sanitizer14LLVMSymbolizerC2EPKcPNS_17LowLevelAllocatorE
00000000004b3590 T _ZN11__sanitizer14MmapFixedOrDieEmmPKc
000000000066d0c0 B _ZN11__sanitizer14PageSizeCachedE
00000000004b2940 T _ZN11__sanitizer14ReadBinaryNameEPcm
00000000004aa280 T _ZN11__sanitizer14RunMallocHooksEPKvm
00000000004b9b10 T _ZN11__sanitizer14SleepForMillisEi
00000000004bc370 W _ZN11__sanitizer14StackDepotBaseINS_14StackDepotNodeELi1ELi20EE3PutENS_10StackTraceEPb
00000000004bc980 W _ZN11__sanitizer14StackDepotBaseINS_14StackDepotNodeELi1ELi20EE8PrintAllEv
00000000004beab0 W _ZN11__sanitizer14SymbolizerTool14LateInitializeEv
00000000004bea90 W _ZN11__sanitizer14SymbolizerTool14SymbolizeFrameEmPNS_9FrameInfoE
00000000004beaa0 W _ZN11__sanitizer14SymbolizerTool5FlushEv
00000000004c00d0 W _ZN11__sanitizer14SymbolizerTool8DemangleEPKc
00000000004b7430 T _ZN11__sanitizer14ThreadRegistry10FindThreadEPFbPNS_17ThreadContextBaseEPvES3_
00000000004b7950 T _ZN11__sanitizer14ThreadRegistry10JoinThreadEjPv
00000000004b7cb0 T _ZN11__sanitizer14ThreadRegistry11StartThreadEjyNS_10ThreadTypeEPv
0000000000584940 R _ZN11__sanitizer14ThreadRegistry11kUnknownTidE
00000000004b7170 T _ZN11__sanitizer14ThreadRegistry12CreateThreadEmbjPv
00000000004b7700 T _ZN11__sanitizer14ThreadRegistry12DetachThreadEjPv
00000000004b7b10 T _ZN11__sanitizer14ThreadRegistry12FinishThreadEj
00000000004b7370 T _ZN11__sanitizer14ThreadRegistry13QuarantinePopEv
00000000004b75a0 T _ZN11__sanitizer14ThreadRegistry13SetThreadNameEjPKc
00000000004b77f0 T _ZN11__sanitizer14ThreadRegistry14QuarantinePushEPNS_17ThreadContextBaseE
00000000004b7d90 T _ZN11__sanitizer14ThreadRegistry15SetThreadUserIdEjm
00000000004b7140 T _ZN11__sanitizer14ThreadRegistry18GetMaxAliveThreadsEv
00000000004b70e0 T _ZN11__sanitizer14ThreadRegistry18GetNumberOfThreadsEPmS1_S1_
00000000004b7670 T _ZN11__sanitizer14ThreadRegistry21SetThreadNameByUserIdEmPKc
00000000004b74c0 T _ZN11__sanitizer14ThreadRegistry23FindThreadContextLockedEPFbPNS_17ThreadContextBaseEPvES3_
00000000004b7530 T _ZN11__sanitizer14ThreadRegistry29FindThreadContextByOsIDLockedEy
00000000004b73c0 T _ZN11__sanitizer14ThreadRegistry30RunCallbackForEachThreadLockedEPFvPNS_17ThreadContextBaseEPvES3_
00000000004b7060 T _ZN11__sanitizer14ThreadRegistryC1EPFPNS_17ThreadContextBaseEjEjjj
00000000004b7060 T _ZN11__sanitizer14ThreadRegistryC2EPFPNS_17ThreadContextBaseEjEjjj
00000000004ba460 T _ZN11__sanitizer14WaitForProcessEi
00000000004b1a30 T _ZN11__sanitizer14internal__exitEi
00000000004aeef0 T _ZN11__sanitizer14internal_atollEPKc
00000000004b2c50 T _ZN11__sanitizer14internal_cloneEPFiPvES0_iS0_PiS0_S3_
00000000004b1870 T _ZN11__sanitizer14internal_closeEi
00000000004b1950 T _ZN11__sanitizer14internal_fstatEiPv
00000000004b20f0 T _ZN11__sanitizer14internal_lseekEiyi
00000000004b1940 T _ZN11__sanitizer14internal_lstatEPKcPv
00000000004b2100 T _ZN11__sanitizer14internal_prctlEimmmm
00000000004b19f0 T _ZN11__sanitizer14internal_sleepEj
00000000004b2cd0 T _ZN11__sanitizer14internal_unameEP7utsname
00000000004b18d0 T _ZN11__sanitizer14internal_writeEiPKvm
00000000005c73d0 D _ZN11__sanitizer14ptrace_getregsE
00000000005c73d4 D _ZN11__sanitizer14ptrace_setregsE
000000000047bf60 T _ZN11__sanitizer14real_sigactionEiPKvPv
000000000066f141 B _ZN11__sanitizer14report_file_muE
0000000000583c10 R _ZN11__sanitizer14si_SEGV_ACCERRE
0000000000583c0c R _ZN11__sanitizer14si_SEGV_MAPERRE
00000000005c7498 D _ZN11__sanitizer14struct_mtop_szE
00000000005c72c0 D _ZN11__sanitizer14struct_stat_szE
00000000005c739c D _ZN11__sanitizer14struct_utmp_szE
00000000004ba1c0 T _ZN11__sanitizer15AdjustStackSizeEPv
00000000004aa0c0 T _ZN11__sanitizer15CacheBinaryNameEv
00000000004b2e90 T _ZN11__sanitizer15CheckNoDeepBindEPKci
00000000004c1330 T _ZN11__sanitizer15ColorizeReportsEv
00000000004b41b0 T _ZN11__sanitizer15DecorateMappingEmmPKc
00000000004b9400 T _ZN11__sanitizer15GetNumberOfCPUsEv
00000000005c7604 D _ZN11__sanitizer15IOCTL_BLKFLSBUFE
00000000005c761c D _ZN11__sanitizer15IOCTL_BLKRRPARTE
00000000005c7660 D _ZN11__sanitizer15IOCTL_CDROMSEEKE
00000000005c7668 D _ZN11__sanitizer15IOCTL_CDROMSTOPE
00000000005c75b4 D _ZN11__sanitizer15IOCTL_EVIOCGABSE
00000000005c75b8 D _ZN11__sanitizer15IOCTL_EVIOCGBITE
00000000005c75c4 D _ZN11__sanitizer15IOCTL_EVIOCGKEYE
00000000005c75cc D _ZN11__sanitizer15IOCTL_EVIOCGLEDE
00000000005c75d8 D _ZN11__sanitizer15IOCTL_EVIOCGRABE
00000000005c75dc D _ZN11__sanitizer15IOCTL_EVIOCGREPE
00000000005c75e0 D _ZN11__sanitizer15IOCTL_EVIOCGSNDE
00000000005c75f0 D _ZN11__sanitizer15IOCTL_EVIOCRMFFE
00000000005c75f4 D _ZN11__sanitizer15IOCTL_EVIOCSABSE
00000000005c7600 D _ZN11__sanitizer15IOCTL_EVIOCSREPE
00000000005c76d0 D _ZN11__sanitizer15IOCTL_FDTWADDLEE
00000000005c7504 D _ZN11__sanitizer15IOCTL_FIOGETOWNE
00000000005c7510 D _ZN11__sanitizer15IOCTL_FIOSETOWNE
00000000005c7ae0 D _ZN11__sanitizer15IOCTL_KDDISABIOE
00000000005c7aec D _ZN11__sanitizer15IOCTL_KDGETMODEE
00000000005c7a14 D _ZN11__sanitizer15IOCTL_KDGKBMETAE
00000000005c7af0 D _ZN11__sanitizer15IOCTL_KDGKBMODEE
00000000005c7a18 D _ZN11__sanitizer15IOCTL_KDGKBSENTE
00000000005c7af4 D _ZN11__sanitizer15IOCTL_KDGKBTYPEE
00000000005c7a1c D _ZN11__sanitizer15IOCTL_KDMAPDISPE
00000000005c7b00 D _ZN11__sanitizer15IOCTL_KDSETMODEE
00000000005c7a34 D _ZN11__sanitizer15IOCTL_KDSKBMETAE
00000000005c7b04 D _ZN11__sanitizer15IOCTL_KDSKBMODEE
00000000005c7a38 D _ZN11__sanitizer15IOCTL_KDSKBSENTE
00000000005c7b08 D _ZN11__sanitizer15IOCTL_KIOCSOUNDE
00000000005c7a48 D _ZN11__sanitizer15IOCTL_LPCAREFULE
00000000005c7748 D _ZN11__sanitizer15IOCTL_SIOCADDRTE
00000000005c7750 D _ZN11__sanitizer15IOCTL_SIOCDELRTE
00000000005c7754 D _ZN11__sanitizer15IOCTL_SIOCDRARPE
00000000005c7540 D _ZN11__sanitizer15IOCTL_SIOCGPGRPE
00000000005c7774 D _ZN11__sanitizer15IOCTL_SIOCGRARPE
00000000005c7560 D _ZN11__sanitizer15IOCTL_SIOCSPGRPE
00000000005c7798 D _ZN11__sanitizer15IOCTL_SIOCSRARPE
00000000005c7570 D _ZN11__sanitizer15IOCTL_TIOCGPGRPE
00000000005c7818 D _ZN11__sanitizer15IOCTL_TIOCLINUXE
00000000005c7588 D _ZN11__sanitizer15IOCTL_TIOCNOTTYE
00000000005c7598 D _ZN11__sanitizer15IOCTL_TIOCSCTTYE
00000000005c75a0 D _ZN11__sanitizer15IOCTL_TIOCSPGRPE
00000000005c783c D _ZN11__sanitizer15IOCTL_VT_RESIZEE
00000000004a7c90 T _ZN11__sanitizer15InternalReallocEPvmPNS_30SizeClassAllocator32LocalCacheINS_20SizeClassAllocator32INS_4AP32EEEEE
00000000004b3d90 T _ZN11__sanitizer15IsPathSeparatorEc
00000000004ba4c0 T _ZN11__sanitizer15IsStateDetachedEi
00000000004b3940 T _ZN11__sanitizer15MapFileToMemoryEPKcPm
0000000000423a10 W _ZN11__sanitizer15QuarantineCacheIN6__asan18QuarantineCallbackEE12MergeBatchesEPS3_
0000000000425900 W _ZN11__sanitizer15QuarantineCacheIN6__asan18QuarantineCallbackEE7EnqueueES2_Pvm
00000000004b9490 T _ZN11__sanitizer15SetAbortMessageEPKc
00000000004b9b00 T _ZN11__sanitizer15SleepForSecondsEi
00000000004ba290 T _ZN11__sanitizer15StartSubprocessEPKcPKS1_S3_iii
00000000004239b0 W _ZN11__sanitizer15StaticSpinMutex8LockSlowEv
00000000004a99d0 T _ZN11__sanitizer15StripModuleNameEPKc
00000000004a9970 T _ZN11__sanitizer15StripPathPrefixEPKcS1_
00000000004be4c0 T _ZN11__sanitizer15SymbolizedStack3NewEm
00000000004be510 T _ZN11__sanitizer15SymbolizedStack8ClearAllEv
00000000004be490 T _ZN11__sanitizer15SymbolizedStackC1Ev
00000000004be490 T _ZN11__sanitizer15SymbolizedStackC2Ev
00000000004ba4d0 T _ZN11__sanitizer15ThreadSuspender13SuspendThreadEy
00000000004ba7b0 T _ZN11__sanitizer15ThreadSuspender14KillAllThreadsEv
00000000004ba6b0 T _ZN11__sanitizer15ThreadSuspender16ResumeAllThreadsEv
00000000004ba7f0 T _ZN11__sanitizer15ThreadSuspender17SuspendAllThreadsEv
00000000005c73b8 D _ZN11__sanitizer15glob_altdirfuncE
00000000004b20c0 T _ZN11__sanitizer15internal_dlinfoEPviS0_
00000000004b1a20 T _ZN11__sanitizer15internal_execveEPKcPKPcS4_
00000000004b20a0 T _ZN11__sanitizer15internal_getpidEv
00000000004af0d0 T _ZN11__sanitizer15internal_memchrEPKvim
00000000004af1a0 T _ZN11__sanitizer15internal_memcmpEPKvS1_m
00000000004af1e0 T _ZN11__sanitizer15internal_memcpyEPvPKvm
00000000004af6f0 T _ZN11__sanitizer15internal_memsetEPvim
00000000004b1840 T _ZN11__sanitizer15internal_munmapEPvm
00000000004b2060 T _ZN11__sanitizer15internal_ptraceEiiPvS0_
00000000004b19d0 T _ZN11__sanitizer15internal_renameEPKcS1_
00000000004af8b0 T _ZN11__sanitizer15internal_strchrEPKci
00000000004afb10 T _ZN11__sanitizer15internal_strcmpEPKcS1_
00000000004af8e0 T _ZN11__sanitizer15internal_strdupEPKc
00000000004afaf0 T _ZN11__sanitizer15internal_strlenEPKc
00000000004b0c10 T _ZN11__sanitizer15internal_strstrEPKcS1_
00000000004b19c0 T _ZN11__sanitizer15internal_unlinkEPKc
00000000005c73c8 D _ZN11__sanitizer15ptrace_peekdataE
00000000005c73c4 D _ZN11__sanitizer15ptrace_peektextE
00000000005c73cc D _ZN11__sanitizer15ptrace_peekuserE
00000000005c7390 D _ZN11__sanitizer15shmctl_ipc_infoE
00000000005c738c D _ZN11__sanitizer15shmctl_ipc_statE
00000000005c7394 D _ZN11__sanitizer15shmctl_shm_infoE
00000000005c7398 D _ZN11__sanitizer15shmctl_shm_statE
00000000005c7324 D _ZN11__sanitizer15struct_fstab_szE
00000000005c72d4 D _ZN11__sanitizer15struct_group_szE
00000000005c7408 D _ZN11__sanitizer15struct_ifreq_szE
00000000005c7494 D _ZN11__sanitizer15struct_mtget_szE
00000000005c746c D _ZN11__sanitizer15struct_mtpos_szE
00000000005c731c D _ZN11__sanitizer15struct_regex_szE
00000000005c7370 D _ZN11__sanitizer15struct_timex_szE
00000000005c7360 D _ZN11__sanitizer15struct_ustat_szE
00000000005c73a0 D _ZN11__sanitizer15struct_utmpx_szE
00000000004c0c80 W _ZN11__sanitizer16Addr2LineProcess18ReadFromSymbolizerEPcm
0000000000586706 R _ZN11__sanitizer16Addr2LineProcess18output_terminator_E
00000000004b8190 T _ZN11__sanitizer16BackgroundThreadEPv
00000000004ab9b0 W _ZN11__sanitizer16DeadlockDetectorINS_17TwoLevelBitVectorILm1ENS_14BasicBitVectorImEEEEE10removeNodeEm
00000000004ab220 W _ZN11__sanitizer16DeadlockDetectorINS_17TwoLevelBitVectorILm1ENS_14BasicBitVectorImEEEEE14findPathToLockEPNS_19DeadlockDetectorTLSIS4_EEmPmm
00000000004aa650 W _ZN11__sanitizer16DeadlockDetectorINS_17TwoLevelBitVectorILm1ENS_14BasicBitVectorImEEEEE7newNodeEm
00000000004aae10 W _ZN11__sanitizer16DeadlockDetectorINS_17TwoLevelBitVectorILm1ENS_14BasicBitVectorImEEEEE8addEdgesEPNS_19DeadlockDetectorTLSIS4_EEmji
00000000004ab450 W _ZN11__sanitizer16DeadlockDetectorINS_17TwoLevelBitVectorILm1ENS_14BasicBitVectorImEEEEE8findEdgeEmmPjS6_Pi
00000000004acab0 T _ZN11__sanitizer16FindPathToBinaryEPKc
00000000004b5800 T _ZN11__sanitizer16GetMemoryProfileEPFvmmbPmmES0_m
00000000005c7608 D _ZN11__sanitizer16IOCTL_BLKGETSIZEE
00000000005c7624 D _ZN11__sanitizer16IOCTL_CDROMEJECTE
00000000005c7630 D _ZN11__sanitizer16IOCTL_CDROMPAUSEE
00000000005c7658 D _ZN11__sanitizer16IOCTL_CDROMRESETE
00000000005c7664 D _ZN11__sanitizer16IOCTL_CDROMSTARTE
00000000005c75d0 D _ZN11__sanitizer16IOCTL_EVIOCGNAMEE
00000000005c75d4 D _ZN11__sanitizer16IOCTL_EVIOCGPHYSE
00000000005c79d4 D _ZN11__sanitizer16IOCTL_EVIOCGPROPE
00000000005c75e8 D _ZN11__sanitizer16IOCTL_EVIOCGUNIQE
00000000005c79f4 D _ZN11__sanitizer16IOCTL_GIO_UNIMAPE
00000000005c7a08 D _ZN11__sanitizer16IOCTL_KDGKBDIACRE
00000000005c7a28 D _ZN11__sanitizer16IOCTL_KDSKBDIACRE
00000000005c7a78 D _ZN11__sanitizer16IOCTL_PIO_UNIMAPE
00000000005c7740 D _ZN11__sanitizer16IOCTL_PPPIOCSMRUE
00000000005c7518 D _ZN11__sanitizer16IOCTL_SIOCATMARKE
00000000005c7764 D _ZN11__sanitizer16IOCTL_SIOCGIFMAPE
00000000005c7768 D _ZN11__sanitizer16IOCTL_SIOCGIFMEME
00000000005c7538 D _ZN11__sanitizer16IOCTL_SIOCGIFMTUE
00000000005c7778 D _ZN11__sanitizer16IOCTL_SIOCGSTAMPE
00000000005c778c D _ZN11__sanitizer16IOCTL_SIOCSIFMAPE
00000000005c7790 D _ZN11__sanitizer16IOCTL_SIOCSIFMEME
00000000005c7558 D _ZN11__sanitizer16IOCTL_SIOCSIFMTUE
00000000005c7574 D _ZN11__sanitizer16IOCTL_TIOCGWINSZE
00000000005c75a8 D _ZN11__sanitizer16IOCTL_TIOCSWINSZE
00000000005c79a4 D _ZN11__sanitizer16IOCTL_VT_GETMODEE
00000000005c79a8 D _ZN11__sanitizer16IOCTL_VT_OPENQRYE
00000000005c79ac D _ZN11__sanitizer16IOCTL_VT_RELDISPE
00000000005c7840 D _ZN11__sanitizer16IOCTL_VT_RESIZEXE
00000000005c7844 D _ZN11__sanitizer16IOCTL_VT_SENDSIGE
00000000005c79b0 D _ZN11__sanitizer16IOCTL_VT_SETMODEE
00000000004ba3f0 T _ZN11__sanitizer16IsProcessRunningEi
00000000004b9660 T _ZN11__sanitizer16MapDynamicShadowEmmmRm
00000000004b36e0 T _ZN11__sanitizer16MprotectNoAccessEmm
00000000004b36f0 T _ZN11__sanitizer16MprotectReadOnlyEmm
00000000004ac7a0 T _ZN11__sanitizer16ReadFileToBufferEPKcPPcPmS4_mPi
00000000004ac910 T _ZN11__sanitizer16ReadFileToVectorEPKcPNS_24InternalMmapVectorNoCtorIcEEmPi
00000000004b89b0 T _ZN11__sanitizer16SetErrnoToENOMEMEv
00000000004bc2e0 T _ZN11__sanitizer16StackDepotHandle20inc_use_count_unsafeEv
00000000004bc2c0 T _ZN11__sanitizer16StackDepotHandle2idEv
00000000004bc2d0 T _ZN11__sanitizer16StackDepotHandle9use_countEv
00000000004b8e90 T _ZN11__sanitizer16ThreadSelfOffsetEv
0000000000580f58 R _ZN11__sanitizer16errno_EOWNERDEADE
00000000004b20b0 T _ZN11__sanitizer16internal_getppidEv
00000000004b17f0 T _ZN11__sanitizer16internal_iserrorEmPi
00000000004b1860 T _ZN11__sanitizer16internal_madviseEmmi
00000000004af3a0 T _ZN11__sanitizer16internal_memmoveEPvPKvm
00000000004af100 T _ZN11__sanitizer16internal_memrchrEPKvim
00000000004af850 T _ZN11__sanitizer16internal_strcspnEPKcS1_
00000000004afc10 T _ZN11__sanitizer16internal_strlcatEPcPKcm
00000000004b03c0 T _ZN11__sanitizer16internal_strlcpyEPcPKcm
00000000004b0370 T _ZN11__sanitizer16internal_strncatEPcPKcm
00000000004afb50 T _ZN11__sanitizer16internal_strncmpEPKcS1_m
00000000004b0ae0 T _ZN11__sanitizer16internal_strncpyEPcPKcm
00000000004b0340 T _ZN11__sanitizer16internal_strnlenEPKcm
00000000004afbe0 T _ZN11__sanitizer16internal_strrchrEPKci
00000000004b2080 T _ZN11__sanitizer16internal_waitpidEiPii
00000000005c73d8 D _ZN11__sanitizer16ptrace_getfpregsE
00000000005c73fc D _ZN11__sanitizer16ptrace_getregsetE
00000000005c73dc D _ZN11__sanitizer16ptrace_setfpregsE
00000000005c7400 D _ZN11__sanitizer16ptrace_setregsetE
00000000005c7414 D _ZN11__sanitizer16struct_arpreq_szE
00000000005c72d0 D _ZN11__sanitizer16struct_passwd_szE
00000000005c7350 D _ZN11__sanitizer16struct_rlimit_szE
00000000005c72c8 D _ZN11__sanitizer16struct_rusage_szE
00000000005c72c4 D _ZN11__sanitizer16struct_stat64_szE
00000000005c7328 D _ZN11__sanitizer16struct_statfs_szE
00000000005c7474 D _ZN11__sanitizer16struct_termio_szE
00000000004a93a0 W _ZN11__sanitizer17CombinedAllocatorINS_20SizeClassAllocator32INS_4AP32EEENS_32LargeMmapAllocatorPtrArrayStaticEE10ReallocateEPNS_30SizeClassAllocator32LocalCacheIS3_EEPvmm
00000000004a9570 W _ZN11__sanitizer17CombinedAllocatorINS_20SizeClassAllocator32INS_4AP32EEENS_32LargeMmapAllocatorPtrArrayStaticEE24GetActuallyAllocatedSizeEPv
00000000004a8150 W _ZN11__sanitizer17CombinedAllocatorINS_20SizeClassAllocator32INS_4AP32EEENS_32LargeMmapAllocatorPtrArrayStaticEE8AllocateEPNS_30SizeClassAllocator32LocalCacheIS3_EEmm
0000000000425a00 W _ZN11__sanitizer17CombinedAllocatorINS_20SizeClassAllocator64IN6__asan4AP64INS_21LocalAddressSpaceViewEEEEENS_33LargeMmapAllocatorPtrArrayDynamicEE8AllocateEPNS_30SizeClassAllocator64LocalCacheIS6_EEmm
00000000004b6e40 T _ZN11__sanitizer17DTLSInDestructionEPNS_4DTLSE
00000000004a9ec0 T _ZN11__sanitizer17DecreaseTotalMmapEm
00000000004b4030 T _ZN11__sanitizer17GetNamedMappingFdEPKcmPi
00000000004bc0d0 W _ZN11__sanitizer17GetPageSizeCachedEv
00000000005c765c D _ZN11__sanitizer17IOCTL_CDROMRESUMEE
00000000005c79bc D _ZN11__sanitizer17IOCTL_EQL_ENSLAVEE
00000000005c7694 D _ZN11__sanitizer17IOCTL_FDGETDRVPRME
00000000005c769c D _ZN11__sanitizer17IOCTL_FDGETDRVTYPE
00000000005c76c0 D _ZN11__sanitizer17IOCTL_FDSETDRVPRME
00000000005c76d4 D _ZN11__sanitizer17IOCTL_FDWERRORCLRE
00000000005c76d8 D _ZN11__sanitizer17IOCTL_FDWERRORGETE
00000000005c7adc D _ZN11__sanitizer17IOCTL_GIO_SCRNMAPE
00000000005c76e0 D _ZN11__sanitizer17IOCTL_HDIO_GETGEOE
00000000005c7a24 D _ZN11__sanitizer17IOCTL_KDSIGACCEPTE
00000000005c7a3c D _ZN11__sanitizer17IOCTL_KDUNMAPDISPE
00000000005c7a44 D _ZN11__sanitizer17IOCTL_LPABORTOPENE
00000000005c7a54 D _ZN11__sanitizer17IOCTL_LPGETSTATUSE
0000000000583c08 R _ZN11__sanitizer17IOCTL_NOT_PRESENTE
00000000005c7b0c D _ZN11__sanitizer17IOCTL_PIO_SCRNMAPE
00000000005c7728 D _ZN11__sanitizer17IOCTL_PPPIOCGUNITE
00000000005c7ab4 D _ZN11__sanitizer17IOCTL_SIOCDEVPLIPE
00000000005c7520 D _ZN11__sanitizer17IOCTL_SIOCGIFADDRE
00000000005c7528 D _ZN11__sanitizer17IOCTL_SIOCGIFCONFE
00000000005c776c D _ZN11__sanitizer17IOCTL_SIOCGIFNAMEE
00000000005c7ac4 D _ZN11__sanitizer17IOCTL_SIOCNRRTCTLE
00000000005c7544 D _ZN11__sanitizer17IOCTL_SIOCSIFADDRE
00000000005c7788 D _ZN11__sanitizer17IOCTL_SIOCSIFLINKE
00000000005c7acc D _ZN11__sanitizer17IOCTL_TIOCGSERIALE
00000000005c7ad8 D _ZN11__sanitizer17IOCTL_TIOCSSERIALE
00000000005c79a0 D _ZN11__sanitizer17IOCTL_VT_ACTIVATEE
00000000005c7838 D _ZN11__sanitizer17IOCTL_VT_GETSTATEE
00000000004a9e70 T _ZN11__sanitizer17IncreaseTotalMmapEm
00000000004a7fb0 T _ZN11__sanitizer17LowLevelAllocator8AllocateEm
00000000004ba0d0 T _ZN11__sanitizer17MmapFixedNoAccessEmmPKc
00000000004b94c0 T _ZN11__sanitizer17MonotonicNanoTimeEv
00000000004b7f20 T _ZN11__sanitizer17RemoveDieCallbackEPFvvE
00000000004bc230 T _ZN11__sanitizer17ReportOutOfMemoryEmPKNS_10StackTraceE
00000000005c5298 D _ZN11__sanitizer17SanitizerToolNameE
00000000004bc8c0 T _ZN11__sanitizer17StackDepotLockAllEv
00000000004bfcd0 T _ZN11__sanitizer17SymbolizerProcess11SendCommandEPKc
00000000004bfec0 T _ZN11__sanitizer17SymbolizerProcess15SendCommandImplEPKc
00000000004bff90 T _ZN11__sanitizer17SymbolizerProcess17WriteToSymbolizerEPKcm
00000000004bffe0 T _ZN11__sanitizer17SymbolizerProcess18ReadFromSymbolizerEPcm
00000000004c0440 T _ZN11__sanitizer17SymbolizerProcess25StartSymbolizerSubprocessEv
00000000004c00e0 W _ZN11__sanitizer17SymbolizerProcess7GetEnvPEv
00000000004bff60 T _ZN11__sanitizer17SymbolizerProcess7RestartEv
00000000004bfe40 T _ZN11__sanitizer17SymbolizerProcessC1EPKcb
00000000004bfe40 T _ZN11__sanitizer17SymbolizerProcessC2EPKcb
00000000004a79f0 W _ZN11__sanitizer17ThreadContextBase10OnDetachedEPv
00000000004b7e80 W _ZN11__sanitizer17ThreadContextBase10OnFinishedEv
00000000004b7010 T _ZN11__sanitizer17ThreadContextBase10SetCreatedEmybjPv
00000000004b6ff0 T _ZN11__sanitizer17ThreadContextBase10SetStartedEyNS_10ThreadTypeEPv
00000000004b6fd0 T _ZN11__sanitizer17ThreadContextBase11SetFinishedEv
00000000004b6f50 T _ZN11__sanitizer17ThreadContextBase12GetDestroyedEv
00000000004b6f40 T _ZN11__sanitizer17ThreadContextBase12SetDestroyedEv
00000000004b7040 T _ZN11__sanitizer17ThreadContextBase5ResetEv
00000000004a79b0 W _ZN11__sanitizer17ThreadContextBase6OnDeadEv
00000000004a79e0 W _ZN11__sanitizer17ThreadContextBase7OnResetEv
00000000004b6f00 T _ZN11__sanitizer17ThreadContextBase7SetDeadEv
00000000004b6ed0 T _ZN11__sanitizer17ThreadContextBase7SetNameEPKc
00000000004a79c0 W _ZN11__sanitizer17ThreadContextBase8OnJoinedEPv
00000000004b7e90 W _ZN11__sanitizer17ThreadContextBase9OnCreatedEPv
00000000004a79d0 W _ZN11__sanitizer17ThreadContextBase9OnStartedEPv
00000000004b6f60 T _ZN11__sanitizer17ThreadContextBase9SetJoinedEPv
00000000004b6e50 T _ZN11__sanitizer17ThreadContextBaseC1Ej
00000000004b6e50 T _ZN11__sanitizer17ThreadContextBaseC2Ej
00000000004b6ea0 T _ZN11__sanitizer17ThreadContextBaseD1Ev
00000000004b6ea0 T _ZN11__sanitizer17ThreadContextBaseD2Ev
00000000004aa060 T _ZN11__sanitizer17UpdateProcessNameEv
000000000066d0b8 B _ZN11__sanitizer17current_verbosityE
00000000004b1960 T _ZN11__sanitizer17internal_filesizeEi
00000000004b20e0 T _ZN11__sanitizer17internal_getdentsEiPNS_12linux_direntEj
00000000004b1850 T _ZN11__sanitizer17internal_mprotectEPvmi
00000000004b19b0 T _ZN11__sanitizer17internal_readlinkEPKcPcm
00000000004b49a0 T _ZN11__sanitizer17internal_snprintfEPcmPKcz
00000000005c72f0 D _ZN11__sanitizer17pthread_cond_t_szE
00000000005c73e0 D _ZN11__sanitizer17ptrace_getfpxregsE
00000000005c73f4 D _ZN11__sanitizer17ptrace_getsiginfoE
00000000005c73e8 D _ZN11__sanitizer17ptrace_getvfpregsE
00000000005c73e4 D _ZN11__sanitizer17ptrace_setfpxregsE
00000000005c73f8 D _ZN11__sanitizer17ptrace_setsiginfoE
00000000005c73ec D _ZN11__sanitizer17ptrace_setvfpregsE
0000000000485ed0 W _ZN11__sanitizer17real_pthread_joinEPvPS0_
00000000005c74bc D _ZN11__sanitizer17struct_kbentry_szE
00000000005c7378 D _ZN11__sanitizer17struct_mq_attr_szE
00000000005c7470 D _ZN11__sanitizer17struct_rtentry_szE
00000000005c7384 D _ZN11__sanitizer17struct_shminfo_szE
00000000005c72e0 D _ZN11__sanitizer17struct_stack_t_szE
00000000005c737c D _ZN11__sanitizer17struct_statvfs_szE
00000000005c7338 D _ZN11__sanitizer17struct_sysinfo_szE
00000000005c740c D _ZN11__sanitizer17struct_termios_szE
00000000005c7358 D _ZN11__sanitizer17struct_utimbuf_szE
00000000005c72bc D _ZN11__sanitizer17struct_utsname_szE
00000000005c74a8 D _ZN11__sanitizer17struct_vt_mode_szE
00000000005c7480 D _ZN11__sanitizer17struct_vt_stat_szE
00000000005c7410 D _ZN11__sanitizer17struct_winsize_szE
00000000004bd010 T _ZN11__sanitizer18BufferedStackTrace10UnwindFastEmmmmj
00000000004a4030 T _ZN11__sanitizer18BufferedStackTrace10UnwindImplEmmPvbj
00000000004c2250 T _ZN11__sanitizer18BufferedStackTrace10UnwindSlowEmPvj
00000000004c2120 T _ZN11__sanitizer18BufferedStackTrace10UnwindSlowEmj
00000000004bd160 T _ZN11__sanitizer18BufferedStackTrace14PopStackFramesEm
00000000004bd350 T _ZN11__sanitizer18BufferedStackTrace15LocatePcInTraceEm
00000000004bcf90 T _ZN11__sanitizer18BufferedStackTrace4InitEPKmmm
00000000004bd890 T _ZN11__sanitizer18BufferedStackTrace6UnwindEjmmPvmmb
00000000004ae2e0 W _ZN11__sanitizer18FlagHandlerInclude5ParseEPKc
00000000004ae370 W _ZN11__sanitizer18FlagHandlerInclude6FormatEPcm
00000000004b30a0 T _ZN11__sanitizer18GetMmapGranularityEv
00000000004c1ea0 T _ZN11__sanitizer18HandleDeadlySignalEPvS0_jPFvRKNS_13SignalContextEPKvPNS_18BufferedStackTraceEES5_
00000000005c7634 D _ZN11__sanitizer18IOCTL_CDROMPLAYMSFE
00000000005c764c D _ZN11__sanitizer18IOCTL_CDROMREADRAWE
00000000005c766c D _ZN11__sanitizer18IOCTL_CDROMSUBCHNLE
00000000005c7670 D _ZN11__sanitizer18IOCTL_CDROMVOLCTRLE
00000000005c7674 D _ZN11__sanitizer18IOCTL_CDROMVOLREADE
00000000005c7698 D _ZN11__sanitizer18IOCTL_FDGETDRVSTATE
00000000005c76a0 D _ZN11__sanitizer18IOCTL_FDGETFDCSTATE
00000000005c76a4 D _ZN11__sanitizer18IOCTL_FDGETMAXERRSE
00000000005c76c8 D _ZN11__sanitizer18IOCTL_FDSETMAXERRSE
00000000005c76e8 D _ZN11__sanitizer18IOCTL_HDIO_GET_DMAE
00000000005c7704 D _ZN11__sanitizer18IOCTL_HDIO_SET_DMAE
00000000005c7a04 D _ZN11__sanitizer18IOCTL_KDGETKEYCODEE
00000000005c7a20 D _ZN11__sanitizer18IOCTL_KDSETKEYCODEE
00000000005c7720 D _ZN11__sanitizer18IOCTL_PPPIOCGDEBUGE
00000000005c7724 D _ZN11__sanitizer18IOCTL_PPPIOCGFLAGSE
00000000005c7734 D _ZN11__sanitizer18IOCTL_PPPIOCSDEBUGE
00000000005c7738 D _ZN11__sanitizer18IOCTL_PPPIOCSFLAGSE
00000000005c7514 D _ZN11__sanitizer18IOCTL_SIOCADDMULTIE
00000000005c751c D _ZN11__sanitizer18IOCTL_SIOCDELMULTIE
00000000005c75ac D _ZN11__sanitizer18IOCTL_SIOCGETSGCNTE
00000000005c775c D _ZN11__sanitizer18IOCTL_SIOCGIFENCAPE
00000000005c7530 D _ZN11__sanitizer18IOCTL_SIOCGIFFLAGSE
00000000005c7770 D _ZN11__sanitizer18IOCTL_SIOCGIFSLAVEE
00000000005c7abc D _ZN11__sanitizer18IOCTL_SIOCNRDECOBSE
00000000005c7780 D _ZN11__sanitizer18IOCTL_SIOCSIFENCAPE
00000000005c7550 D _ZN11__sanitizer18IOCTL_SIOCSIFFLAGSE
00000000005c7794 D _ZN11__sanitizer18IOCTL_SIOCSIFSLAVEE
00000000005c7810 D _ZN11__sanitizer18IOCTL_TIOCGSOFTCARE
00000000005c7824 D _ZN11__sanitizer18IOCTL_TIOCSERGWILDE
00000000005c7828 D _ZN11__sanitizer18IOCTL_TIOCSERSWILDE
00000000005c7830 D _ZN11__sanitizer18IOCTL_TIOCSSOFTCARE
00000000004bb690 T _ZN11__sanitizer18InitializeCoverageEbPKc
00000000004c0d10 W _ZN11__sanitizer18InternalSymbolizer11SymbolizePCEmPNS_15SymbolizedStackE
00000000004c0d60 W _ZN11__sanitizer18InternalSymbolizer13SymbolizeDataEmPNS_8DataInfoE
00000000004c0db0 W _ZN11__sanitizer18InternalSymbolizer5FlushEv
00000000004c0dc0 W _ZN11__sanitizer18InternalSymbolizer8DemangleEPKc
0000000000424400 W _ZN11__sanitizer18LargeMmapAllocatorIN6__asan20AsanMapUnmapCallbackENS_33LargeMmapAllocatorPtrArrayDynamicENS_21LocalAddressSpaceViewEE10DeallocateEPNS_14AllocatorStatsEPv
0000000000426f00 W _ZN11__sanitizer18LargeMmapAllocatorIN6__asan20AsanMapUnmapCallbackENS_33LargeMmapAllocatorPtrArrayDynamicENS_21LocalAddressSpaceViewEE12ForEachChunkEPFvmPvES6_
0000000000424100 W _ZN11__sanitizer18LargeMmapAllocatorIN6__asan20AsanMapUnmapCallbackENS_33LargeMmapAllocatorPtrArrayDynamicENS_21LocalAddressSpaceViewEE13GetBlockBeginEPKv
00000000004268e0 W _ZN11__sanitizer18LargeMmapAllocatorIN6__asan20AsanMapUnmapCallbackENS_33LargeMmapAllocatorPtrArrayDynamicENS_21LocalAddressSpaceViewEE18EnsureSortedChunksEv
00000000004267b0 W _ZN11__sanitizer18LargeMmapAllocatorIN6__asan20AsanMapUnmapCallbackENS_33LargeMmapAllocatorPtrArrayDynamicENS_21LocalAddressSpaceViewEE23GetBlockBeginFastLockedEPv
0000000000425c10 W _ZN11__sanitizer18LargeMmapAllocatorIN6__asan20AsanMapUnmapCallbackENS_33LargeMmapAllocatorPtrArrayDynamicENS_21LocalAddressSpaceViewEE8AllocateEPNS_14AllocatorStatsEmm
00000000004a9660 W _ZN11__sanitizer18LargeMmapAllocatorINS_20NoOpMapUnmapCallbackENS_32LargeMmapAllocatorPtrArrayStaticENS_21LocalAddressSpaceViewEE10DeallocateEPNS_14AllocatorStatsEPv
00000000004a9770 W _ZN11__sanitizer18LargeMmapAllocatorINS_20NoOpMapUnmapCallbackENS_32LargeMmapAllocatorPtrArrayStaticENS_21LocalAddressSpaceViewEE13GetBlockBeginEPKv
00000000004a8350 W _ZN11__sanitizer18LargeMmapAllocatorINS_20NoOpMapUnmapCallbackENS_32LargeMmapAllocatorPtrArrayStaticENS_21LocalAddressSpaceViewEE8AllocateEPNS_14AllocatorStatsEmm
00000000004b94a0 T _ZN11__sanitizer18LogMessageOnPrintfEPKc
00000000004b9f40 T _ZN11__sanitizer18MmapFixedNoReserveEmmPKc
00000000004b34c0 T _ZN11__sanitizer18MmapNoReserveOrDieEmPKc
000000000066d0c8 B _ZN11__sanitizer18NumberOfCPUsCachedE
00000000004c16c0 T _ZN11__sanitizer18ReportDeadlySignalERKNS_13SignalContextEjPFvS2_PKvPNS_18BufferedStackTraceEES4_
00000000004c13b0 T _ZN11__sanitizer18ReportErrorSummaryEPKcPKNS_10StackTraceES1_
00000000004c11e0 T _ZN11__sanitizer18ReportErrorSummaryEPKcRKNS_11AddressInfoES1_
00000000004a9a00 T _ZN11__sanitizer18ReportErrorSummaryEPKcS1_
00000000004b3840 T _ZN11__sanitizer18ReserveStandardFdsEi
00000000004b7fc0 T _ZN11__sanitizer18SetUserDieCallbackEPFvvE
00000000004bc330 T _ZN11__sanitizer18StackDepotGetStatsEv
00000000004bc970 T _ZN11__sanitizer18StackDepotPrintAllEv
00000000004b6690 T _ZN11__sanitizer18SuppressionContext10GetMatchedEPNS_18InternalMmapVectorIPNS_11SuppressionEEE
00000000004b5fa0 T _ZN11__sanitizer18SuppressionContext13ParseFromFileEPKc
00000000004b6400 T _ZN11__sanitizer18SuppressionContext5MatchEPKcS2_PPNS_11SuppressionE
00000000004b61f0 T _ZN11__sanitizer18SuppressionContext5ParseEPKc
00000000004b5f50 T _ZN11__sanitizer18SuppressionContextC1EPPKci
00000000004b5f50 T _ZN11__sanitizer18SuppressionContextC2EPPKci
0000000000583c00 R _ZN11__sanitizer18__sanitizer_bufsizE
00000000004a7ad0 T _ZN11__sanitizer18internal_allocatorEv
00000000004b1900 T _ZN11__sanitizer18internal_ftruncateEim
00000000004b89c0 T _ZN11__sanitizer18internal_sigactionEiPKvPv
00000000004b2270 T _ZN11__sanitizer18internal_sigdelsetEPNS_20__sanitizer_sigset_tEi
00000000004afb90 T _ZN11__sanitizer18internal_strchrnulEPKci
00000000005c72ec D _ZN11__sanitizer18pthread_mutex_t_szE
00000000005c73f0 D _ZN11__sanitizer18ptrace_geteventmsgE
00000000005c7428 D _ZN11__sanitizer18struct_cdrom_ti_szE
00000000005c748c D _ZN11__sanitizer18struct_copr_msg_szE
00000000005c7468 D _ZN11__sanitizer18struct_input_id_szE
00000000005c74b8 D _ZN11__sanitizer18struct_kbdiacrs_szE
00000000005c74c4 D _ZN11__sanitizer18struct_kbsentry_szE
00000000005c7374 D _ZN11__sanitizer18struct_msqid_ds_szE
00000000005c7320 D _ZN11__sanitizer18struct_regmatch_szE
00000000005c7364 D _ZN11__sanitizer18struct_rlimit64_szE
00000000005c74d4 D _ZN11__sanitizer18struct_scc_stat_szE
00000000005c7388 D _ZN11__sanitizer18struct_shm_info_szE
00000000005c7314 D _ZN11__sanitizer18struct_sigevent_szE
00000000005c732c D _ZN11__sanitizer18struct_sockaddr_szE
00000000005c72b8 D _ZN11__sanitizer18struct_statfs64_szE
00000000005c7354 D _ZN11__sanitizer18struct_timespec_szE
00000000005c730c D _ZN11__sanitizer18struct_timezone_szE
00000000005c747c D _ZN11__sanitizer18struct_vt_sizes_szE
00000000004ac340 W _ZN11__sanitizer19DeadlockDetectorTLSINS_17TwoLevelBitVectorILm1ENS_14BasicBitVectorImEEEEE10removeLockEm
00000000004ac1e0 W _ZN11__sanitizer19DeadlockDetectorTLSINS_17TwoLevelBitVectorILm1ENS_14BasicBitVectorImEEEEE7addLockEmmj
00000000004c03d0 T _ZN11__sanitizer19DemangleSwiftAndCXXEPKc
00000000004b2b20 T _ZN11__sanitizer19ForEachMappedRegionEP8link_mapPFvPKvmE
00000000004b3e00 T _ZN11__sanitizer19GetCodeRangeForFileEPKcPmS2_
00000000004b2ce0 T _ZN11__sanitizer19GetHandleSignalModeEi
00000000005c7628 D _ZN11__sanitizer19IOCTL_CDROMEJECT_SWE
00000000005c7678 D _ZN11__sanitizer19IOCTL_CDROM_GET_UPCE
00000000005c75bc D _ZN11__sanitizer19IOCTL_EVIOCGEFFECTSE
00000000005c75c8 D _ZN11__sanitizer19IOCTL_EVIOCGKEYCODEE
00000000005c75ec D _ZN11__sanitizer19IOCTL_EVIOCGVERSIONE
00000000005c75fc D _ZN11__sanitizer19IOCTL_EVIOCSKEYCODEE
00000000005c76b4 D _ZN11__sanitizer19IOCTL_FDPOLLDRVSTATE
00000000005c7a7c D _ZN11__sanitizer19IOCTL_PIO_UNIMAPCLRE
00000000005c773c D _ZN11__sanitizer19IOCTL_PPPIOCSMAXCIDE
00000000005c7aac D _ZN11__sanitizer19IOCTL_SIOCAX25NOUIDE
00000000005c75b0 D _ZN11__sanitizer19IOCTL_SIOCGETVIFCNTE
00000000005c7760 D _ZN11__sanitizer19IOCTL_SIOCGIFHWADDRE
00000000005c7534 D _ZN11__sanitizer19IOCTL_SIOCGIFMETRICE
00000000005c7784 D _ZN11__sanitizer19IOCTL_SIOCSIFHWADDRE
00000000005c7554 D _ZN11__sanitizer19IOCTL_SIOCSIFMETRICE
00000000005c781c D _ZN11__sanitizer19IOCTL_TIOCSERCONFIGE
00000000005c7820 D _ZN11__sanitizer19IOCTL_TIOCSERGETLSRE
00000000005c79b4 D _ZN11__sanitizer19IOCTL_VT_WAITACTIVEE
00000000004b52b0 T _ZN11__sanitizer19MemoryMappedSegment16AddAddressRangesEPNS_12LoadedModuleE
00000000004b5450 T _ZN11__sanitizer19MemoryMappingLayout13LoadFromCacheEv
00000000004b54e0 T _ZN11__sanitizer19MemoryMappingLayout17DumpListOfModulesEPNS_24InternalMmapVectorNoCtorINS_12LoadedModuleEEE
00000000004b53e0 T _ZN11__sanitizer19MemoryMappingLayout19CacheMemoryMappingsEv
00000000004b5be0 T _ZN11__sanitizer19MemoryMappingLayout4NextEPNS_19MemoryMappedSegmentE
00000000004b54a0 T _ZN11__sanitizer19MemoryMappingLayout5ResetEv
00000000004b5300 T _ZN11__sanitizer19MemoryMappingLayoutC1Eb
00000000004b5300 T _ZN11__sanitizer19MemoryMappingLayoutC2Eb
00000000004b54c0 T _ZN11__sanitizer19MemoryMappingLayoutD1Ev
00000000004b54c0 T _ZN11__sanitizer19MemoryMappingLayoutD2Ev
00000000004b3710 T _ZN11__sanitizer19MprotectMallocZonesEPvi
00000000004b29c0 T _ZN11__sanitizer19ReadLongProcessNameEPcm
00000000004ad260 T _ZN11__sanitizer19RegisterCommonFlagsEPNS_10FlagParserEPNS_11CommonFlagsE
00000000004c1420 T _ZN11__sanitizer19ReportMmapWriteExecEi
00000000004bc940 T _ZN11__sanitizer19StackDepotUnlockAllEv
00000000004b2250 T _ZN11__sanitizer19internal_sigfillsetEPNS_20__sanitizer_sigset_tE
0000000000485ee0 W _ZN11__sanitizer19real_pthread_createEPvS0_PFS0_S0_ES0_
00000000005c73b0 D _ZN11__sanitizer19struct_ElfW_Phdr_szE
00000000005c7418 D _ZN11__sanitizer19struct_cdrom_msf_szE
00000000005c7438 D _ZN11__sanitizer19struct_ff_effect_szE
00000000005c72e4 D _ZN11__sanitizer19struct_itimerval_szE
00000000005c74c0 D _ZN11__sanitizer19struct_kbkeycode_szE
00000000005c7490 D _ZN11__sanitizer19struct_midi_info_szE
00000000005c74f0 D _ZN11__sanitizer19struct_ppp_stats_szE
00000000005c74d0 D _ZN11__sanitizer19struct_scc_modem_szE
00000000005c72dc D _ZN11__sanitizer19struct_sigaction_szE
00000000005c7368 D _ZN11__sanitizer19struct_statvfs64_szE
00000000004b6ac0 T _ZN11__sanitizer20DTLS_on_tls_get_addrEPvS0_mm
00000000004b98c0 T _ZN11__sanitizer20DontDumpShadowMemoryEmm
00000000004b2910 T _ZN11__sanitizer20GetMaxVirtualAddressEv
00000000004b8ec0 T _ZN11__sanitizer20GetThreadStackAndTlsEbPmS0_S0_S0_
00000000005c763c D _ZN11__sanitizer20IOCTL_CDROMREADAUDIOE
00000000005c7644 D _ZN11__sanitizer20IOCTL_CDROMREADMODE1E
00000000005c7648 D _ZN11__sanitizer20IOCTL_CDROMREADMODE2E
00000000005c79b8 D _ZN11__sanitizer20IOCTL_EQL_EMANCIPATEE
00000000005c76c4 D _ZN11__sanitizer20IOCTL_FDSETEMSGTRESHE
00000000005c79f8 D _ZN11__sanitizer20IOCTL_GIO_UNISCRNMAPE
00000000005c76dc D _ZN11__sanitizer20IOCTL_HDIO_DRIVE_CMDE
00000000005c76e4 D _ZN11__sanitizer20IOCTL_HDIO_GET_32BITE
00000000005c7700 D _ZN11__sanitizer20IOCTL_HDIO_SET_32BITE
00000000005c7a68 D _ZN11__sanitizer20IOCTL_MTIOCGETCONFIGE
00000000005c7a6c D _ZN11__sanitizer20IOCTL_MTIOCSETCONFIGE
00000000005c7a80 D _ZN11__sanitizer20IOCTL_PIO_UNISCRNMAPE
00000000005c7a94 D _ZN11__sanitizer20IOCTL_SIOCAIPXITFCRTE
00000000005c7a98 D _ZN11__sanitizer20IOCTL_SIOCAIPXPRISLTE
00000000005c7a9c D _ZN11__sanitizer20IOCTL_SIOCAX25ADDUIDE
00000000005c7aa0 D _ZN11__sanitizer20IOCTL_SIOCAX25DELUIDE
00000000005c7aa8 D _ZN11__sanitizer20IOCTL_SIOCAX25GETUIDE
00000000005c7524 D _ZN11__sanitizer20IOCTL_SIOCGIFBRDADDRE
00000000005c752c D _ZN11__sanitizer20IOCTL_SIOCGIFDSTADDRE
00000000005c753c D _ZN11__sanitizer20IOCTL_SIOCGIFNETMASKE
00000000005c7ab8 D _ZN11__sanitizer20IOCTL_SIOCIPXCFGDATAE
00000000005c7ac0 D _ZN11__sanitizer20IOCTL_SIOCNRGETPARMSE
00000000005c7ac8 D _ZN11__sanitizer20IOCTL_SIOCNRSETPARMSE
00000000005c7548 D _ZN11__sanitizer20IOCTL_SIOCSIFBRDADDRE
00000000005c754c D _ZN11__sanitizer20IOCTL_SIOCSIFDSTADDRE
00000000005c755c D _ZN11__sanitizer20IOCTL_SIOCSIFNETMASKE
00000000005c780c D _ZN11__sanitizer20IOCTL_TIOCGLCKTRMIOSE
00000000005c782c D _ZN11__sanitizer20IOCTL_TIOCSLCKTRMIOSE
00000000005c7834 D _ZN11__sanitizer20IOCTL_VT_DISALLOCATEE
00000000004a7d80 T _ZN11__sanitizer20InternalReallocArrayEPvmmPNS_30SizeClassAllocator32LocalCacheINS_20SizeClassAllocator32INS_4AP32EEEEE
00000000004b4a30 T _ZN11__sanitizer20InternalScopedString6appendEPKcz
00000000005c5280 D _ZN11__sanitizer20PrimaryAllocatorNameE
00000000004aa140 T _ZN11__sanitizer20ReadBinaryNameCachedEPcm
00000000004ad1c0 T _ZN11__sanitizer20RegisterIncludeFlagsEPNS_10FlagParserEPNS_11CommonFlagsE
00000000004be1d0 T _ZN11__sanitizer20RenderModuleLocationEPNS_20InternalScopedStringEPKcmNS_10ModuleArchES3_
00000000004be100 T _ZN11__sanitizer20RenderSourceLocationEPNS_20InternalScopedStringEPKciibS3_
00000000004bbf30 T _ZN11__sanitizer20ReportCallocOverflowEmmPKNS_10StackTraceE
00000000004b86e0 T _ZN11__sanitizer20ReservedAddressRange11InitAlignedEmmPKc
00000000004ba100 T _ZN11__sanitizer20ReservedAddressRange3MapEmmPKc
00000000004ba070 T _ZN11__sanitizer20ReservedAddressRange4InitEmPKcm
00000000004ba120 T _ZN11__sanitizer20ReservedAddressRange5UnmapEmm
00000000004ba110 T _ZN11__sanitizer20ReservedAddressRange8MapOrDieEmmPKc
00000000004a88f0 W _ZN11__sanitizer20SizeClassAllocator32INS_4AP32EE13AllocateBatchEPNS_14AllocatorStatsEPNS_30SizeClassAllocator32LocalCacheIS2_EEm
00000000004a8cb0 W _ZN11__sanitizer20SizeClassAllocator32INS_4AP32EE14AllocateRegionEPNS_14AllocatorStatsEm
00000000004a92e0 W _ZN11__sanitizer20SizeClassAllocator32INS_4AP32EE15DeallocateBatchEPNS_14AllocatorStatsEmPNS2_13TransferBatchE
00000000004a89d0 W _ZN11__sanitizer20SizeClassAllocator32INS_4AP32EE16PopulateFreeListEPNS_14AllocatorStatsEPNS_30SizeClassAllocator32LocalCacheIS2_EEPNS2_13SizeClassInfoEm
0000000000425580 W _ZN11__sanitizer20SizeClassAllocator64IN6__asan4AP64INS_21LocalAddressSpaceViewEEEE10PrintStatsEmm
00000000004252d0 W _ZN11__sanitizer20SizeClassAllocator64IN6__asan4AP64INS_21LocalAddressSpaceViewEEEE10PrintStatsEv
0000000000426fd0 W _ZN11__sanitizer20SizeClassAllocator64IN6__asan4AP64INS_21LocalAddressSpaceViewEEEE11ForceUnlockEv
00000000004236a0 W _ZN11__sanitizer20SizeClassAllocator64IN6__asan4AP64INS_21LocalAddressSpaceViewEEEE13ClassIdToSizeEm
0000000000425fd0 W _ZN11__sanitizer20SizeClassAllocator64IN6__asan4AP64INS_21LocalAddressSpaceViewEEEE16GetFromAllocatorEPNS_14AllocatorStatsEmPjm
0000000000424900 W _ZN11__sanitizer20SizeClassAllocator64IN6__asan4AP64INS_21LocalAddressSpaceViewEEEE16MaybeReleaseToOSEmb
0000000000425510 W _ZN11__sanitizer20SizeClassAllocator64IN6__asan4AP64INS_21LocalAddressSpaceViewEEEE17FillMemoryProfileEmmbPmm
0000000000426260 W _ZN11__sanitizer20SizeClassAllocator64IN6__asan4AP64INS_21LocalAddressSpaceViewEEEE17PopulateFreeArrayEPNS_14AllocatorStatsEmPNS5_10RegionInfoEm
0000000000424580 W _ZN11__sanitizer20SizeClassAllocator64IN6__asan4AP64INS_21LocalAddressSpaceViewEEEE17ReturnToAllocatorEPNS_14AllocatorStatsEmPKjm
00000000004250f0 W _ZN11__sanitizer20SizeClassAllocator64IN6__asan4AP64INS_21LocalAddressSpaceViewEEEE18PackedCounterArrayINS5_12MemoryMapperEEC2EyyPS7_
0000000000424820 W _ZN11__sanitizer20SizeClassAllocator64IN6__asan4AP64INS_21LocalAddressSpaceViewEEEE20EnsureFreeArraySpaceEPNS5_10RegionInfoEmm
0000000000424b10 W _ZN11__sanitizer20SizeClassAllocator64IN6__asan4AP64INS_21LocalAddressSpaceViewEEEE21ReleaseFreeMemoryToOSINS5_12MemoryMapperEEEvPjmmmPT_
0000000000423270 W _ZN11__sanitizer20SizeClassAllocator64IN6__asan4AP64INS_21LocalAddressSpaceViewEEEE4InitEi
0000000000426c60 W _ZN11__sanitizer20SizeClassAllocator64IN6__asan4AP64INS_21LocalAddressSpaceViewEEEE9ForceLockEv
00000000004bca80 T _ZN11__sanitizer20StackDepotReverseMap10IdDescPair12IdComparatorERKS1_S3_
00000000004bcda0 T _ZN11__sanitizer20StackDepotReverseMap3GetEj
00000000004bca90 T _ZN11__sanitizer20StackDepotReverseMapC1Ev
00000000004bca90 T _ZN11__sanitizer20StackDepotReverseMapC2Ev
00000000004b9980 T _ZN11__sanitizer20StackSizeIsUnlimitedEv
00000000004b8d50 T _ZN11__sanitizer20ThreadDescriptorSizeEv
00000000004b9470 T _ZN11__sanitizer20WriteOneLineToSyslogEPKc
00000000004b2dd0 T _ZN11__sanitizer20internal_join_threadEPv
00000000004b19e0 T _ZN11__sanitizer20internal_sched_yieldEv
00000000004b2120 T _ZN11__sanitizer20internal_sigaltstackEPKvPv
00000000004b2260 T _ZN11__sanitizer20internal_sigemptysetEPNS_20__sanitizer_sigset_tE
00000000004b22c0 T _ZN11__sanitizer20internal_sigismemberEPNS_20__sanitizer_sigset_tEi
00000000004b2230 T _ZN11__sanitizer20internal_sigprocmaskEiPNS_20__sanitizer_sigset_tES1_
00000000005c736c D _ZN11__sanitizer20struct_crypt_data_szE
00000000005c745c D _ZN11__sanitizer20struct_hd_driveid_szE
00000000005c735c D _ZN11__sanitizer20struct_itimerspec_szE
00000000005c74a4 D _ZN11__sanitizer20struct_synth_info_szE
00000000005c74e4 D _ZN11__sanitizer20struct_unimapdesc_szE
00000000005c74e8 D _ZN11__sanitizer20struct_unimapinit_szE
00000000005c7478 D _ZN11__sanitizer20struct_vt_consize_szE
00000000004b6dc0 T _ZN11__sanitizer21DTLS_on_libc_memalignEPvm
00000000005c7638 D _ZN11__sanitizer21IOCTL_CDROMPLAYTRKINDE
00000000005c7640 D _ZN11__sanitizer21IOCTL_CDROMREADCOOKEDE
00000000005c7654 D _ZN11__sanitizer21IOCTL_CDROMREADTOCHDRE
00000000005c79c0 D _ZN11__sanitizer21IOCTL_EQL_GETMASTRCFGE
00000000005c79c4 D _ZN11__sanitizer21IOCTL_EQL_GETSLAVECFGE
00000000005c79c8 D _ZN11__sanitizer21IOCTL_EQL_SETMASTRCFGE
00000000005c79cc D _ZN11__sanitizer21IOCTL_EQL_SETSLAVECFGE
00000000005c79dc D _ZN11__sanitizer21IOCTL_FS_IOC_GETFLAGSE
00000000005c79e4 D _ZN11__sanitizer21IOCTL_FS_IOC_SETFLAGSE
00000000005c76f8 D _ZN11__sanitizer21IOCTL_HDIO_GET_NOWERRE
00000000005c7710 D _ZN11__sanitizer21IOCTL_HDIO_SET_NOWERRE
00000000005c771c D _ZN11__sanitizer21IOCTL_PPPIOCGASYNCMAPE
00000000005c7730 D _ZN11__sanitizer21IOCTL_PPPIOCSASYNCMAPE
00000000005c77b4 D _ZN11__sanitizer21IOCTL_SNDCTL_COPR_RUNE
00000000005c785c D _ZN11__sanitizer21IOCTL_SNDCTL_DSP_POSTE
00000000005c7878 D _ZN11__sanitizer21IOCTL_SNDCTL_DSP_SYNCE
00000000005c78b4 D _ZN11__sanitizer21IOCTL_SNDCTL_SEQ_SYNCE
00000000005c78dc D _ZN11__sanitizer21IOCTL_SNDCTL_TMR_STOPE
00000000005c7ad0 D _ZN11__sanitizer21IOCTL_TIOCSERGETMULTIE
00000000005c7ad4 D _ZN11__sanitizer21IOCTL_TIOCSERSETMULTIE
00000000004ae2c0 T _ZN11__sanitizer21InitializeCommonFlagsEPNS_11CommonFlagsE
00000000004b3270 T _ZN11__sanitizer21MmapOrDieOnFatalErrorEmPKc
00000000004bc070 T _ZN11__sanitizer21ReportPvallocOverflowEmPKNS_10StackTraceE
00000000004c2000 T _ZN11__sanitizer21ScopedErrorReportLock11CheckLockedEv
00000000004c1f40 T _ZN11__sanitizer21ScopedErrorReportLockC1Ev
00000000004c1f40 T _ZN11__sanitizer21ScopedErrorReportLockC2Ev
00000000004c1fe0 T _ZN11__sanitizer21ScopedErrorReportLockD1Ev
00000000004c1fe0 T _ZN11__sanitizer21ScopedErrorReportLockD2Ev
00000000004b86d0 T _ZN11__sanitizer21SetSandboxingCallbackEPFvvE
00000000004b9b80 T _ZN11__sanitizer21SupportsColoredOutputEi
000000000066f148 B _ZN11__sanitizer21common_flags_dont_useE
00000000004b2d30 T _ZN11__sanitizer21internal_start_threadEPFPvS0_ES0_
00000000005c7484 D _ZN11__sanitizer21struct_copr_buffer_szE
00000000005c7334 D _ZN11__sanitizer21struct_epoll_event_szE
00000000005c7460 D _ZN11__sanitizer21struct_hd_geometry_szE
00000000005c7344 D _ZN11__sanitizer21struct_new_utsname_szE
00000000005c7348 D _ZN11__sanitizer21struct_old_utsname_szE
00000000005c7318 D _ZN11__sanitizer21struct_sched_param_szE
00000000005c74f4 D _ZN11__sanitizer21struct_sioc_sg_req_szE
00000000004a8120 T _ZN11__sanitizer22AllocatorMayReturnNullEv
00000000004ac480 T _ZN11__sanitizer22CatastrophicErrorWriteEPKcm
00000000005c7620 D _ZN11__sanitizer22IOCTL_CDROMAUDIOBUFSIZE
00000000005c79d0 D _ZN11__sanitizer22IOCTL_EVIOCGKEYCODE_V2E
00000000005c79d8 D _ZN11__sanitizer22IOCTL_EVIOCSKEYCODE_V2E
00000000005c772c D _ZN11__sanitizer22IOCTL_PPPIOCGXASYNCMAPE
00000000005c7744 D _ZN11__sanitizer22IOCTL_PPPIOCSXASYNCMAPE
00000000005c7aa4 D _ZN11__sanitizer22IOCTL_SIOCAX25GETPARMSE
00000000005c7ab0 D _ZN11__sanitizer22IOCTL_SIOCAX25SETPARMSE
00000000005c779c D _ZN11__sanitizer22IOCTL_SNDCTL_COPR_HALTE
00000000005c77a0 D _ZN11__sanitizer22IOCTL_SNDCTL_COPR_LOADE
00000000005c7860 D _ZN11__sanitizer22IOCTL_SNDCTL_DSP_RESETE
00000000005c786c D _ZN11__sanitizer22IOCTL_SNDCTL_DSP_SPEEDE
00000000005c7884 D _ZN11__sanitizer22IOCTL_SNDCTL_MIDI_INFOE
00000000005c78a4 D _ZN11__sanitizer22IOCTL_SNDCTL_SEQ_PANICE
00000000005c78ac D _ZN11__sanitizer22IOCTL_SNDCTL_SEQ_RESETE
00000000005c78d8 D _ZN11__sanitizer22IOCTL_SNDCTL_TMR_STARTE
00000000005c78e0 D _ZN11__sanitizer22IOCTL_SNDCTL_TMR_TEMPOE
00000000004a8100 T _ZN11__sanitizer22IsAllocatorOutOfMemoryEv
00000000004bea60 T _ZN11__sanitizer22LibbacktraceSymbolizer11SymbolizePCEmPNS_15SymbolizedStackE
00000000004bea70 T _ZN11__sanitizer22LibbacktraceSymbolizer13SymbolizeDataEmPNS_8DataInfoE
00000000004bea50 T _ZN11__sanitizer22LibbacktraceSymbolizer3getEPNS_17LowLevelAllocatorE
00000000004bea80 T _ZN11__sanitizer22LibbacktraceSymbolizer8DemangleEPKc
00000000004b3af0 T _ZN11__sanitizer22MemoryRangeIsAvailableEmm
00000000004bf450 T _ZN11__sanitizer22ParseSymbolizePCOutputEPKcPNS_15SymbolizedStackE
00000000004b9830 T _ZN11__sanitizer22ReleaseMemoryPagesToOSEmm
00000000004bc280 T _ZN11__sanitizer22ReportRssLimitExceededEPKNS_10StackTraceE
00000000005c5288 D _ZN11__sanitizer22SecondaryAllocatorNameE
00000000004b80a0 T _ZN11__sanitizer22SetCheckFailedCallbackEPFvPKciS1_yyE
00000000004ace10 T _ZN11__sanitizer22SubstituteForFlagValueEPKcPcm
00000000004b3080 T _ZN11__sanitizer22__sanitizer_in_addr_szEi
00000000004b1af0 T _ZN11__sanitizer22internal_clock_gettimeEiPv
00000000005c7430 D _ZN11__sanitizer22struct_cdrom_tochdr_szE
00000000005c7458 D _ZN11__sanitizer22struct_format_descr_szE
00000000005c74c8 D _ZN11__sanitizer22struct_mtconfiginfo_szE
00000000005c74f8 D _ZN11__sanitizer22struct_sioc_vif_req_szE
000000000066f318 B _ZN11__sanitizer22thePersistentAllocatorE
00000000004b9a40 T _ZN11__sanitizer23AddressSpaceIsUnlimitedEv
00000000005c762c D _ZN11__sanitizer23IOCTL_CDROMMULTISESSIONE
00000000005c7650 D _ZN11__sanitizer23IOCTL_CDROMREADTOCENTRYE
00000000005c79e0 D _ZN11__sanitizer23IOCTL_FS_IOC_GETVERSIONE
00000000005c79e8 D _ZN11__sanitizer23IOCTL_FS_IOC_SETVERSIONE
00000000005c76ec D _ZN11__sanitizer23IOCTL_HDIO_GET_IDENTITYE
00000000005c77a4 D _ZN11__sanitizer23IOCTL_SNDCTL_COPR_RCODEE
00000000005c77ac D _ZN11__sanitizer23IOCTL_SNDCTL_COPR_RDATAE
00000000005c77b0 D _ZN11__sanitizer23IOCTL_SNDCTL_COPR_RESETE
00000000005c77bc D _ZN11__sanitizer23IOCTL_SNDCTL_COPR_WCODEE
00000000005c77c0 D _ZN11__sanitizer23IOCTL_SNDCTL_COPR_WDATAE
00000000005c7864 D _ZN11__sanitizer23IOCTL_SNDCTL_DSP_SETFMTE
00000000005c7870 D _ZN11__sanitizer23IOCTL_SNDCTL_DSP_STEREOE
00000000005c78c0 D _ZN11__sanitizer23IOCTL_SNDCTL_SYNTH_INFOE
00000000005c78d0 D _ZN11__sanitizer23IOCTL_SNDCTL_TMR_SELECTE
00000000005c78d4 D _ZN11__sanitizer23IOCTL_SNDCTL_TMR_SOURCEE
00000000004b2e50 T _ZN11__sanitizer23InitializePlatformEarlyEv
00000000004b9e50 T _ZN11__sanitizer23IsAccessibleMemoryRangeEmm
00000000004b3a60 T _ZN11__sanitizer23MapWritableFileToMemoryEPvmiy
00000000004ba030 T _ZN11__sanitizer23MmapFixedSuperNoReserveEmmPKc
00000000004a9900 T _ZN11__sanitizer23ReportMmapFailureAndDieEmPKcS1_ib
00000000004ae540 T _ZN11__sanitizer23ReportUnrecognizedFlagsEv
00000000004a8110 T _ZN11__sanitizer23SetAllocatorOutOfMemoryEv
00000000004b9b90 T _ZN11__sanitizer23SetAlternateSignalStackEv
00000000004b3810 T _ZN11__sanitizer23ShouldMockFailureToOpenEPKc
00000000004c1690 T _ZN11__sanitizer23StartReportDeadlySignalEv
00000000004aefd0 T _ZN11__sanitizer23internal_simple_strtollEPKcPS1_i
000000000066d0d0 B _ZN11__sanitizer23stoptheworld_tracer_pidE
00000000005c7424 D _ZN11__sanitizer23struct_cdrom_subchnl_szE
00000000005c7434 D _ZN11__sanitizer23struct_cdrom_volctrl_szE
00000000005c7450 D _ZN11__sanitizer23struct_floppy_struct_szE
00000000005c7464 D _ZN11__sanitizer23struct_input_absinfo_szE
00000000005c74a0 D _ZN11__sanitizer23struct_seq_event_rec_szE
00000000005c74dc D _ZN11__sanitizer23struct_serial_struct_szE
00000000005c74e0 D _ZN11__sanitizer23struct_sockaddr_ax25_szE
00000000004b2ec0 T _ZN11__sanitizer24FindAvailableMemoryRangeEmmmPmS0_
00000000004b2920 T _ZN11__sanitizer24GetMaxUserVirtualAddressEv
00000000005c76f4 D _ZN11__sanitizer24IOCTL_HDIO_GET_MULTCOUNTE
00000000005c770c D _ZN11__sanitizer24IOCTL_HDIO_SET_MULTCOUNTE
00000000005c77a8 D _ZN11__sanitizer24IOCTL_SNDCTL_COPR_RCVMSGE
00000000005c7854 D _ZN11__sanitizer24IOCTL_SNDCTL_DSP_GETFMTSE
00000000005c7898 D _ZN11__sanitizer24IOCTL_SNDCTL_SEQ_NRMIDISE
00000000004325a0 W _ZN11__sanitizer24InternalMmapVectorNoCtorIN6__asan13DynInitGlobalEE7ReallocEm
0000000000432480 W _ZN11__sanitizer24InternalMmapVectorNoCtorIN6__asan13DynInitGlobalEE9push_backERKS2_
0000000000427f90 W _ZN11__sanitizer24InternalMmapVectorNoCtorIN6__asan13StackVarDescrEE7ReallocEm
000000000049f0e0 W _ZN11__sanitizer24InternalMmapVectorNoCtorIN6__asan13StackVarDescrEE9push_backERKS2_
000000000049c760 W _ZN11__sanitizer24InternalMmapVectorNoCtorIN6__asan14AllocationSiteEE7ReallocEm
000000000049c930 W _ZN11__sanitizer24InternalMmapVectorNoCtorIN6__asan14AllocationSiteEE9push_backERKS2_
00000000004326a0 W _ZN11__sanitizer24InternalMmapVectorNoCtorIN6__asan22GlobalRegistrationSiteEE7ReallocEm
0000000000431e80 W _ZN11__sanitizer24InternalMmapVectorNoCtorIN6__asan22GlobalRegistrationSiteEE9push_backERKS2_
00000000004c5f30 W _ZN11__sanitizer24InternalMmapVectorNoCtorIN6__lsan10RootRegionEE7ReallocEm
00000000004c4660 W _ZN11__sanitizer24InternalMmapVectorNoCtorIN6__lsan10RootRegionEE9push_backERKS2_
00000000004c57e0 W _ZN11__sanitizer24InternalMmapVectorNoCtorIN6__lsan12LeakedObjectEE7ReallocEm
00000000004c3a20 W _ZN11__sanitizer24InternalMmapVectorNoCtorIN6__lsan12LeakedObjectEE9push_backERKS2_
00000000004c56f0 W _ZN11__sanitizer24InternalMmapVectorNoCtorIN6__lsan4LeakEE7ReallocEm
00000000004c3910 W _ZN11__sanitizer24InternalMmapVectorNoCtorIN6__lsan4LeakEE9push_backERKS2_
00000000004b6820 W _ZN11__sanitizer24InternalMmapVectorNoCtorINS_11SuppressionEE7ReallocEm
00000000004b6530 W _ZN11__sanitizer24InternalMmapVectorNoCtorINS_11SuppressionEE9push_backERKS1_
00000000004b5aa0 W _ZN11__sanitizer24InternalMmapVectorNoCtorINS_12LoadedModuleEE7ReallocEm
00000000004b56e0 W _ZN11__sanitizer24InternalMmapVectorNoCtorINS_12LoadedModuleEE9push_backERKS1_
00000000004c24b0 t _ZN11__sanitizer24InternalMmapVectorNoCtorINS_12_GLOBAL__N_117backtrace_frame_tEE7reserveEm
00000000004c2030 W _ZN11__sanitizer24InternalMmapVectorNoCtorINS_18BufferedStackTraceEE7ReallocEm
00000000004bce80 W _ZN11__sanitizer24InternalMmapVectorNoCtorINS_20StackDepotReverseMap10IdDescPairEE7ReallocEm
00000000004bcc90 W _ZN11__sanitizer24InternalMmapVectorNoCtorINS_20StackDepotReverseMap10IdDescPairEE9push_backERKS2_
00000000004c0270 W _ZN11__sanitizer24InternalMmapVectorNoCtorINS_9LocalInfoEE7ReallocEm
00000000004c0150 W _ZN11__sanitizer24InternalMmapVectorNoCtorINS_9LocalInfoEE9push_backERKS1_
00000000004be960 W _ZN11__sanitizer24InternalMmapVectorNoCtorIPKcE7ReallocEm
00000000004be770 W _ZN11__sanitizer24InternalMmapVectorNoCtorIPKcE9push_backERKS2_
00000000004b6910 W _ZN11__sanitizer24InternalMmapVectorNoCtorIPNS_11SuppressionEE7ReallocEm
00000000004b6710 W _ZN11__sanitizer24InternalMmapVectorNoCtorIPNS_11SuppressionEE9push_backERKS2_
00000000004c0e90 W _ZN11__sanitizer24InternalMmapVectorNoCtorIPNS_16Addr2LineProcessEE7ReallocEm
00000000004c10d0 W _ZN11__sanitizer24InternalMmapVectorNoCtorIPNS_16Addr2LineProcessEE9push_backERKS2_
0000000000429a60 W _ZN11__sanitizer24InternalMmapVectorNoCtorIcE7ReallocEm
00000000004b27d0 W _ZN11__sanitizer24InternalMmapVectorNoCtorIcE9push_backERKc
00000000004c4940 W _ZN11__sanitizer24InternalMmapVectorNoCtorIjE7ReallocEm
00000000004c36d0 W _ZN11__sanitizer24InternalMmapVectorNoCtorIjE9push_backERKj
0000000000427260 W _ZN11__sanitizer24InternalMmapVectorNoCtorImE7ReallocEm
0000000000422d30 W _ZN11__sanitizer24InternalMmapVectorNoCtorImE9push_backERKm
00000000004b2fa0 W _ZN11__sanitizer24InternalMmapVectorNoCtorIyE7ReallocEm
00000000004b2610 W _ZN11__sanitizer24InternalMmapVectorNoCtorIyE9push_backERKy
00000000004bf6f0 T _ZN11__sanitizer24ParseSymbolizeDataOutputEPKcPNS_8DataInfoE
00000000004be2b0 T _ZN11__sanitizer24RenderNeedsSymbolizationEPKc
00000000004b8790 T _ZN11__sanitizer24ReserveShadowMemoryRangeEmmPKcb
00000000004b9a90 T _ZN11__sanitizer24SetAddressSpaceUnlimitedEv
00000000004b99d0 T _ZN11__sanitizer24SetStackSizeLimitInBytesEm
00000000004bc7d0 T _ZN11__sanitizer24StackDepotPut_WithHandleENS_10StackTraceE
00000000004ba1a0 T _ZN11__sanitizer24my_pthread_attr_getstackEPvPS0_Pm
000000000066d0d8 B _ZN11__sanitizer24stoptheworld_tracer_ppidE
00000000005c74ec D _ZN11__sanitizer24struct_audio_buf_info_szE
00000000005c742c D _ZN11__sanitizer24struct_cdrom_tocentry_szE
00000000005c7488 D _ZN11__sanitizer24struct_copr_debug_buf_szE
00000000005c744c D _ZN11__sanitizer24struct_floppy_raw_cmd_szE
00000000005c734c D _ZN11__sanitizer24struct_oldold_utsname_szE
00000000005c749c D _ZN11__sanitizer24struct_sbi_instrument_szE
00000000004becd0 T _ZN11__sanitizer25ExtractTokenUpToDelimiterEPKcS1_PPc
00000000005c76fc D _ZN11__sanitizer25IOCTL_HDIO_GET_UNMASKINTRE
00000000005c7714 D _ZN11__sanitizer25IOCTL_HDIO_SET_UNMASKINTRE
00000000005c77b8 D _ZN11__sanitizer25IOCTL_SNDCTL_COPR_SENDMSGE
00000000005c7858 D _ZN11__sanitizer25IOCTL_SNDCTL_DSP_NONBLOCKE
00000000005c7888 D _ZN11__sanitizer25IOCTL_SNDCTL_MIDI_PRETIMEE
00000000005c788c D _ZN11__sanitizer25IOCTL_SNDCTL_SEQ_CTRLRATEE
00000000005c789c D _ZN11__sanitizer25IOCTL_SNDCTL_SEQ_NRSYNTHSE
00000000005c78a8 D _ZN11__sanitizer25IOCTL_SNDCTL_SEQ_PERCMODEE
00000000005c78b8 D _ZN11__sanitizer25IOCTL_SNDCTL_SEQ_TESTMIDIE
00000000005c78c4 D _ZN11__sanitizer25IOCTL_SNDCTL_SYNTH_MEMAVLE
00000000005c78c8 D _ZN11__sanitizer25IOCTL_SNDCTL_TMR_CONTINUEE
00000000005c78e4 D _ZN11__sanitizer25IOCTL_SNDCTL_TMR_TIMEBASEE
00000000005c78f4 D _ZN11__sanitizer25IOCTL_SOUND_MIXER_READ_CDE
00000000005c77c4 D _ZN11__sanitizer25IOCTL_SOUND_PCM_READ_BITSE
00000000005c77d0 D _ZN11__sanitizer25IOCTL_SOUND_PCM_READ_RATEE
00000000004b8690 T _ZN11__sanitizer25MaybeStartBackgroudThreadEv
00000000004a8130 T _ZN11__sanitizer25SetAllocatorMayReturnNullEb
00000000004ba690 T _ZN11__sanitizer25SuspendedThreadsListLinux6AppendEy
00000000004b9c40 T _ZN11__sanitizer25UnsetAlternateSignalStackEv
00000000005c7340 D _ZN11__sanitizer25__user_cap_data_struct_szE
00000000005c74b4 D _ZN11__sanitizer25struct_ipx_config_data_szE
00000000005c74cc D _ZN11__sanitizer25struct_nr_parms_struct_szE
00000000004b89e0 T _ZN11__sanitizer26GetThreadStackTopAndBottomEbPmS0_
00000000005c7a84 D _ZN11__sanitizer26IOCTL_SCSI_IOCTL_GET_IDLUNE
00000000005c7b10 D _ZN11__sanitizer26IOCTL_SNDCTL_DSP_GETISPACEE
00000000005c7b14 D _ZN11__sanitizer26IOCTL_SNDCTL_DSP_GETOSPACEE
00000000005c7874 D _ZN11__sanitizer26IOCTL_SNDCTL_DSP_SUBDIVIDEE
00000000005c787c D _ZN11__sanitizer26IOCTL_SNDCTL_FM_4OP_ENABLEE
00000000005c7880 D _ZN11__sanitizer26IOCTL_SNDCTL_FM_LOAD_INSTRE
00000000005c78a0 D _ZN11__sanitizer26IOCTL_SNDCTL_SEQ_OUTOFBANDE
00000000005c78bc D _ZN11__sanitizer26IOCTL_SNDCTL_SEQ_THRESHOLDE
00000000005c78cc D _ZN11__sanitizer26IOCTL_SNDCTL_TMR_METRONOMEE
00000000005c791c D _ZN11__sanitizer26IOCTL_SOUND_MIXER_READ_MICE
00000000005c7928 D _ZN11__sanitizer26IOCTL_SOUND_MIXER_READ_PCME
00000000005c7954 D _ZN11__sanitizer26IOCTL_SOUND_MIXER_WRITE_CDE
00000000004b36d0 T _ZN11__sanitizer26MmapFixedOrDieOnFatalErrorEmmPKc
00000000004bc1e0 T _ZN11__sanitizer26ReportAllocationSizeTooBigEmmPKNS_10StackTraceE
00000000004bc020 T _ZN11__sanitizer26ReportReallocArrayOverflowEmmPKNS_10StackTraceE
00000000004bbf80 W _ZN11__sanitizer26ScopedAllocatorErrorReportC2EPKcPKNS_10StackTraceE
00000000004bbfd0 W _ZN11__sanitizer26ScopedAllocatorErrorReportD2Ev
00000000004b4820 T _ZN11__sanitizer26SetPrintfAndReportCallbackEPFvPKcE
00000000005c7420 D _ZN11__sanitizer26struct_cdrom_read_audio_szE
00000000005c7444 D _ZN11__sanitizer26struct_floppy_fdc_state_szE
00000000005c73bc D _ZN11__sanitizer26struct_user_regs_struct_szE
00000000005c76f0 D _ZN11__sanitizer27IOCTL_HDIO_GET_KEEPSETTINGSE
00000000005c7708 D _ZN11__sanitizer27IOCTL_HDIO_SET_KEEPSETTINGSE
00000000005c7a88 D _ZN11__sanitizer27IOCTL_SCSI_IOCTL_PROBE_HOSTE
00000000005c7850 D _ZN11__sanitizer27IOCTL_SNDCTL_DSP_GETBLKSIZEE
00000000005c7890 D _ZN11__sanitizer27IOCTL_SNDCTL_SEQ_GETINCOUNTE
00000000005c78ec D _ZN11__sanitizer27IOCTL_SOUND_MIXER_READ_BASSE
00000000005c78f0 D _ZN11__sanitizer27IOCTL_SOUND_MIXER_READ_CAPSE
00000000005c7904 D _ZN11__sanitizer27IOCTL_SOUND_MIXER_READ_IMIXE
00000000005c7908 D _ZN11__sanitizer27IOCTL_SOUND_MIXER_READ_LINEE
00000000005c7918 D _ZN11__sanitizer27IOCTL_SOUND_MIXER_READ_LOUDE
00000000005c7920 D _ZN11__sanitizer27IOCTL_SOUND_MIXER_READ_MUTEE
00000000005c7978 D _ZN11__sanitizer27IOCTL_SOUND_MIXER_WRITE_MICE
00000000005c7984 D _ZN11__sanitizer27IOCTL_SOUND_MIXER_WRITE_PCME
00000000005c77cc D _ZN11__sanitizer27IOCTL_SOUND_PCM_READ_FILTERE
00000000004b9cb0 T _ZN11__sanitizer27InstallDeadlySignalHandlersEPFviPvS0_E
00000000004a80f0 T _ZN11__sanitizer27SetLowLevelAllocateCallbackEPFvmmE
00000000004b98a0 T _ZN11__sanitizer27SetShadowRegionHugePageModeEmm
00000000005c733c D _ZN11__sanitizer27__user_cap_header_struct_szE
00000000005c74ac D _ZN11__sanitizer27struct_ax25_parms_struct_szE
00000000005c7448 D _ZN11__sanitizer27struct_floppy_max_errors_szE
00000000004b98e0 T _ZN11__sanitizer28DisableCoreDumperIfNecessaryEv
00000000005c7868 D _ZN11__sanitizer28IOCTL_SNDCTL_DSP_SETFRAGMENTE
00000000005c7894 D _ZN11__sanitizer28IOCTL_SNDCTL_SEQ_GETOUTCOUNTE
00000000005c7900 D _ZN11__sanitizer28IOCTL_SOUND_MIXER_READ_IGAINE
00000000005c790c D _ZN11__sanitizer28IOCTL_SOUND_MIXER_READ_LINE1E
00000000005c7910 D _ZN11__sanitizer28IOCTL_SOUND_MIXER_READ_LINE2E
00000000005c7914 D _ZN11__sanitizer28IOCTL_SOUND_MIXER_READ_LINE3E
00000000005c7924 D _ZN11__sanitizer28IOCTL_SOUND_MIXER_READ_OGAINE
00000000005c7940 D _ZN11__sanitizer28IOCTL_SOUND_MIXER_READ_SYNTHE
00000000005c7950 D _ZN11__sanitizer28IOCTL_SOUND_MIXER_WRITE_BASSE
00000000005c7960 D _ZN11__sanitizer28IOCTL_SOUND_MIXER_WRITE_IMIXE
00000000005c7964 D _ZN11__sanitizer28IOCTL_SOUND_MIXER_WRITE_LINEE
00000000005c7974 D _ZN11__sanitizer28IOCTL_SOUND_MIXER_WRITE_LOUDE
00000000005c797c D _ZN11__sanitizer28IOCTL_SOUND_MIXER_WRITE_MUTEE
00000000005c77d8 D _ZN11__sanitizer28IOCTL_SOUND_PCM_WRITE_FILTERE
00000000004b3350 T _ZN11__sanitizer28MmapAlignedOrDieOnFatalErrorEmmPKc
00000000004b9f30 T _ZN11__sanitizer28PlatformPrepareForSandboxingEP29__sanitizer_sandbox_arguments
00000000005c741c D _ZN11__sanitizer28struct_cdrom_multisession_szE
00000000005c74b0 D _ZN11__sanitizer28struct_input_keymap_entry_szE
00000000005c73c0 D _ZN11__sanitizer28struct_user_fpregs_struct_szE
00000000005c78b0 D _ZN11__sanitizer29IOCTL_SNDCTL_SEQ_RESETSAMPLESE
00000000005c78e8 D _ZN11__sanitizer29IOCTL_SOUND_MIXER_READ_ALTPCME
00000000005c792c D _ZN11__sanitizer29IOCTL_SOUND_MIXER_READ_RECLEVE
00000000005c7934 D _ZN11__sanitizer29IOCTL_SOUND_MIXER_READ_RECSRCE
00000000005c7944 D _ZN11__sanitizer29IOCTL_SOUND_MIXER_READ_TREBLEE
00000000005c7948 D _ZN11__sanitizer29IOCTL_SOUND_MIXER_READ_VOLUMEE
00000000005c795c D _ZN11__sanitizer29IOCTL_SOUND_MIXER_WRITE_IGAINE
00000000005c7968 D _ZN11__sanitizer29IOCTL_SOUND_MIXER_WRITE_LINE1E
00000000005c796c D _ZN11__sanitizer29IOCTL_SOUND_MIXER_WRITE_LINE2E
00000000005c7970 D _ZN11__sanitizer29IOCTL_SOUND_MIXER_WRITE_LINE3E
00000000005c7980 D _ZN11__sanitizer29IOCTL_SOUND_MIXER_WRITE_OGAINE
00000000005c7994 D _ZN11__sanitizer29IOCTL_SOUND_MIXER_WRITE_SYNTHE
00000000005c77c8 D _ZN11__sanitizer29IOCTL_SOUND_PCM_READ_CHANNELSE
00000000004b9800 T _ZN11__sanitizer29InitializePlatformCommonFlagsEPNS_11CommonFlagsE
00000000004b2140 T _ZN11__sanitizer29internal_sigaction_norestorerEiPKvPv
00000000005c743c D _ZN11__sanitizer29struct_floppy_drive_params_szE
00000000005c7440 D _ZN11__sanitizer29struct_floppy_drive_struct_szE
00000000005c7454 D _ZN11__sanitizer29struct_floppy_write_errors_szE
000000000066f330 B _ZN11__sanitizer29struct_user_fpxregs_struct_szE
000000000066f334 B _ZN11__sanitizer29struct_user_vfpregs_struct_szE
00000000004ab950 T _ZN11__sanitizer2DD12MutexDestroyEPNS_10DDCallbackEPNS_7DDMutexE
00000000004aa5d0 T _ZN11__sanitizer2DD13MutexEnsureIDEPNS_15DDLogicalThreadEPNS_7DDMutexE
00000000004ab560 T _ZN11__sanitizer2DD14MutexAfterLockEPNS_10DDCallbackEPNS_7DDMutexEbb
00000000004aafc0 T _ZN11__sanitizer2DD14ReportDeadlockEPNS_10DDCallbackEPNS_7DDMutexE
00000000004aab80 T _ZN11__sanitizer2DD15MutexBeforeLockEPNS_10DDCallbackEPNS_7DDMutexEb
00000000004ab920 T _ZN11__sanitizer2DD17MutexBeforeUnlockEPNS_10DDCallbackEPNS_7DDMutexEb
00000000004aa550 T _ZN11__sanitizer2DD19CreateLogicalThreadEy
00000000004aa530 T _ZN11__sanitizer2DD20CreatePhysicalThreadEv
00000000004aa5a0 T _ZN11__sanitizer2DD20DestroyLogicalThreadEPNS_15DDLogicalThreadE
00000000004aa540 T _ZN11__sanitizer2DD21DestroyPhysicalThreadEPNS_16DDPhysicalThreadE
00000000004abae0 T _ZN11__sanitizer2DD9GetReportEPNS_10DDCallbackE
00000000004aa5b0 T _ZN11__sanitizer2DD9MutexInitEPNS_10DDCallbackEPNS_7DDMutexE
00000000004aa4b0 T _ZN11__sanitizer2DDC1EPKNS_7DDFlagsE
00000000004aa4b0 T _ZN11__sanitizer2DDC2EPKNS_7DDFlagsE
00000000005c7a90 D _ZN11__sanitizer30IOCTL_SCSI_IOCTL_TAGGED_ENABLEE
00000000005c78f8 D _ZN11__sanitizer30IOCTL_SOUND_MIXER_READ_DEVMASKE
00000000005c78fc D _ZN11__sanitizer30IOCTL_SOUND_MIXER_READ_ENHANCEE
00000000005c7930 D _ZN11__sanitizer30IOCTL_SOUND_MIXER_READ_RECMASKE
00000000005c7938 D _ZN11__sanitizer30IOCTL_SOUND_MIXER_READ_SPEAKERE
00000000005c794c D _ZN11__sanitizer30IOCTL_SOUND_MIXER_WRITE_ALTPCME
00000000005c7988 D _ZN11__sanitizer30IOCTL_SOUND_MIXER_WRITE_RECLEVE
00000000005c798c D _ZN11__sanitizer30IOCTL_SOUND_MIXER_WRITE_RECSRCE
00000000005c7998 D _ZN11__sanitizer30IOCTL_SOUND_MIXER_WRITE_TREBLEE
00000000005c799c D _ZN11__sanitizer30IOCTL_SOUND_MIXER_WRITE_VOLUMEE
00000000005c77d4 D _ZN11__sanitizer30IOCTL_SOUND_PCM_WRITE_CHANNELSE
00000000004a8e90 W _ZN11__sanitizer30SizeClassAllocator32LocalCacheINS_20SizeClassAllocator32INS_4AP32EEEE10DeallocateEPS3_mPv
00000000004a8df0 W _ZN11__sanitizer30SizeClassAllocator32LocalCacheINS_20SizeClassAllocator32INS_4AP32EEEE11CreateBatchEmPS3_PNS3_13TransferBatchE
00000000004a9040 W _ZN11__sanitizer30SizeClassAllocator32LocalCacheINS_20SizeClassAllocator32INS_4AP32EEEE5DrainEPNS4_8PerClassEPS3_m
00000000004a85e0 W _ZN11__sanitizer30SizeClassAllocator32LocalCacheINS_20SizeClassAllocator32INS_4AP32EEEE6RefillEPNS4_8PerClassEPS3_m
0000000000424290 W _ZN11__sanitizer30SizeClassAllocator64LocalCacheINS_20SizeClassAllocator64IN6__asan4AP64INS_21LocalAddressSpaceViewEEEEEE10DeallocateEPS6_mPv
0000000000424530 W _ZN11__sanitizer30SizeClassAllocator64LocalCacheINS_20SizeClassAllocator64IN6__asan4AP64INS_21LocalAddressSpaceViewEEEEEE5DrainEPNS7_8PerClassEPS6_mm
0000000000425ef0 W _ZN11__sanitizer30SizeClassAllocator64LocalCacheINS_20SizeClassAllocator64IN6__asan4AP64INS_21LocalAddressSpaceViewEEEEEE6RefillEPNS7_8PerClassEPS6_m
00000000005c7a8c D _ZN11__sanitizer31IOCTL_SCSI_IOCTL_TAGGED_DISABLEE
00000000005c7958 D _ZN11__sanitizer31IOCTL_SOUND_MIXER_WRITE_ENHANCEE
00000000005c7990 D _ZN11__sanitizer31IOCTL_SOUND_MIXER_WRITE_SPEAKERE
00000000004a80b0 T _ZN11__sanitizer31SetLowLevelAllocateMinAlignmentEm
00000000004b8140 T _ZN11__sanitizer31SetSoftRssLimitExceededCallbackEPFvbE
00000000004bc0f0 T _ZN11__sanitizer32ReportInvalidAllocationAlignmentEmPKNS_10StackTraceE
00000000005c793c D _ZN11__sanitizer33IOCTL_SOUND_MIXER_READ_STEREODEVSE
00000000005c74d8 D _ZN11__sanitizer33struct_serial_multiport_struct_szE
00000000004a8140 T _ZN11__sanitizer34PrintHintAllocatorCannotReturnNullEv
00000000004bc140 T _ZN11__sanitizer34ReportInvalidAlignedAllocAlignmentEmmPKNS_10StackTraceE
00000000004a9b00 T _ZN11__sanitizer35RemoveANSIEscapeSequencesFromStringEPc
00000000004bc190 T _ZN11__sanitizer35ReportInvalidPosixMemalignAlignmentEmPKNS_10StackTraceE
00000000004b7fd0 T _ZN11__sanitizer3DieEv
000000000049a2f0 W _ZN11__sanitizer4SortI10ioctl_desc18ioctl_desc_compareEEvPT_mT0_
000000000049ca50 W _ZN11__sanitizer4SortIN6__asan14AllocationSiteEZNS1_11HeapProfile5PrintEmmEUlRKS2_S5_E_EEvPT_mT0_
00000000004b9b20 T _ZN11__sanitizer5AbortEv
00000000004b51e0 T _ZN11__sanitizer5IsHexEc
00000000004b9b70 T _ZN11__sanitizer6AtexitEPFvvE
00000000004b1b00 T _ZN11__sanitizer6GetEnvEPKc
00000000004b3d80 T _ZN11__sanitizer6GetPwdEv
00000000004b92c0 T _ZN11__sanitizer6GetRSSEv
00000000004b1a90 T _ZN11__sanitizer6GetTidEv
00000000004b9810 T _ZN11__sanitizer6GetUidEv
00000000004b4840 T _ZN11__sanitizer6PrintfEPKcz
00000000004b9550 T _ZN11__sanitizer6ReExecEv
00000000004b4900 T _ZN11__sanitizer6ReportEPKcz
00000000004b8c10 T _ZN11__sanitizer6SetEnvEPKcS1_
00000000004b1aa0 T _ZN11__sanitizer6TgKillEiyi
00000000004abb00 W _ZN11__sanitizer7BVGraphINS_17TwoLevelBitVectorILm1ENS_14BasicBitVectorImEEEEE11isReachableEmRKS4_
00000000004abdd0 W _ZN11__sanitizer7BVGraphINS_17TwoLevelBitVectorILm1ENS_14BasicBitVectorImEEEEE8addEdgesERKS4_mPmm
00000000004ac050 W _ZN11__sanitizer7BVGraphINS_17TwoLevelBitVectorILm1ENS_14BasicBitVectorImEEEEE8findPathEmRKS4_Pmm
00000000004b1c20 T _ZN11__sanitizer7GetArgvEv
0000000000490820 W _ZN11__sanitizer7RWMutex12ReadLockSlowEv
0000000000490860 W _ZN11__sanitizer7RWMutex8LockSlowEv
00000000005c73a8 D _ZN11__sanitizer7af_inetE
00000000005c7380 D _ZN11__sanitizer7e_tabszE
0000000000583be8 R _ZN11__sanitizer7sig_dflE
0000000000583bf0 R _ZN11__sanitizer7sig_errE
0000000000583be0 R _ZN11__sanitizer7sig_ignE
00000000004b6e20 T _ZN11__sanitizer8DTLS_GetEv
00000000004be590 T _ZN11__sanitizer8DataInfo5ClearEv
00000000004be580 T _ZN11__sanitizer8DataInfoC1Ev
00000000004be580 T _ZN11__sanitizer8DataInfoC2Ev
00000000004b1ab0 T _ZN11__sanitizer8NanoTimeEv
00000000004b3720 T _ZN11__sanitizer8OpenFileEPKcNS_14FileAccessModeEPi
00000000004b5220 T _ZN11__sanitizer8ParseHexEPPKc
00000000004ac4a0 T _ZN11__sanitizer8RawWriteEPKc
00000000005c73ac D _ZN11__sanitizer8af_inet6E
00000000005c7300 D _ZN11__sanitizer8gid_t_szE
00000000005c7404 D _ZN11__sanitizer8path_maxE
00000000005c72f4 D _ZN11__sanitizer8pid_t_szE
00000000005c72fc D _ZN11__sanitizer8uid_t_szE
00000000004b2e70 T _ZN11__sanitizer9CheckASLREv
00000000004b38b0 T _ZN11__sanitizer9CloseFileEi
00000000004aa410 T _ZN11__sanitizer9DDetector6CreateEPKNS_7DDFlagsE
00000000004be5d0 T _ZN11__sanitizer9FrameInfo5ClearEv
00000000004b2ee0 T _ZN11__sanitizer9GetRandomEPvmb
00000000004b5110 T _ZN11__sanitizer9IsDecimalEc
00000000004b1250 T _ZN11__sanitizer9LibIgnore15OnLibraryLoadedEPKc
00000000004b11b0 T _ZN11__sanitizer9LibIgnore17AddIgnoredLibraryEPKc
00000000004b17e0 T _ZN11__sanitizer9LibIgnore17OnLibraryUnloadedEv
00000000004b11a0 T _ZN11__sanitizer9LibIgnoreC1ENS_17LinkerInitializedE
00000000004b11a0 T _ZN11__sanitizer9LibIgnoreC2ENS_17LinkerInitializedE
00000000004b3190 T _ZN11__sanitizer9MmapNamedEPvmiiPKc
00000000004b30b0 T _ZN11__sanitizer9MmapOrDieEmPKcb
00000000004b41c0 T _ZN11__sanitizer9VSNPrintfEPciPKcP13__va_list_tag
00000000005c73a4 D _ZN11__sanitizer9map_fixedE
0000000000584944 R _ZN11__sanitizer9true_type5valueE
000000000066f358 b _ZN11__sanitizerL10cache_lockE
000000000066f3c0 b _ZN11__sanitizerL10g_tls_sizeE
000000000066f450 b _ZN11__sanitizerL10old_sigsetE
00000000004b4b40 t _ZN11__sanitizerL12AppendNumberEPPcPKcyhhbbb
00000000004bacb0 t _ZN11__sanitizerL12TracerThreadEPv
00000000004b35a0 t _ZN11__sanitizerL13MmapFixedImplEmmbPKc
000000000066f3d0 b _ZN11__sanitizerL14blocked_sigsetE
000000000066d0e8 b _ZN11__sanitizerL14g_total_mmapedE
0000000000586010 r _ZN11__sanitizerL14kDefaultFormatE
000000000066f398 b _ZN11__sanitizerL15UserDieCallbackE
00000000004b48e0 t _ZN11__sanitizerL16SharedPrintfCodeEbPKcP13__va_list_tag
0000000000e6f938 b _ZN11__sanitizerL16reporting_threadE
0000000000e6f930 b _ZN11__sanitizerL16swift_demangle_fE
00000000004bf590 t _ZN11__sanitizerL17ParseFileLineInfoEPNS_11AddressInfoEPKc
00000000004b9030 t _ZN11__sanitizerL18dl_iterate_phdr_cbEP12dl_phdr_infomPv
000000000066f3a0 b _ZN11__sanitizerL19CheckFailedCallbackE
000000000066f360 b _ZN11__sanitizerL19number_of_live_dtlsE
000000000066f3b8 b _ZN11__sanitizerL19sandboxing_callbackE
000000000066f370 b _ZN11__sanitizerL20InternalDieCallbacksE
00000000004b9d20 t _ZN11__sanitizerL21MaybeInstallSigactionEiPFviPvS0_E
000000000066e0f0 b _ZN11__sanitizerL21binary_name_cache_strE
000000000066f340 b _ZN11__sanitizerL21cached_proc_self_mapsE
000000000065f881 b _ZN11__sanitizerL22internal_alloc_init_muE
000000000066d0f0 b _ZN11__sanitizerL22process_name_cache_strE
000000000066f3c8 b _ZN11__sanitizerL22thread_descriptor_sizeE
000000000066f338 b _ZN11__sanitizerL23PrintfAndReportCallbackE
00000000004bb380 t _ZN11__sanitizerL23TracerThreadDieCallbackEv
000000000065f890 b _ZN11__sanitizerL23allocator_out_of_memoryE
00000000004b4e80 t _ZN11__sanitizerL24SharedPrintfCodeNoBufferEbPciPKcP13__va_list_tag
000000000065f898 b _ZN11__sanitizerL24internal_allocator_cacheE
000000000065f888 b _ZN11__sanitizerL24low_level_alloc_callbackE
00000000004bb3f0 t _ZN11__sanitizerL25TracerThreadSignalHandlerEiPNS_19__sanitizer_siginfoEPv
000000000065f891 b _ZN11__sanitizerL25allocator_may_return_nullE
000000000066f4d0 b _ZN11__sanitizerL25thread_suspender_instanceE
0000000000e6f940 b _ZN11__sanitizerL26CommonSanitizerReportMutexE
00000000005de840 b _ZN11__sanitizerL26internal_alloc_placeholderE
000000000065f892 b _ZN11__sanitizerL27internal_allocator_cache_muE
000000000066f3b0 b _ZN11__sanitizerL28SoftRssLimitExceededCallbackE
00000000005c5290 d _ZN11__sanitizerL29low_level_alloc_min_alignmentE
000000000065f880 b _ZN11__sanitizerL30internal_allocator_initializedE
00000000004a7c60 t _ZN11__sanitizerL34ReportInternalAllocatorOutOfMemoryEm
0000000000000050 b _ZN11__sanitizerL4dtlsE
00000000004b9900 t _ZN11__sanitizerL6setlimEim
000000000066f0f0 b _ZN11__sanitizerL7MFHooksE
000000000066f500 b _ZN11__sanitizerL8theDepotE
0000000000427d20 t _ZN12_GLOBAL__N_112AsanGetStackEmPmjPjb
00000000005d8400 B _ZN14__interception10real__exitE
00000000005d8bf0 B _ZN14__interception10real_atollE
00000000005d86c8 B _ZN14__interception10real_bzeroE
00000000005daba0 B _ZN14__interception10real_cfreeE
00000000005d8b00 B _ZN14__interception10real_cryptE
00000000005d7f48 B _ZN14__interception10real_ctimeE
00000000005d7f00 B _ZN14__interception10real_fgetsE
00000000005d8818 B _ZN14__interception10real_fopenE
00000000005d7f08 B _ZN14__interception10real_fputsE
00000000005d7e98 B _ZN14__interception10real_freadE
00000000005d7e78 B _ZN14__interception10real_frexpE
00000000005d86d0 B _ZN14__interception10real_ftimeE
00000000005d8640 B _ZN14__interception10real_iconvE
00000000005d8b98 B _ZN14__interception10real_indexE
00000000005d8090 B _ZN14__interception10real_ioctlE
00000000005d88a8 B _ZN14__interception10real_mlockE
00000000005d8240 B _ZN14__interception10real_modffE
00000000005d8248 B _ZN14__interception10real_modflE
00000000005d8ae0 B _ZN14__interception10real_popenE
00000000005d8390 B _ZN14__interception10real_ppollE
00000000005d7f18 B _ZN14__interception10real_prctlE
00000000005d7ea0 B _ZN14__interception10real_preadE
00000000005d8b10 B _ZN14__interception10real_qsortE
00000000005d7eb0 B _ZN14__interception10real_readvE
00000000005d7fa8 B _ZN14__interception10real_scanfE
00000000005d8648 B _ZN14__interception10real_timesE
00000000005d8b28 B _ZN14__interception10real_unameE
00000000005d8c00 B _ZN14__interception10real_vforkE
00000000005d8198 B _ZN14__interception10real_wait3E
00000000005d81a0 B _ZN14__interception10real_wait4E
00000000005d7ec8 B _ZN14__interception10real_writeE
00000000005d8228 B _ZN14__interception11real_acceptE
00000000005dabb0 B _ZN14__interception11real_callocE
00000000005d86b0 B _ZN14__interception11real_capgetE
00000000005d86b8 B _ZN14__interception11real_capsetE
00000000005d8880 B _ZN14__interception11real_dlopenE
00000000005d8878 B _ZN14__interception11real_fcloseE
00000000005d8820 B _ZN14__interception11real_fdopenE
00000000005d8870 B _ZN14__interception11real_fflushE
00000000005d7e80 B _ZN14__interception11real_frexpfE
00000000005d7e88 B _ZN14__interception11real_frexplE
00000000005d7fb0 B _ZN14__interception11real_fscanfE
00000000005d7ed0 B _ZN14__interception11real_fwriteE
00000000005d82c8 B _ZN14__interception11real_getcwdE
00000000005d8178 B _ZN14__interception11real_glob64E
00000000005d7f38 B _ZN14__interception11real_gmtimeE
00000000005d85e0 B _ZN14__interception11real_lgammaE
00000000005daba8 B _ZN14__interception11real_mallocE
00000000005d89c8 B _ZN14__interception11real_mcheckE
00000000005d7e68 B _ZN14__interception11real_memchrE
00000000005d7e58 B _ZN14__interception11real_memcmpE
00000000005d7e50 B _ZN14__interception11real_memcpyE
00000000005d7e08 B _ZN14__interception11real_memmemE
00000000005d7e40 B _ZN14__interception11real_memsetE
00000000005d7f68 B _ZN14__interception11real_mktimeE
00000000005d8a68 B _ZN14__interception11real_mmap64E
00000000005d89d8 B _ZN14__interception11real_mprobeE
00000000005d8278 B _ZN14__interception11real_msgrcvE
00000000005d8270 B _ZN14__interception11real_msgsndE
00000000005d8ae8 B _ZN14__interception11real_pcloseE
00000000005d7eb8 B _ZN14__interception11real_preadvE
00000000005d8030 B _ZN14__interception11real_printfE
00000000005d82b8 B _ZN14__interception11real_ptraceE
00000000005d7ed8 B _ZN14__interception11real_pwriteE
00000000005d8620 B _ZN14__interception11real_rand_rE
00000000005d85c8 B _ZN14__interception11real_remquoE
00000000005d8950 B _ZN14__interception11real_sendtoE
00000000005d8aa8 B _ZN14__interception11real_setbufE
00000000005d84b8 B _ZN14__interception11real_shmctlE
00000000005d8b30 B _ZN14__interception11real_signalE
00000000005d85b0 B _ZN14__interception11real_sincosE
00000000005d7fb8 B _ZN14__interception11real_sscanfE
00000000005d8438 B _ZN14__interception11real_statfsE
00000000005d8ba0 B _ZN14__interception11real_strcatE
00000000005d7e10 B _ZN14__interception11real_strchrE
00000000005d7dd0 B _ZN14__interception11real_strcmpE
00000000005d8bb0 B _ZN14__interception11real_strcpyE
00000000005d8bb8 B _ZN14__interception11real_strdupE
00000000005d7da8 B _ZN14__interception11real_strlenE
00000000005d7e28 B _ZN14__interception11real_strspnE
00000000005d7df0 B _ZN14__interception11real_strstrE
00000000005d7e00 B _ZN14__interception11real_strtokE
00000000005d8bd0 B _ZN14__interception11real_strtolE
00000000005d8568 B _ZN14__interception11real_tmpnamE
00000000005dac00 B _ZN14__interception11real_vallocE
00000000005d7f78 B _ZN14__interception11real_vscanfE
00000000005d8188 B _ZN14__interception11real_waitidE
00000000005d89f0 B _ZN14__interception11real_wcscatE
00000000005d8a00 B _ZN14__interception11real_wcsdupE
00000000005d89e0 B _ZN14__interception11real_wcslenE
00000000005d8320 B _ZN14__interception11real_wctombE
00000000005d7ee8 B _ZN14__interception11real_writevE
00000000005d86c0 B _ZN14__interception12real___bzeroE
00000000005d87e8 B _ZN14__interception12real___uflowE
00000000005d8968 B _ZN14__interception12real___xstatE
00000000005d8230 B _ZN14__interception12real_accept4E
00000000005d7f58 B _ZN14__interception12real_asctimeE
00000000005d8340 B _ZN14__interception12real_confstrE
00000000005d8b08 B _ZN14__interception12real_crypt_rE
00000000005d8930 B _ZN14__interception12real_ctermidE
00000000005d7f50 B _ZN14__interception12real_ctime_rE
00000000005d8888 B _ZN14__interception12real_dlcloseE
00000000005d8830 B _ZN14__interception12real_fopen64E
00000000005d8038 B _ZN14__interception12real_fprintfE
00000000005d8828 B _ZN14__interception12real_freopenE
00000000005d8440 B _ZN14__interception12real_fstatfsE
00000000005d8628 B _ZN14__interception12real_getlineE
00000000005d8890 B _ZN14__interception12real_getpassE
00000000005d8990 B _ZN14__interception12real_getutidE
00000000005d85e8 B _ZN14__interception12real_lgammafE
00000000005d85f0 B _ZN14__interception12real_lgammalE
00000000005d8b60 B _ZN14__interception12real_longjmpE
00000000005dabf0 B _ZN14__interception12real_malloptE
00000000005d7e48 B _ZN14__interception12real_memmoveE
00000000005d7e70 B _ZN14__interception12real_memrchrE
00000000005d8918 B _ZN14__interception12real_mincoreE
00000000005d88b0 B _ZN14__interception12real_munlockE
00000000005d8290 B _ZN14__interception12real_opendirE
00000000005d7ea8 B _ZN14__interception12real_pread64E
00000000005d8578 B _ZN14__interception12real_ptsnameE
00000000005dac08 B _ZN14__interception12real_pvallocE
00000000005d7ef0 B _ZN14__interception12real_pwritevE
00000000005d8b18 B _ZN14__interception12real_qsort_rE
00000000005d8298 B _ZN14__interception12real_readdirE
00000000005dabb8 B _ZN14__interception12real_reallocE
00000000005d8250 B _ZN14__interception12real_recvmsgE
00000000005d8ac0 B _ZN14__interception12real_regcompE
00000000005d8ac8 B _ZN14__interception12real_regexecE
00000000005d8ad8 B _ZN14__interception12real_regfreeE
00000000005d85d0 B _ZN14__interception12real_remquofE
00000000005d85d8 B _ZN14__interception12real_remquolE
00000000005d8370 B _ZN14__interception12real_scandirE
00000000005d8260 B _ZN14__interception12real_sendmsgE
00000000005d8aa0 B _ZN14__interception12real_setvbufE
00000000005d83a0 B _ZN14__interception12real_sigwaitE
00000000005d85b8 B _ZN14__interception12real_sincosfE
00000000005d85c0 B _ZN14__interception12real_sincoslE
00000000005d8048 B _ZN14__interception12real_sprintfE
00000000005d8458 B _ZN14__interception12real_statvfsE
00000000005d7e30 B _ZN14__interception12real_strcspnE
00000000005d8ba8 B _ZN14__interception12real_strncatE
00000000005d7dd8 B _ZN14__interception12real_strncmpE
00000000005d8bc8 B _ZN14__interception12real_strncpyE
00000000005d7db8 B _ZN14__interception12real_strndupE
00000000005d7db0 B _ZN14__interception12real_strnlenE
00000000005d7e38 B _ZN14__interception12real_strpbrkE
00000000005d7e20 B _ZN14__interception12real_strrchrE
00000000005d8be8 B _ZN14__interception12real_strtollE
00000000005d8a08 B _ZN14__interception12real_strxfrmE
00000000005d8288 B _ZN14__interception12real_sysinfoE
00000000005d8598 B _ZN14__interception12real_tempnamE
00000000005d87e0 B _ZN14__interception12real_tsearchE
00000000005d8588 B _ZN14__interception12real_ttynameE
00000000005d7f88 B _ZN14__interception12real_vfscanfE
00000000005d7fd8 B _ZN14__interception12real_vprintfE
00000000005d7f80 B _ZN14__interception12real_vsscanfE
00000000005d8190 B _ZN14__interception12real_waitpidE
00000000005d8318 B _ZN14__interception12real_wcrtombE
00000000005d89f8 B _ZN14__interception12real_wcsncatE
00000000005d89e8 B _ZN14__interception12real_wcsnlenE
00000000005d8a20 B _ZN14__interception12real_wcsxfrmE
00000000005d8398 B _ZN14__interception12real_wordexpE
00000000005d86f8 B _ZN14__interception12real_xdr_intE
00000000005d8978 B _ZN14__interception13real___lxstatE
00000000005d8bc0 B _ZN14__interception13real___strdupE
00000000005d8800 B _ZN14__interception13real___wuflowE
00000000005d8b68 B _ZN14__interception13real__longjmpE
00000000005d8068 B _ZN14__interception13real_asprintfE
00000000005d8138 B _ZN14__interception13real_endgrentE
00000000005d8128 B _ZN14__interception13real_endpwentE
00000000005d8850 B _ZN14__interception13real_fmemopenE
00000000005d8460 B _ZN14__interception13real_fstatvfsE
00000000005d8638 B _ZN14__interception13real_getdelimE
00000000005d80e8 B _ZN14__interception13real_getgrentE
00000000005d80b8 B _ZN14__interception13real_getgrgidE
00000000005d80b0 B _ZN14__interception13real_getgrnamE
00000000005d80e0 B _ZN14__interception13real_getpwentE
00000000005d80a0 B _ZN14__interception13real_getpwnamE
00000000005d80a8 B _ZN14__interception13real_getpwuidE
00000000005d8988 B _ZN14__interception13real_getutentE
00000000005d89a8 B _ZN14__interception13real_getutxidE
00000000005d8670 B _ZN14__interception13real_getxattrE
00000000005d7f40 B _ZN14__interception13real_gmtime_rE
00000000005d85f8 B _ZN14__interception13real_lgamma_rE
00000000005dabe8 B _ZN14__interception13real_mallinfoE
00000000005d82e8 B _ZN14__interception13real_mbstowcsE
00000000005dabc8 B _ZN14__interception13real_memalignE
00000000005d88b8 B _ZN14__interception13real_mlockallE
00000000005d8a60 B _ZN14__interception13real_mprotectE
00000000005d7ec0 B _ZN14__interception13real_preadv64E
00000000005d7ee0 B _ZN14__interception13real_pwrite64E
00000000005d84c0 B _ZN14__interception13real_random_rE
00000000005d8a38 B _ZN14__interception13real_readlinkE
00000000005d8330 B _ZN14__interception13real_realpathE
00000000005d8940 B _ZN14__interception13real_recvfromE
00000000005d8258 B _ZN14__interception13real_recvmmsgE
00000000005d8ad0 B _ZN14__interception13real_regerrorE
00000000005d88d0 B _ZN14__interception13real_sem_initE
00000000005d88f8 B _ZN14__interception13real_sem_postE
00000000005d88e0 B _ZN14__interception13real_sem_waitE
00000000005d8268 B _ZN14__interception13real_sendmmsgE
00000000005d8130 B _ZN14__interception13real_setgrentE
00000000005d8120 B _ZN14__interception13real_setpwentE
00000000005d83d0 B _ZN14__interception13real_sigorsetE
00000000005d8058 B _ZN14__interception13real_snprintfE
00000000005d8448 B _ZN14__interception13real_statfs64E
00000000005d8358 B _ZN14__interception13real_strerrorE
00000000005d7f70 B _ZN14__interception13real_strptimeE
00000000005d8570 B _ZN14__interception13real_tmpnam_rE
00000000005d7fe0 B _ZN14__interception13real_vfprintfE
00000000005d7ff8 B _ZN14__interception13real_vsprintfE
00000000005d8300 B _ZN14__interception13real_wcstombsE
00000000005d8788 B _ZN14__interception13real_xdr_boolE
00000000005d8798 B _ZN14__interception13real_xdr_charE
00000000005d8790 B _ZN14__interception13real_xdr_enumE
00000000005d8708 B _ZN14__interception13real_xdr_longE
00000000005d7dc0 B _ZN14__interception14real___strndupE
00000000005d8970 B _ZN14__interception14real___xstat64E
00000000005d7f60 B _ZN14__interception14real_asctime_rE
00000000005d83f0 B _ZN14__interception14real_backtraceE
00000000005d8610 B _ZN14__interception14real_drand48_rE
00000000005d80f8 B _ZN14__interception14real_fgetgrentE
00000000005d80f0 B _ZN14__interception14real_fgetpwentE
00000000005d8680 B _ZN14__interception14real_fgetxattrE
00000000005d8838 B _ZN14__interception14real_freopen64E
00000000005d8450 B _ZN14__interception14real_fstatfs64E
00000000005d8380 B _ZN14__interception14real_getgroupsE
00000000005d8160 B _ZN14__interception14real_getitimerE
00000000005d8428 B _ZN14__interception14real_getmntentE
00000000005d8af8 B _ZN14__interception14real_getrandomE
00000000005d8690 B _ZN14__interception14real_getresgidE
00000000005d8688 B _ZN14__interception14real_getresuidE
00000000005d8998 B _ZN14__interception14real_getutlineE
00000000005d89a0 B _ZN14__interception14real_getutxentE
00000000005d81b8 B _ZN14__interception14real_inet_atonE
00000000005d81a8 B _ZN14__interception14real_inet_ntopE
00000000005d81b0 B _ZN14__interception14real_inet_ptonE
00000000005d8600 B _ZN14__interception14real_lgammaf_rE
00000000005d8608 B _ZN14__interception14real_lgammal_rE
00000000005d8678 B _ZN14__interception14real_lgetxattrE
00000000005d8658 B _ZN14__interception14real_listxattrE
00000000005d7f28 B _ZN14__interception14real_localtimeE
00000000005d8618 B _ZN14__interception14real_lrand48_rE
00000000005d82f0 B _ZN14__interception14real_mbsrtowcsE
00000000005d8580 B _ZN14__interception14real_ptsname_rE
00000000005d7ef8 B _ZN14__interception14real_pwritev64E
00000000005d82a8 B _ZN14__interception14real_readdir64E
00000000005d82a0 B _ZN14__interception14real_readdir_rE
00000000005d8378 B _ZN14__interception14real_scandir64E
00000000005d8ab0 B _ZN14__interception14real_setbufferE
00000000005d8168 B _ZN14__interception14real_setitimerE
00000000005d82c0 B _ZN14__interception14real_setlocaleE
00000000005d8b38 B _ZN14__interception14real_sigactionE
00000000005d83c8 B _ZN14__interception14real_sigandsetE
00000000005d8468 B _ZN14__interception14real_statvfs64E
00000000005d7e18 B _ZN14__interception14real_strchrnulE
00000000005d82d8 B _ZN14__interception14real_strtoimaxE
00000000005d82e0 B _ZN14__interception14real_strtoumaxE
00000000005d8a10 B _ZN14__interception14real_strxfrm_lE
00000000005d8328 B _ZN14__interception14real_tcgetattrE
00000000005d8590 B _ZN14__interception14real_ttyname_rE
00000000005d8008 B _ZN14__interception14real_vasprintfE
00000000005d7fe8 B _ZN14__interception14real_vsnprintfE
00000000005d8308 B _ZN14__interception14real_wcsrtombsE
00000000005d8a28 B _ZN14__interception14real_wcsxfrm_lE
00000000005d87b8 B _ZN14__interception14real_xdr_bytesE
00000000005d87a8 B _ZN14__interception14real_xdr_floatE
00000000005d8718 B _ZN14__interception14real_xdr_hyperE
00000000005d86e8 B _ZN14__interception14real_xdr_shortE
00000000005d8700 B _ZN14__interception14real_xdr_u_intE
00000000005d8630 B _ZN14__interception15real___getdelimE
00000000005d8980 B _ZN14__interception15real___lxstat64E
00000000005d87f8 B _ZN14__interception15real___overflowE
00000000005d8488 B _ZN14__interception15real_ether_atonE
00000000005d84a0 B _ZN14__interception15real_ether_lineE
00000000005d8480 B _ZN14__interception15real_ether_ntoaE
00000000005d8668 B _ZN14__interception15real_flistxattrE
00000000005d8470 B _ZN14__interception15real_fstatvfs64E
00000000005d8108 B _ZN14__interception15real_getgrent_rE
00000000005d80d8 B _ZN14__interception15real_getgrgid_rE
00000000005d80d0 B _ZN14__interception15real_getgrnam_rE
00000000005d81f0 B _ZN14__interception15real_gethostentE
00000000005d8698 B _ZN14__interception15real_getifaddrsE
00000000005d89c0 B _ZN14__interception15real_getloadavgE
00000000005d8100 B _ZN14__interception15real_getpwent_rE
00000000005d80c0 B _ZN14__interception15real_getpwnam_rE
00000000005d80c8 B _ZN14__interception15real_getpwuid_rE
00000000005d8220 B _ZN14__interception15real_getsockoptE
00000000005d89b0 B _ZN14__interception15real_getutxlineE
00000000005d8478 B _ZN14__interception15real_initgroupsE
00000000005d8660 B _ZN14__interception15real_llistxattrE
00000000005d82f8 B _ZN14__interception15real_mbsnrtowcsE
00000000005d88c0 B _ZN14__interception15real_munlockallE
00000000005d89b8 B _ZN14__interception15real_pututxlineE
00000000005d8a40 B _ZN14__interception15real_readlinkatE
00000000005d8ab8 B _ZN14__interception15real_setlinebufE
00000000005d83c0 B _ZN14__interception15real_sigfillsetE
00000000005d8b78 B _ZN14__interception15real_siglongjmpE
00000000005d83d8 B _ZN14__interception15real_sigpendingE
00000000005d7de0 B _ZN14__interception15real_strcasecmpE
00000000005d7df8 B _ZN14__interception15real_strcasestrE
00000000005d8360 B _ZN14__interception15real_strerror_rE
00000000005d7dc8 B _ZN14__interception15real_textdomainE
00000000005d8310 B _ZN14__interception15real_wcsnrtombsE
00000000005d87b0 B _ZN14__interception15real_xdr_doubleE
00000000005d8738 B _ZN14__interception15real_xdr_int8_tE
00000000005d8778 B _ZN14__interception15real_xdr_quad_tE
00000000005d87c0 B _ZN14__interception15real_xdr_stringE
00000000005d87a0 B _ZN14__interception15real_xdr_u_charE
00000000005d8710 B _ZN14__interception15real_xdr_u_longE
00000000005d8b80 B _ZN14__interception16real___cxa_throwE
00000000005d8a18 B _ZN14__interception16real___strxfrm_lE
00000000005d87f0 B _ZN14__interception16real___underflowE
00000000005d8a30 B _ZN14__interception16real___wcsxfrm_lE
00000000005d8810 B _ZN14__interception16real___woverflowE
00000000005d8118 B _ZN14__interception16real_fgetgrent_rE
00000000005d8110 B _ZN14__interception16real_fgetpwent_rE
00000000005d88c8 B _ZN14__interception16real_fopencookieE
00000000005d81c8 B _ZN14__interception16real_getaddrinfoE
00000000005d8430 B _ZN14__interception16real_getmntent_rE
00000000005d81d0 B _ZN14__interception16real_getnameinfoE
00000000005d8280 B _ZN14__interception16real_getpeernameE
00000000005d8a70 B _ZN14__interception16real_getprotoentE
00000000005d81d8 B _ZN14__interception16real_getsocknameE
00000000005d7f30 B _ZN14__interception16real_localtime_rE
00000000005d82b0 B _ZN14__interception16real_readdir64_rE
00000000005d88d8 B _ZN14__interception16real_sem_destroyE
00000000005d88e8 B _ZN14__interception16real_sem_trywaitE
00000000005d8b20 B _ZN14__interception16real_sigaltstackE
00000000005d83b8 B _ZN14__interception16real_sigemptysetE
00000000005d83e0 B _ZN14__interception16real_sigprocmaskE
00000000005d83a8 B _ZN14__interception16real_sigwaitinfoE
00000000005d7de8 B _ZN14__interception16real_strncasecmpE
00000000005d8b50 B _ZN14__interception16real_swapcontextE
00000000005d87d8 B _ZN14__interception16real_xdr_destroyE
00000000005d8748 B _ZN14__interception16real_xdr_int16_tE
00000000005d8758 B _ZN14__interception16real_xdr_int32_tE
00000000005d8768 B _ZN14__interception16real_xdr_int64_tE
00000000005d8720 B _ZN14__interception16real_xdr_u_hyperE
00000000005d86f0 B _ZN14__interception16real_xdr_u_shortE
00000000005d8740 B _ZN14__interception16real_xdr_uint8_tE
00000000004a7a30 T _ZN14__interception17InterceptFunctionEPKcPmmm
00000000004a7a90 T _ZN14__interception17InterceptFunctionEPKcS1_Pmmm
00000000005d8bf8 B _ZN14__interception17real___cxa_atexitE
00000000005d8808 B _ZN14__interception17real___wunderflowE
00000000005d8140 B _ZN14__interception17real_clock_getresE
00000000005d84b0 B _ZN14__interception17real_ether_aton_rE
00000000005d84a8 B _ZN14__interception17real_ether_ntoa_rE
00000000005d8958 B _ZN14__interception17real_eventfd_readE
00000000005d8208 B _ZN14__interception17real_gethostent_rE
00000000005d8af0 B _ZN14__interception17real_getusershellE
00000000005dac10 B _ZN14__interception17real_malloc_statsE
00000000005d8b48 B _ZN14__interception17real_pthread_joinE
00000000005dabc0 B _ZN14__interception17real_reallocarrayE
00000000005d8900 B _ZN14__interception17real_sem_getvalueE
00000000005d83b0 B _ZN14__interception17real_sigtimedwaitE
00000000005d8780 B _ZN14__interception17real_xdr_u_quad_tE
00000000005d8750 B _ZN14__interception17real_xdr_uint16_tE
00000000005d8760 B _ZN14__interception17real_xdr_uint32_tE
00000000005d8770 B _ZN14__interception17real_xdr_uint64_tE
00000000005d8040 B _ZN14__interception18real___fprintf_chkE
00000000005d8b70 B _ZN14__interception18real___longjmp_chkE
00000000005d8050 B _ZN14__interception18real___sprintf_chkE
00000000005dabd8 B _ZN14__interception18real_aligned_allocE
00000000005d8148 B _ZN14__interception18real_clock_gettimeE
00000000005d8150 B _ZN14__interception18real_clock_settimeE
00000000005d8498 B _ZN14__interception18real_ether_hosttonE
00000000005d8490 B _ZN14__interception18real_ether_ntohostE
00000000005d8960 B _ZN14__interception18real_eventfd_writeE
00000000005d81e8 B _ZN14__interception18real_gethostbyaddrE
00000000005d81e0 B _ZN14__interception18real_gethostbynameE
00000000005d8a88 B _ZN14__interception18real_getprotoent_rE
00000000005d88f0 B _ZN14__interception18real_sem_timedwaitE
00000000005d86d8 B _ZN14__interception18real_xdrmem_createE
00000000005d87c8 B _ZN14__interception18real_xdrrec_createE
00000000005d7fc0 B _ZN14__interception19real___isoc99_scanfE
00000000005d8060 B _ZN14__interception19real___snprintf_chkE
00000000005d8650 B _ZN14__interception19real___tls_get_addrE
00000000005d8000 B _ZN14__interception19real___vsprintf_chkE
00000000005d8860 B _ZN14__interception19real__obstack_beginE
00000000005d81f8 B _ZN14__interception19real_gethostbyname2E
00000000005d8a78 B _ZN14__interception19real_getprotobynameE
00000000005d86a0 B _ZN14__interception19real_if_indextonameE
00000000005d86a8 B _ZN14__interception19real_if_nametoindexE
00000000005d8840 B _ZN14__interception19real_open_memstreamE
00000000005dabf8 B _ZN14__interception19real_posix_memalignE
00000000005d8b40 B _ZN14__interception19real_pthread_createE
00000000005d8350 B _ZN14__interception19real_sched_getparamE
00000000005d8728 B _ZN14__interception19real_xdr_longlong_tE
00000000005d7fc8 B _ZN14__interception20real___isoc99_fscanfE
00000000005d8070 B _ZN14__interception20real___isoc99_printfE
00000000005d7fd0 B _ZN14__interception20real___isoc99_sscanfE
00000000005d7f90 B _ZN14__interception20real___isoc99_vscanfE
00000000005dabd0 B _ZN14__interception20real___libc_memalignE
00000000005d7ff0 B _ZN14__interception20real___vsnprintf_chkE
00000000005d8210 B _ZN14__interception20real_gethostbyaddr_rE
00000000005d8200 B _ZN14__interception20real_gethostbyname_rE
00000000005d89d0 B _ZN14__interception20real_mcheck_pedanticE
00000000005d8848 B _ZN14__interception20real_open_wmemstreamE
00000000005d83e8 B _ZN14__interception20real_pthread_sigmaskE
00000000005d88a0 B _ZN14__interception20real_timerfd_gettimeE
00000000005d8898 B _ZN14__interception20real_timerfd_settimeE
00000000005d86e0 B _ZN14__interception20real_xdrstdio_createE
00000000005d8078 B _ZN14__interception21real___isoc99_fprintfE
00000000005d8080 B _ZN14__interception21real___isoc99_sprintfE
00000000005d7fa0 B _ZN14__interception21real___isoc99_vfscanfE
00000000005d8010 B _ZN14__interception21real___isoc99_vprintfE
00000000005d7f98 B _ZN14__interception21real___isoc99_vsscanfE
00000000005d8368 B _ZN14__interception21real___xpg_strerror_rE
00000000005d8858 B _ZN14__interception21real__obstack_begin_1E
00000000005d8218 B _ZN14__interception21real_gethostbyname2_rE
00000000005d8a90 B _ZN14__interception21real_getprotobyname_rE
00000000005d8a80 B _ZN14__interception21real_getprotobynumberE
00000000005d8920 B _ZN14__interception21real_process_vm_readvE
00000000005d8730 B _ZN14__interception21real_xdr_u_longlong_tE
00000000005d8088 B _ZN14__interception22real___isoc99_snprintfE
00000000005d8018 B _ZN14__interception22real___isoc99_vfprintfE
00000000005d8028 B _ZN14__interception22real___isoc99_vsprintfE
00000000005d8868 B _ZN14__interception22real__obstack_newchunkE
00000000005d83f8 B _ZN14__interception22real_backtrace_symbolsE
00000000005d8a48 B _ZN14__interception22real_name_to_handle_atE
00000000005d8a50 B _ZN14__interception22real_open_by_handle_atE
00000000005d8928 B _ZN14__interception22real_process_vm_writevE
00000000005d8348 B _ZN14__interception22real_sched_getaffinityE
00000000005d8020 B _ZN14__interception23real___isoc99_vsnprintfE
00000000005d8a98 B _ZN14__interception23real_getprotobynumber_rE
00000000005dabe0 B _ZN14__interception23real_malloc_usable_sizeE
00000000005d85a8 B _ZN14__interception23real_pthread_getname_npE
00000000005d8408 B _ZN14__interception23real_pthread_mutex_lockE
00000000005d85a0 B _ZN14__interception23real_pthread_setname_npE
00000000005d8158 B _ZN14__interception24real_clock_getcpuclockidE
00000000005d8418 B _ZN14__interception25real___pthread_mutex_lockE
00000000005d82d0 B _ZN14__interception25real_get_current_dir_nameE
00000000005d8410 B _ZN14__interception25real_pthread_mutex_unlockE
00000000005d84d8 B _ZN14__interception26real_pthread_attr_getscopeE
00000000005d84e8 B _ZN14__interception26real_pthread_attr_getstackE
00000000005d81c0 B _ZN14__interception26real_pthread_getschedparamE
00000000005d8910 B _ZN14__interception26real_pthread_setcanceltypeE
00000000005d8b90 B _ZN14__interception27real__Unwind_RaiseExceptionE
00000000005d8420 B _ZN14__interception27real___pthread_mutex_unlockE
00000000005d8338 B _ZN14__interception27real_canonicalize_file_nameE
00000000005d8908 B _ZN14__interception27real_pthread_setcancelstateE
00000000005d84d0 B _ZN14__interception30real_pthread_attr_getguardsizeE
00000000005d84e0 B _ZN14__interception30real_pthread_attr_getstacksizeE
00000000005d8558 B _ZN14__interception30real_pthread_condattr_getclockE
00000000005d8518 B _ZN14__interception30real_pthread_mutexattr_gettypeE
00000000005d84f0 B _ZN14__interception31real_pthread_attr_getschedparamE
00000000005d8508 B _ZN14__interception32real_pthread_attr_getaffinity_npE
00000000005d84c8 B _ZN14__interception32real_pthread_attr_getdetachstateE
00000000005d84f8 B _ZN14__interception32real_pthread_attr_getschedpolicyE
00000000005d8550 B _ZN14__interception32real_pthread_condattr_getpsharedE
00000000005d8530 B _ZN14__interception32real_pthread_mutexattr_getrobustE
00000000005d8500 B _ZN14__interception33real_pthread_attr_getinheritschedE
00000000005d8510 B _ZN14__interception33real_pthread_mutexattr_getpsharedE
00000000005d8520 B _ZN14__interception34real_pthread_mutexattr_getprotocolE
00000000005d8548 B _ZN14__interception34real_pthread_rwlockattr_getkind_npE
00000000005d8540 B _ZN14__interception34real_pthread_rwlockattr_getpsharedE
00000000005d8560 B _ZN14__interception35real_pthread_barrierattr_getpsharedE
00000000005d8538 B _ZN14__interception35real_pthread_mutexattr_getrobust_npE
00000000005d8b88 B _ZN14__interception36real___cxa_rethrow_primary_exceptionE
00000000005d8528 B _ZN14__interception37real_pthread_mutexattr_getprioceilingE
00000000005d8bd8 B _ZN14__interception9real_atoiE
00000000005d8be0 B _ZN14__interception9real_atolE
00000000005d7e60 B _ZN14__interception9real_bcmpE
00000000005dab98 B _ZN14__interception9real_freeE
00000000005d8170 B _ZN14__interception9real_globE
00000000005d8a58 B _ZN14__interception9real_mmapE
00000000005d8238 B _ZN14__interception9real_modfE
00000000005d8388 B _ZN14__interception9real_pollE
00000000005d7f10 B _ZN14__interception9real_putsE
00000000005d7e90 B _ZN14__interception9real_readE
00000000005d8938 B _ZN14__interception9real_recvE
00000000005d8948 B _ZN14__interception9real_sendE
00000000005d7f20 B _ZN14__interception9real_timeE
00000000005d8180 B _ZN14__interception9real_waitE
0000000000520940 W _ZN2ft12KeyValGetterIKNSt7__cxx1112basic_stringIcSt11char_traitsIcESaIcEEES6_E7get_keyERS7_
0000000000553490 W _ZN2ft12KeyValGetterIKNSt7__cxx1112basic_stringIcSt11char_traitsIcESaIcEEEiE7get_keyERKNS_4pairIS7_iEE
00000000005657d0 W _ZN2ft12KeyValGetterIKi8LeakTestIiEE7get_keyERKNS_4pairIS1_S3_EE
000000000056eeb0 W _ZN2ft12KeyValGetterIKiNSt7__cxx1112basic_stringIcSt11char_traitsIcESaIcEEEE7get_keyERKNS_4pairIS1_S7_EE
00000000004dbe00 W _ZN2ft12KeyValGetterIKiiE7get_keyERKNS_4pairIS1_iEE
000000000050f6c0 W _ZN2ft12KeyValGetterIKiiE7get_keyERS1_
0000000000520880 W _ZN2ft12KeyValGetterINSt7__cxx1112basic_stringIcSt11char_traitsIcESaIcEEES6_E7get_keyERKS6_
00000000004f6ff0 W _ZN2ft12KeyValGetterIiiE7get_keyERKNS_4pairIKiiEE
000000000050f640 W _ZN2ft12KeyValGetterIiiE7get_keyERKi
0000000000522160 W _ZN2ft12RBT_iteratorINS_7RB_nodeIKNSt7__cxx1112basic_stringIcSt11char_traitsIcESaIcEEES7_S7_EES8_EC2EPS9_
000000000051eaf0 W _ZN2ft12RBT_iteratorINS_7RB_nodeIKNSt7__cxx1112basic_stringIcSt11char_traitsIcESaIcEEES7_S7_EES8_EC2ERKSA_
0000000000520970 W _ZN2ft12RBT_iteratorINS_7RB_nodeIKNSt7__cxx1112basic_stringIcSt11char_traitsIcESaIcEEES7_S7_EES8_ED0Ev
000000000050a050 W _ZN2ft12RBT_iteratorINS_7RB_nodeIKNSt7__cxx1112basic_stringIcSt11char_traitsIcESaIcEEES7_S7_EES8_ED2Ev
000000000050aed0 W _ZN2ft12RBT_iteratorINS_7RB_nodeIKNSt7__cxx1112basic_stringIcSt11char_traitsIcESaIcEEES7_S7_EES8_EaSERKSA_
0000000000524fc0 W _ZN2ft12RBT_iteratorINS_7RB_nodeIKNSt7__cxx1112basic_stringIcSt11char_traitsIcESaIcEEES7_S7_EES8_EppEi
0000000000525060 W _ZN2ft12RBT_iteratorINS_7RB_nodeIKNSt7__cxx1112basic_stringIcSt11char_traitsIcESaIcEEES7_S7_EES8_EppEv
0000000000510be0 W _ZN2ft12RBT_iteratorINS_7RB_nodeIKiiiEES2_EC2EPS3_
000000000050d8b0 W _ZN2ft12RBT_iteratorINS_7RB_nodeIKiiiEES2_EC2ERKS4_
000000000050f720 W _ZN2ft12RBT_iteratorINS_7RB_nodeIKiiiEES2_ED0Ev
0000000000506ce0 W _ZN2ft12RBT_iteratorINS_7RB_nodeIKiiiEES2_ED2Ev
0000000000507370 W _ZN2ft12RBT_iteratorINS_7RB_nodeIKiiiEES2_EmmEi
0000000000507410 W _ZN2ft12RBT_iteratorINS_7RB_nodeIKiiiEES2_EmmEv
0000000000506c40 W _ZN2ft12RBT_iteratorINS_7RB_nodeIKiiiEES2_EppEi
0000000000506cf0 W _ZN2ft12RBT_iteratorINS_7RB_nodeIKiiiEES2_EppEv
0000000000554d90 W _ZN2ft12RBT_iteratorINS_7RB_nodeINS_4pairIKNSt7__cxx1112basic_stringIcSt11char_traitsIcESaIcEEEiEES9_iEESA_EC2EPSB_
0000000000551700 W _ZN2ft12RBT_iteratorINS_7RB_nodeINS_4pairIKNSt7__cxx1112basic_stringIcSt11char_traitsIcESaIcEEEiEES9_iEESA_EC2ERKSC_
0000000000553560 W _ZN2ft12RBT_iteratorINS_7RB_nodeINS_4pairIKNSt7__cxx1112basic_stringIcSt11char_traitsIcESaIcEEEiEES9_iEESA_ED0Ev
00000000005510e0 W _ZN2ft12RBT_iteratorINS_7RB_nodeINS_4pairIKNSt7__cxx1112basic_stringIcSt11char_traitsIcESaIcEEEiEES9_iEESA_ED2Ev
0000000000558710 W _ZN2ft12RBT_iteratorINS_7RB_nodeINS_4pairIKNSt7__cxx1112basic_stringIcSt11char_traitsIcESaIcEEEiEES9_iEESA_EppEi
00000000005587b0 W _ZN2ft12RBT_iteratorINS_7RB_nodeINS_4pairIKNSt7__cxx1112basic_stringIcSt11char_traitsIcESaIcEEEiEES9_iEESA_EppEv
0000000000567080 W _ZN2ft12RBT_iteratorINS_7RB_nodeINS_4pairIKi8LeakTestIiEEES3_S5_EES6_EC2EPS7_
0000000000563a40 W _ZN2ft12RBT_iteratorINS_7RB_nodeINS_4pairIKi8LeakTestIiEEES3_S5_EES6_EC2ERKS8_
0000000000565890 W _ZN2ft12RBT_iteratorINS_7RB_nodeINS_4pairIKi8LeakTestIiEEES3_S5_EES6_ED0Ev
000000000054bce0 W _ZN2ft12RBT_iteratorINS_7RB_nodeINS_4pairIKi8LeakTestIiEEES3_S5_EES6_ED2Ev
000000000056a640 W _ZN2ft12RBT_iteratorINS_7RB_nodeINS_4pairIKi8LeakTestIiEEES3_S5_EES6_EppEi
000000000056a6e0 W _ZN2ft12RBT_iteratorINS_7RB_nodeINS_4pairIKi8LeakTestIiEEES3_S5_EES6_EppEv
0000000000575e70 W _ZN2ft12RBT_iteratorINS_7RB_nodeINS_4pairIKiNSt7__cxx1112basic_stringIcSt11char_traitsIcESaIcEEEEES3_S9_EEKSA_EC2EPSB_
0000000000575f00 W _ZN2ft12RBT_iteratorINS_7RB_nodeINS_4pairIKiNSt7__cxx1112basic_stringIcSt11char_traitsIcESaIcEEEEES3_S9_EEKSA_ED0Ev
0000000000575e60 W _ZN2ft12RBT_iteratorINS_7RB_nodeINS_4pairIKiNSt7__cxx1112basic_stringIcSt11char_traitsIcESaIcEEEEES3_S9_EEKSA_ED2Ev
00000000005707a0 W _ZN2ft12RBT_iteratorINS_7RB_nodeINS_4pairIKiNSt7__cxx1112basic_stringIcSt11char_traitsIcESaIcEEEEES3_S9_EESA_EC2EPSB_
000000000056d120 W _ZN2ft12RBT_iteratorINS_7RB_nodeINS_4pairIKiNSt7__cxx1112basic_stringIcSt11char_traitsIcESaIcEEEEES3_S9_EESA_EC2ERKSC_
000000000056ef70 W _ZN2ft12RBT_iteratorINS_7RB_nodeINS_4pairIKiNSt7__cxx1112basic_stringIcSt11char_traitsIcESaIcEEEEES3_S9_EESA_ED0Ev
000000000054cf30 W _ZN2ft12RBT_iteratorINS_7RB_nodeINS_4pairIKiNSt7__cxx1112basic_stringIcSt11char_traitsIcESaIcEEEEES3_S9_EESA_ED2Ev
000000000054dfb0 W _ZN2ft12RBT_iteratorINS_7RB_nodeINS_4pairIKiNSt7__cxx1112basic_stringIcSt11char_traitsIcESaIcEEEEES3_S9_EESA_EaSERKSC_
0000000000573930 W _ZN2ft12RBT_iteratorINS_7RB_nodeINS_4pairIKiNSt7__cxx1112basic_stringIcSt11char_traitsIcESaIcEEEEES3_S9_EESA_EppEi
00000000005739d0 W _ZN2ft12RBT_iteratorINS_7RB_nodeINS_4pairIKiNSt7__cxx1112basic_stringIcSt11char_traitsIcESaIcEEEEES3_S9_EESA_EppEv
000000000054ea00 W _ZN2ft12RBT_iteratorINS_7RB_nodeINS_4pairIKiiEES3_iEEKS4_EC2EPS5_
000000000054edc0 W _ZN2ft12RBT_iteratorINS_7RB_nodeINS_4pairIKiiEES3_iEEKS4_EC2ERKS7_
000000000054ea90 W _ZN2ft12RBT_iteratorINS_7RB_nodeINS_4pairIKiiEES3_iEEKS4_ED0Ev
0000000000548140 W _ZN2ft12RBT_iteratorINS_7RB_nodeINS_4pairIKiiEES3_iEEKS4_ED2Ev
00000000005487d0 W _ZN2ft12RBT_iteratorINS_7RB_nodeINS_4pairIKiiEES3_iEEKS4_EmmEi
0000000000548870 W _ZN2ft12RBT_iteratorINS_7RB_nodeINS_4pairIKiiEES3_iEEKS4_EmmEv
00000000005480a0 W _ZN2ft12RBT_iteratorINS_7RB_nodeINS_4pairIKiiEES3_iEEKS4_EppEi
0000000000548150 W _ZN2ft12RBT_iteratorINS_7RB_nodeINS_4pairIKiiEES3_iEEKS4_EppEv
00000000004dd3e0 W _ZN2ft12RBT_iteratorINS_7RB_nodeINS_4pairIKiiEES3_iEES4_EC2EPS5_
00000000004d5de0 W _ZN2ft12RBT_iteratorINS_7RB_nodeINS_4pairIKiiEES3_iEES4_EC2ERKS6_
00000000004dd470 W _ZN2ft12RBT_iteratorINS_7RB_nodeINS_4pairIKiiEES3_iEES4_ED0Ev
00000000004d5ea0 W _ZN2ft12RBT_iteratorINS_7RB_nodeINS_4pairIKiiEES3_iEES4_ED2Ev
0000000000547030 W _ZN2ft12RBT_iteratorINS_7RB_nodeINS_4pairIKiiEES3_iEES4_EmmEi
00000000005470d0 W _ZN2ft12RBT_iteratorINS_7RB_nodeINS_4pairIKiiEES3_iEES4_EmmEv
00000000004d5eb0 W _ZN2ft12RBT_iteratorINS_7RB_nodeINS_4pairIKiiEES3_iEES4_EppEi
00000000004e0260 W _ZN2ft12RBT_iteratorINS_7RB_nodeINS_4pairIKiiEES3_iEES4_EppEv
00000000004fcdb0 W _ZN2ft12RBT_iteratorINS_7RB_nodeINS_4pairIKiiEEiiEEKS4_EC2EPS5_
00000000004fc210 W _ZN2ft12RBT_iteratorINS_7RB_nodeINS_4pairIKiiEEiiEEKS4_EC2ERKS7_
00000000004fc950 W _ZN2ft12RBT_iteratorINS_7RB_nodeINS_4pairIKiiEEiiEEKS4_ED0Ev
00000000004fc050 W _ZN2ft12RBT_iteratorINS_7RB_nodeINS_4pairIKiiEEiiEEKS4_ED2Ev
00000000004fc170 W _ZN2ft12RBT_iteratorINS_7RB_nodeINS_4pairIKiiEEiiEEKS4_EppEi
00000000004fc2d0 W _ZN2ft12RBT_iteratorINS_7RB_nodeINS_4pairIKiiEEiiEEKS4_EppEv
00000000004f8620 W _ZN2ft12RBT_iteratorINS_7RB_nodeINS_4pairIKiiEEiiEES4_EC2EPS5_
00000000004f5260 W _ZN2ft12RBT_iteratorINS_7RB_nodeINS_4pairIKiiEEiiEES4_EC2ERKS6_
00000000004f7160 W _ZN2ft12RBT_iteratorINS_7RB_nodeINS_4pairIKiiEEiiEES4_ED0Ev
00000000004ebfb0 W _ZN2ft12RBT_iteratorINS_7RB_nodeINS_4pairIKiiEEiiEES4_ED2Ev
0000000000513fa0 W _ZN2ft16reverse_iteratorINS_12RBT_iteratorINS_7RB_nodeIKiiiEES3_EEEC2ERKS6_
0000000000513cb0 W _ZN2ft16reverse_iteratorINS_12RBT_iteratorINS_7RB_nodeIKiiiEES3_EEEC2ES5_
0000000000507df0 W _ZN2ft16reverse_iteratorINS_12RBT_iteratorINS_7RB_nodeIKiiiEES3_EEED2Ev
0000000000507e40 W _ZN2ft16reverse_iteratorINS_12RBT_iteratorINS_7RB_nodeIKiiiEES3_EEEmmEi
0000000000507ee0 W _ZN2ft16reverse_iteratorINS_12RBT_iteratorINS_7RB_nodeIKiiiEES3_EEEmmEv
0000000000507d50 W _ZN2ft16reverse_iteratorINS_12RBT_iteratorINS_7RB_nodeIKiiiEES3_EEEppEi
0000000000507e10 W _ZN2ft16reverse_iteratorINS_12RBT_iteratorINS_7RB_nodeIKiiiEES3_EEEppEv
000000000054ee80 W _ZN2ft16reverse_iteratorINS_12RBT_iteratorINS_7RB_nodeINS_4pairIKiiEES4_iEEKS5_EEEC2ERKS9_
0000000000546d30 W _ZN2ft16reverse_iteratorINS_12RBT_iteratorINS_7RB_nodeINS_4pairIKiiEES4_iEEKS5_EEEC2INS1_IS6_S5_EEEERKNS0_IT_EE
0000000000547f40 W _ZN2ft16reverse_iteratorINS_12RBT_iteratorINS_7RB_nodeINS_4pairIKiiEES4_iEEKS5_EEED2Ev
0000000000547f90 W _ZN2ft16reverse_iteratorINS_12RBT_iteratorINS_7RB_nodeINS_4pairIKiiEES4_iEEKS5_EEEmmEi
0000000000548030 W _ZN2ft16reverse_iteratorINS_12RBT_iteratorINS_7RB_nodeINS_4pairIKiiEES4_iEEKS5_EEEmmEv
0000000000547ea0 W _ZN2ft16reverse_iteratorINS_12RBT_iteratorINS_7RB_nodeINS_4pairIKiiEES4_iEEKS5_EEEppEi
0000000000547f60 W _ZN2ft16reverse_iteratorINS_12RBT_iteratorINS_7RB_nodeINS_4pairIKiiEES4_iEEKS5_EEEppEv
000000000054ed90 W _ZN2ft16reverse_iteratorINS_12RBT_iteratorINS_7RB_nodeINS_4pairIKiiEES4_iEES5_EEEC2ERKS8_
000000000054ecb0 W _ZN2ft16reverse_iteratorINS_12RBT_iteratorINS_7RB_nodeINS_4pairIKiiEES4_iEES5_EEEC2ES7_
0000000000546f10 W _ZN2ft16reverse_iteratorINS_12RBT_iteratorINS_7RB_nodeINS_4pairIKiiEES4_iEES5_EEED2Ev
0000000000547ae0 W _ZN2ft16reverse_iteratorINS_12RBT_iteratorINS_7RB_nodeINS_4pairIKiiEES4_iEES5_EEEmmEi
0000000000547b80 W _ZN2ft16reverse_iteratorINS_12RBT_iteratorINS_7RB_nodeINS_4pairIKiiEES4_iEES5_EEEmmEv
0000000000547a10 W _ZN2ft16reverse_iteratorINS_12RBT_iteratorINS_7RB_nodeINS_4pairIKiiEES4_iEES5_EEEppEi
0000000000547ab0 W _ZN2ft16reverse_iteratorINS_12RBT_iteratorINS_7RB_nodeINS_4pairIKiiEES4_iEES5_EEEppEv
000000000053d490 W _ZN2ft16reverse_iteratorINS_22random_access_iteratorIcEEEC2ERKS3_
000000000053d3f0 W _ZN2ft16reverse_iteratorINS_22random_access_iteratorIcEEEC2ES2_
0000000000538b30 W _ZN2ft16reverse_iteratorINS_22random_access_iteratorIcEEED2Ev
0000000000538de0 W _ZN2ft16reverse_iteratorINS_22random_access_iteratorIcEEEmmEv
0000000000538d40 W _ZN2ft16reverse_iteratorINS_22random_access_iteratorIcEEEppEi
00000000004e5360 W _ZN2ft22random_access_iteratorI8LeakTestIiEEC2EPS2_
00000000004e4640 W _ZN2ft22random_access_iteratorI8LeakTestIiEEC2ERKS3_
00000000004e5310 W _ZN2ft22random_access_iteratorI8LeakTestIiEED0Ev
00000000004e37e0 W _ZN2ft22random_access_iteratorI8LeakTestIiEED2Ev
00000000004e5280 W _ZN2ft22random_access_iteratorI8LeakTestIiEEppEi
00000000004e53f0 W _ZN2ft22random_access_iteratorIK8LeakTestIiEEC2EPS3_
00000000004e5070 W _ZN2ft22random_access_iteratorIK8LeakTestIiEEC2ERKS4_
00000000004e5130 W _ZN2ft22random_access_iteratorIK8LeakTestIiEED0Ev
00000000004e37d0 W _ZN2ft22random_access_iteratorIK8LeakTestIiEED2Ev
00000000004e3a70 W _ZN2ft22random_access_iteratorIK8LeakTestIiEEppEi
000000000053b560 W _ZN2ft22random_access_iteratorIKNS_6vectorI8LeakTestIiESaIS3_EEEEC2EPS6_
000000000053b1e0 W _ZN2ft22random_access_iteratorIKNS_6vectorI8LeakTestIiESaIS3_EEEEC2ERKS7_
000000000053b2a0 W _ZN2ft22random_access_iteratorIKNS_6vectorI8LeakTestIiESaIS3_EEEED0Ev
0000000000539c10 W _ZN2ft22random_access_iteratorIKNS_6vectorI8LeakTestIiESaIS3_EEEED2Ev
0000000000539eb0 W _ZN2ft22random_access_iteratorIKNS_6vectorI8LeakTestIiESaIS3_EEEEppEi
00000000004e7c40 W _ZN2ft22random_access_iteratorIKNSt7__cxx1112basic_stringIcSt11char_traitsIcESaIcEEEEC2EPS7_
00000000004e78c0 W _ZN2ft22random_access_iteratorIKNSt7__cxx1112basic_stringIcSt11char_traitsIcESaIcEEEEC2ERKS8_
00000000004e7980 W _ZN2ft22random_access_iteratorIKNSt7__cxx1112basic_stringIcSt11char_traitsIcESaIcEEEED0Ev
00000000004e6270 W _ZN2ft22random_access_iteratorIKNSt7__cxx1112basic_stringIcSt11char_traitsIcESaIcEEEED2Ev
00000000004e6510 W _ZN2ft22random_access_iteratorIKNSt7__cxx1112basic_stringIcSt11char_traitsIcESaIcEEEEppEi
00000000004ff600 W _ZN2ft22random_access_iteratorIKcEC2EPS1_
00000000004ff3d0 W _ZN2ft22random_access_iteratorIKcEC2ERKS2_
00000000004ff490 W _ZN2ft22random_access_iteratorIKcED0Ev
00000000004fdd50 W _ZN2ft22random_access_iteratorIKcED2Ev
00000000004fdfe0 W _ZN2ft22random_access_iteratorIKcEppEi
00000000004ee650 W _ZN2ft22random_access_iteratorIKiEC2EPS1_
00000000004ee2d0 W _ZN2ft22random_access_iteratorIKiEC2ERKS2_
00000000004ee390 W _ZN2ft22random_access_iteratorIKiED0Ev
00000000004ecc10 W _ZN2ft22random_access_iteratorIKiED2Ev
00000000005384a0 W _ZN2ft22random_access_iteratorIKiEmmEi
0000000000538270 W _ZN2ft22random_access_iteratorIKiEmmEv
00000000004eceb0 W _ZN2ft22random_access_iteratorIKiEppEi
00000000004d8150 W _ZN2ft22random_access_iteratorIKlEC2EPS1_
00000000004d8040 W _ZN2ft22random_access_iteratorIKlEC2ERKS2_
00000000004d8100 W _ZN2ft22random_access_iteratorIKlED0Ev
00000000004d7ee0 W _ZN2ft22random_access_iteratorIKlED2Ev
00000000004d7fb0 W _ZN2ft22random_access_iteratorIKlEppEi
000000000053b4d0 W _ZN2ft22random_access_iteratorINS_6vectorI8LeakTestIiESaIS3_EEEEC2EPS5_
000000000053aa80 W _ZN2ft22random_access_iteratorINS_6vectorI8LeakTestIiESaIS3_EEEEC2ERKS6_
000000000053b480 W _ZN2ft22random_access_iteratorINS_6vectorI8LeakTestIiESaIS3_EEEED0Ev
0000000000539c20 W _ZN2ft22random_access_iteratorINS_6vectorI8LeakTestIiESaIS3_EEEED2Ev
000000000053b3f0 W _ZN2ft22random_access_iteratorINS_6vectorI8LeakTestIiESaIS3_EEEEppEi
00000000004e7bb0 W _ZN2ft22random_access_iteratorINSt7__cxx1112basic_stringIcSt11char_traitsIcESaIcEEEEC2EPS6_
00000000004e70f0 W _ZN2ft22random_access_iteratorINSt7__cxx1112basic_stringIcSt11char_traitsIcESaIcEEEEC2ERKS7_
00000000004e7b60 W _ZN2ft22random_access_iteratorINSt7__cxx1112basic_stringIcSt11char_traitsIcESaIcEEEED0Ev
00000000004e6280 W _ZN2ft22random_access_iteratorINSt7__cxx1112basic_stringIcSt11char_traitsIcESaIcEEEED2Ev
00000000004e7ad0 W _ZN2ft22random_access_iteratorINSt7__cxx1112basic_stringIcSt11char_traitsIcESaIcEEEEppEi
00000000004ff570 W _ZN2ft22random_access_iteratorIcEC2EPc
00000000004feb90 W _ZN2ft22random_access_iteratorIcEC2ERKS1_
00000000004ff520 W _ZN2ft22random_access_iteratorIcED0Ev
00000000004ebe70 W _ZN2ft22random_access_iteratorIcED2Ev
000000000053d440 W _ZN2ft22random_access_iteratorIcEmmEv
00000000004ebec0 W _ZN2ft22random_access_iteratorIcEppEi
000000000053d4c0 W _ZN2ft22random_access_iteratorIcEppEv
00000000004ee5c0 W _ZN2ft22random_access_iteratorIiEC2EPi
00000000004eda80 W _ZN2ft22random_access_iteratorIiEC2ERKS1_
00000000004ee570 W _ZN2ft22random_access_iteratorIiED0Ev
00000000004ecc20 W _ZN2ft22random_access_iteratorIiED2Ev
0000000000538450 W _ZN2ft22random_access_iteratorIiEixEl
0000000000538220 W _ZN2ft22random_access_iteratorIiEmmEv
00000000005383f0 W _ZN2ft22random_access_iteratorIiEpLEl
00000000004ee4e0 W _ZN2ft22random_access_iteratorIiEppEi
00000000004d6ad0 W _ZN2ft22random_access_iteratorIlEC2EPl
00000000004d6db0 W _ZN2ft22random_access_iteratorIlEC2ERKS1_
00000000004d6b60 W _ZN2ft22random_access_iteratorIlED0Ev
00000000004d3950 W _ZN2ft22random_access_iteratorIlED2Ev
00000000004d6cb0 W _ZN2ft22random_access_iteratorIlEppEi
00000000005586e0 W _ZN2ft3mapIKNSt7__cxx1112basic_stringIcSt11char_traitsIcESaIcEEEiSt4lessIS7_ESaINS_4pairIS7_iEEEE3endEv
00000000005552e0 W _ZN2ft3mapIKNSt7__cxx1112basic_stringIcSt11char_traitsIcESaIcEEEiSt4lessIS7_ESaINS_4pairIS7_iEEEE4findERS7_
0000000000558630 W _ZN2ft3mapIKNSt7__cxx1112basic_stringIcSt11char_traitsIcESaIcEEEiSt4lessIS7_ESaINS_4pairIS7_iEEEE5beginEv
0000000000555030 W _ZN2ft3mapIKNSt7__cxx1112basic_stringIcSt11char_traitsIcESaIcEEEiSt4lessIS7_ESaINS_4pairIS7_iEEEE6insertERKSB_
0000000000549640 W _ZN2ft3mapIKNSt7__cxx1112basic_stringIcSt11char_traitsIcESaIcEEEiSt4lessIS7_ESaINS_4pairIS7_iEEEEC2ERKS9_RKSaINS_7RB_nodeISB_S7_iEEE
0000000000549fa0 W _ZN2ft3mapIKNSt7__cxx1112basic_stringIcSt11char_traitsIcESaIcEEEiSt4lessIS7_ESaINS_4pairIS7_iEEEED2Ev
0000000000549730 W _ZN2ft3mapIKNSt7__cxx1112basic_stringIcSt11char_traitsIcESaIcEEEiSt4lessIS7_ESaINS_4pairIS7_iEEEEixERS7_
000000000054bcf0 W _ZN2ft3mapIKi8LeakTestIiESt4lessIS1_ESaINS_4pairIS1_S3_EEEE3endEv
000000000054bca0 W _ZN2ft3mapIKi8LeakTestIiESt4lessIS1_ESaINS_4pairIS1_S3_EEEE4findERS1_
000000000054bc70 W _ZN2ft3mapIKi8LeakTestIiESt4lessIS1_ESaINS_4pairIS1_S3_EEEE5beginEv
000000000054bd20 W _ZN2ft3mapIKi8LeakTestIiESt4lessIS1_ESaINS_4pairIS1_S3_EEEE5clearEv
000000000056a470 W _ZN2ft3mapIKi8LeakTestIiESt4lessIS1_ESaINS_4pairIS1_S3_EEEE5eraseENS_12RBT_iteratorINS_7RB_nodeIS7_S1_S3_EES7_EE
000000000054ba70 W _ZN2ft3mapIKi8LeakTestIiESt4lessIS1_ESaINS_4pairIS1_S3_EEEE5eraseENS_12RBT_iteratorINS_7RB_nodeIS7_S1_S3_EES7_EESD_
000000000054b700 W _ZN2ft3mapIKi8LeakTestIiESt4lessIS1_ESaINS_4pairIS1_S3_EEEE6insertERKS7_
000000000054b6b0 W _ZN2ft3mapIKi8LeakTestIiESt4lessIS1_ESaINS_4pairIS1_S3_EEEEC2ERKS5_RKSaINS_7RB_nodeIS7_S1_S3_EEE
000000000054bd40 W _ZN2ft3mapIKi8LeakTestIiESt4lessIS1_ESaINS_4pairIS1_S3_EEEED2Ev
000000000054e090 W _ZN2ft3mapIKiNSt7__cxx1112basic_stringIcSt11char_traitsIcESaIcEEESt4lessIS1_ESaINS_4pairIS1_S7_EEEE11lower_boundERS1_
000000000054e0d0 W _ZN2ft3mapIKiNSt7__cxx1112basic_stringIcSt11char_traitsIcESaIcEEESt4lessIS1_ESaINS_4pairIS1_S7_EEEE11upper_boundERS1_
000000000054df80 W _ZN2ft3mapIKiNSt7__cxx1112basic_stringIcSt11char_traitsIcESaIcEEESt4lessIS1_ESaINS_4pairIS1_S7_EEEE3endEv
000000000054dd90 W _ZN2ft3mapIKiNSt7__cxx1112basic_stringIcSt11char_traitsIcESaIcEEESt4lessIS1_ESaINS_4pairIS1_S7_EEEE4findERS1_
000000000054ddd0 W _ZN2ft3mapIKiNSt7__cxx1112basic_stringIcSt11char_traitsIcESaIcEEESt4lessIS1_ESaINS_4pairIS1_S7_EEEE4swapERSD_
000000000054cf00 W _ZN2ft3mapIKiNSt7__cxx1112basic_stringIcSt11char_traitsIcESaIcEEESt4lessIS1_ESaINS_4pairIS1_S7_EEEE5beginEv
000000000054de00 W _ZN2ft3mapIKiNSt7__cxx1112basic_stringIcSt11char_traitsIcESaIcEEESt4lessIS1_ESaINS_4pairIS1_S7_EEEE5clearEv
000000000054d640 W _ZN2ft3mapIKiNSt7__cxx1112basic_stringIcSt11char_traitsIcESaIcEEESt4lessIS1_ESaINS_4pairIS1_S7_EEEE5eraseENS_12RBT_iteratorINS_7RB_nodeISB_S1_S7_EESB_EE
000000000054db90 W _ZN2ft3mapIKiNSt7__cxx1112basic_stringIcSt11char_traitsIcESaIcEEESt4lessIS1_ESaINS_4pairIS1_S7_EEEE5eraseENS_12RBT_iteratorINS_7RB_nodeISB_S1_S7_EESB_EESH_
000000000054d810 W _ZN2ft3mapIKiNSt7__cxx1112basic_stringIcSt11char_traitsIcESaIcEEESt4lessIS1_ESaINS_4pairIS1_S7_EEEE5eraseERS1_
000000000054ccc0 W _ZN2ft3mapIKiNSt7__cxx1112basic_stringIcSt11char_traitsIcESaIcEEESt4lessIS1_ESaINS_4pairIS1_S7_EEEE6insertENS_12RBT_iteratorINS_7RB_nodeISB_S1_S7_EESB_EERKSB_
000000000054c260 W _ZN2ft3mapIKiNSt7__cxx1112basic_stringIcSt11char_traitsIcESaIcEEESt4lessIS1_ESaINS_4pairIS1_S7_EEEE6insertERKSB_
000000000054d0f0 W _ZN2ft3mapIKiNSt7__cxx1112basic_stringIcSt11char_traitsIcESaIcEEESt4lessIS1_ESaINS_4pairIS1_S7_EEEE6insertISt14_List_iteratorISB_EEEvT_SH_
000000000054bd80 W _ZN2ft3mapIKiNSt7__cxx1112basic_stringIcSt11char_traitsIcESaIcEEESt4lessIS1_ESaINS_4pairIS1_S7_EEEEC2ERKS9_RKSaINS_7RB_nodeISB_S1_S7_EEE
000000000054dec0 W _ZN2ft3mapIKiNSt7__cxx1112basic_stringIcSt11char_traitsIcESaIcEEESt4lessIS1_ESaINS_4pairIS1_S7_EEEED2Ev
000000000054bdd0 W _ZN2ft3mapIKiNSt7__cxx1112basic_stringIcSt11char_traitsIcESaIcEEESt4lessIS1_ESaINS_4pairIS1_S7_EEEEixERS1_
0000000000548fc0 W _ZN2ft3mapIKiiSt4lessIS1_ESaINS_4pairIS1_iEEEE3endEv
00000000004d61f0 W _ZN2ft3mapIKiiSt4lessIS1_ESaINS_4pairIS1_iEEEE4findERS1_
0000000000549250 W _ZN2ft3mapIKiiSt4lessIS1_ESaINS_4pairIS1_iEEEE4rendEv
00000000004d5ba0 W _ZN2ft3mapIKiiSt4lessIS1_ESaINS_4pairIS1_iEEEE5beginEv
00000000004d5c10 W _ZN2ft3mapIKiiSt4lessIS1_ESaINS_4pairIS1_iEEEE5eraseENS_12RBT_iteratorINS_7RB_nodeIS5_S1_iEES5_EE
00000000004d5ff0 W _ZN2ft3mapIKiiSt4lessIS1_ESaINS_4pairIS1_iEEEE5eraseENS_12RBT_iteratorINS_7RB_nodeIS5_S1_iEES5_EESB_
00000000004d5790 W _ZN2ft3mapIKiiSt4lessIS1_ESaINS_4pairIS1_iEEEE6insertERKS5_
00000000005614a0 W _ZN2ft3mapIKiiSt4lessIS1_ESaINS_4pairIS1_iEEEE6insertINS_12RBT_iteratorINS_7RB_nodeIS5_S1_iEEKS5_EEEEvT_SE_
00000000005602a0 W _ZN2ft3mapIKiiSt4lessIS1_ESaINS_4pairIS1_iEEEE6insertINS_12RBT_iteratorINS_7RB_nodeIS5_S1_iEES5_EEEEvT_SD_
0000000000546d00 W _ZN2ft3mapIKiiSt4lessIS1_ESaINS_4pairIS1_iEEEE6rbeginEv
00000000004d5740 W _ZN2ft3mapIKiiSt4lessIS1_ESaINS_4pairIS1_iEEEEC2ERKS3_RKSaINS_7RB_nodeIS5_S1_iEEE
000000000054b2f0 W _ZN2ft3mapIKiiSt4lessIS1_ESaINS_4pairIS1_iEEEEC2ERKS7_
000000000054a4b0 W _ZN2ft3mapIKiiSt4lessIS1_ESaINS_4pairIS1_iEEEEC2INS_12RBT_iteratorINS_7RB_nodeIS5_S1_iEES5_EEEET_SD_RKS3_RKSaISB_E
00000000004d6230 W _ZN2ft3mapIKiiSt4lessIS1_ESaINS_4pairIS1_iEEEED2Ev
000000000054a480 W _ZN2ft3mapIKiiSt7greaterIS1_ESaINS_4pairIS1_iEEEE3endEv
000000000054a450 W _ZN2ft3mapIKiiSt7greaterIS1_ESaINS_4pairIS1_iEEEE5beginEv
0000000000549ff0 W _ZN2ft3mapIKiiSt7greaterIS1_ESaINS_4pairIS1_iEEEE6insertERKS5_
0000000000561060 W _ZN2ft3mapIKiiSt7greaterIS1_ESaINS_4pairIS1_iEEEE6insertINS_12RBT_iteratorINS_7RB_nodeIS5_S1_iEEKS5_EEEEvT_SE_
0000000000560af0 W _ZN2ft3mapIKiiSt7greaterIS1_ESaINS_4pairIS1_iEEEE6insertISt14_List_iteratorIS5_EEEvT_SB_
0000000000549fc0 W _ZN2ft3mapIKiiSt7greaterIS1_ESaINS_4pairIS1_iEEEEC2ERKS3_RKSaINS_7RB_nodeIS5_S1_iEEE
000000000054af90 W _ZN2ft3mapIKiiSt7greaterIS1_ESaINS_4pairIS1_iEEEEC2ERKS7_
000000000054abe0 W _ZN2ft3mapIKiiSt7greaterIS1_ESaINS_4pairIS1_iEEEEC2ISt14_List_iteratorIS5_EEET_SB_RKS3_RKSaINS_7RB_nodeIS5_S1_iEEE
000000000054b650 W _ZN2ft3mapIKiiSt7greaterIS1_ESaINS_4pairIS1_iEEEED2Ev
00000000004fb9c0 W _ZN2ft3mapIiiSt4lessIiESaINS_4pairIKiiEEEE4findERS4_
00000000004eb2a0 W _ZN2ft3mapIiiSt4lessIiESaINS_4pairIKiiEEEE6insertERKS5_
00000000004fbe40 W _ZN2ft3mapIiiSt4lessIiESaINS_4pairIKiiEEEE6insertINS_12RBT_iteratorINS_7RB_nodeIS5_iiEEKS5_EEEEvT_SE_
00000000004ea6e0 W _ZN2ft3mapIiiSt4lessIiESaINS_4pairIKiiEEEEC2ERKS2_RKSaINS_7RB_nodeIS5_iiEEE
00000000004eb760 W _ZN2ft3mapIiiSt4lessIiESaINS_4pairIKiiEEEEC2ERKS7_
00000000004ebac0 W _ZN2ft3mapIiiSt4lessIiESaINS_4pairIKiiEEEED2Ev
00000000004eb300 W _ZN2ft3mapIiiSt4lessIiESaINS_4pairIKiiEEEEixERS4_
000000000050afb0 W _ZN2ft3setINSt7__cxx1112basic_stringIcSt11char_traitsIcESaIcEEESt4lessIS6_ESaIS6_EE11lower_boundERKS6_
000000000050aff0 W _ZN2ft3setINSt7__cxx1112basic_stringIcSt11char_traitsIcESaIcEEESt4lessIS6_ESaIS6_EE11upper_boundERKS6_
000000000050aea0 W _ZN2ft3setINSt7__cxx1112basic_stringIcSt11char_traitsIcESaIcEEESt4lessIS6_ESaIS6_EE3endEv
000000000050ade0 W _ZN2ft3setINSt7__cxx1112basic_stringIcSt11char_traitsIcESaIcEEESt4lessIS6_ESaIS6_EE4findERKS6_
000000000050acb0 W _ZN2ft3setINSt7__cxx1112basic_stringIcSt11char_traitsIcESaIcEEESt4lessIS6_ESaIS6_EE4swapERSA_
000000000050a020 W _ZN2ft3setINSt7__cxx1112basic_stringIcSt11char_traitsIcESaIcEEESt4lessIS6_ESaIS6_EE5beginEv
000000000050ace0 W _ZN2ft3setINSt7__cxx1112basic_stringIcSt11char_traitsIcESaIcEEESt4lessIS6_ESaIS6_EE5clearEv
000000000050a760 W _ZN2ft3setINSt7__cxx1112basic_stringIcSt11char_traitsIcESaIcEEESt4lessIS6_ESaIS6_EE5eraseENS_12RBT_iteratorINS_7RB_nodeIKS6_S6_S6_EESD_EE
000000000050a930 W _ZN2ft3setINSt7__cxx1112basic_stringIcSt11char_traitsIcESaIcEEESt4lessIS6_ESaIS6_EE5eraseERKS6_
0000000000509de0 W _ZN2ft3setINSt7__cxx1112basic_stringIcSt11char_traitsIcESaIcEEESt4lessIS6_ESaIS6_EE6insertENS_12RBT_iteratorINS_7RB_nodeIKS6_S6_S6_EESD_EERSD_
0000000000509900 W _ZN2ft3setINSt7__cxx1112basic_stringIcSt11char_traitsIcESaIcEEESt4lessIS6_ESaIS6_EE6insertERKS6_
000000000050a210 W _ZN2ft3setINSt7__cxx1112basic_stringIcSt11char_traitsIcESaIcEEESt4lessIS6_ESaIS6_EE6insertISt14_List_iteratorIS6_EEEvT_SE_
00000000005098b0 W _ZN2ft3setINSt7__cxx1112basic_stringIcSt11char_traitsIcESaIcEEESt4lessIS6_ESaIS6_EEC2ERKS8_RKSaINS_7RB_nodeIKS6_S6_S6_EEE
000000000050ada0 W _ZN2ft3setINSt7__cxx1112basic_stringIcSt11char_traitsIcESaIcEEESt4lessIS6_ESaIS6_EED2Ev
0000000000507f90 W _ZN2ft3setIiSt4lessIiESaIiEE3endEv
0000000000508220 W _ZN2ft3setIiSt4lessIiESaIiEE4rendEv
0000000000506b60 W _ZN2ft3setIiSt4lessIiESaIiEE5beginEv
0000000000506760 W _ZN2ft3setIiSt4lessIiESaIiEE6insertERKi
000000000051b450 W _ZN2ft3setIiSt4lessIiESaIiEE6insertINS_12RBT_iteratorINS_7RB_nodeIKiiiEES8_EEEEvT_SB_
0000000000506b90 W _ZN2ft3setIiSt4lessIiESaIiEE6rbeginEv
0000000000506670 W _ZN2ft3setIiSt4lessIiESaIiEEC2ERKS2_RKSaINS_7RB_nodeIKiiiEEE
00000000005094f0 W _ZN2ft3setIiSt4lessIiESaIiEEC2ERKS4_
00000000005086b0 W _ZN2ft3setIiSt4lessIiESaIiEEC2INS_12RBT_iteratorINS_7RB_nodeIKiiiEES8_EEEET_SB_RKS2_RKSaIS9_E
0000000000508250 W _ZN2ft3setIiSt4lessIiESaIiEED2Ev
0000000000508680 W _ZN2ft3setIiSt7greaterIiESaIiEE3endEv
0000000000508650 W _ZN2ft3setIiSt7greaterIiESaIiEE5beginEv
00000000005082a0 W _ZN2ft3setIiSt7greaterIiESaIiEE6insertERKi
000000000051c2b0 W _ZN2ft3setIiSt7greaterIiESaIiEE6insertINS_12RBT_iteratorINS_7RB_nodeIKiiiEES8_EEEEvT_SB_
000000000051bd40 W _ZN2ft3setIiSt7greaterIiESaIiEE6insertISt14_List_iteratorIiEEEvT_S8_
0000000000508270 W _ZN2ft3setIiSt7greaterIiESaIiEEC2ERKS2_RKSaINS_7RB_nodeIKiiiEEE
0000000000509190 W _ZN2ft3setIiSt7greaterIiESaIiEEC2ERKS4_
0000000000508de0 W _ZN2ft3setIiSt7greaterIiESaIiEEC2ISt14_List_iteratorIiEEET_S8_RKS2_RKSaINS_7RB_nodeIKiiiEEE
0000000000509850 W _ZN2ft3setIiSt7greaterIiESaIiEED2Ev
0000000000550470 W _ZN2ft4pairIKNSt7__cxx1112basic_stringIcSt11char_traitsIcESaIcEEEiEC2ERKS8_
000000000054fca0 W _ZN2ft4pairIKNSt7__cxx1112basic_stringIcSt11char_traitsIcESaIcEEEiEC2Ev
00000000005551e0 W _ZN2ft4pairIKNSt7__cxx1112basic_stringIcSt11char_traitsIcESaIcEEEiEC2IS6_iEERKNS0_IT_T0_EE
000000000054fe80 W _ZN2ft4pairIKNSt7__cxx1112basic_stringIcSt11char_traitsIcESaIcEEEiED2Ev
0000000000562920 W _ZN2ft4pairIKi8LeakTestIiEEC2ERKS4_
0000000000562170 W _ZN2ft4pairIKi8LeakTestIiEEC2Ev
000000000054b8b0 W _ZN2ft4pairIKi8LeakTestIiEEC2IiS3_EERKNS0_IT_T0_EE
000000000054b990 W _ZN2ft4pairIKi8LeakTestIiEED2Ev
000000000056c070 W _ZN2ft4pairIKiNSt7__cxx1112basic_stringIcSt11char_traitsIcESaIcEEEEC2ERKS8_
000000000056b8c0 W _ZN2ft4pairIKiNSt7__cxx1112basic_stringIcSt11char_traitsIcESaIcEEEEC2Ev
000000000054c4a0 W _ZN2ft4pairIKiNSt7__cxx1112basic_stringIcSt11char_traitsIcESaIcEEEEC2IiPKcEERKNS0_IT_T0_EE
00000000005709a0 W _ZN2ft4pairIKiNSt7__cxx1112basic_stringIcSt11char_traitsIcESaIcEEEEC2IiS7_EERKNS0_IT_T0_EE
000000000054c740 W _ZN2ft4pairIKiNSt7__cxx1112basic_stringIcSt11char_traitsIcESaIcEEEED2Ev
00000000004d89f0 W _ZN2ft4pairIKiiEC2Ev
00000000004d5a40 W _ZN2ft4pairIKiiEC2IiiEERKNS0_IT_T0_EE
0000000000523560 W _ZN2ft4pairINS_12RBT_iteratorINS_7RB_nodeIKNSt7__cxx1112basic_stringIcSt11char_traitsIcESaIcEEES8_S8_EES9_EEbEC2ERKSB_RKb
0000000000523140 W _ZN2ft4pairINS_12RBT_iteratorINS_7RB_nodeIKNSt7__cxx1112basic_stringIcSt11char_traitsIcESaIcEEES8_S8_EES9_EEbEC2IPSA_bEERKNS0_IT_T0_EE
0000000000509940 W _ZN2ft4pairINS_12RBT_iteratorINS_7RB_nodeIKNSt7__cxx1112basic_stringIcSt11char_traitsIcESaIcEEES8_S8_EES9_EEbED2Ev
0000000000509d10 W _ZN2ft4pairINS_12RBT_iteratorINS_7RB_nodeIKNSt7__cxx1112basic_stringIcSt11char_traitsIcESaIcEEES8_S8_EES9_EEbEaSERKSC_
0000000000512100 W _ZN2ft4pairINS_12RBT_iteratorINS_7RB_nodeIKiiiEES3_EEbEC2ERKS5_RKb
0000000000511ce0 W _ZN2ft4pairINS_12RBT_iteratorINS_7RB_nodeIKiiiEES3_EEbEC2IPS4_bEERKNS0_IT_T0_EE
00000000005067a0 W _ZN2ft4pairINS_12RBT_iteratorINS_7RB_nodeIKiiiEES3_EEbED2Ev
00000000005566d0 W _ZN2ft4pairINS_12RBT_iteratorINS_7RB_nodeINS0_IKNSt7__cxx1112basic_stringIcSt11char_traitsIcESaIcEEEiEES9_iEESA_EEbEC2ERKSC_RKb
00000000005562b0 W _ZN2ft4pairINS_12RBT_iteratorINS_7RB_nodeINS0_IKNSt7__cxx1112basic_stringIcSt11char_traitsIcESaIcEEEiEES9_iEESA_EEbEC2IPSB_bEERKNS0_IT_T0_EE
00000000005552a0 W _ZN2ft4pairINS_12RBT_iteratorINS_7RB_nodeINS0_IKNSt7__cxx1112basic_stringIcSt11char_traitsIcESaIcEEEiEES9_iEESA_EEbED2Ev
0000000000568450 W _ZN2ft4pairINS_12RBT_iteratorINS_7RB_nodeINS0_IKi8LeakTestIiEEES3_S5_EES6_EEbEC2ERKS8_RKb
0000000000568030 W _ZN2ft4pairINS_12RBT_iteratorINS_7RB_nodeINS0_IKi8LeakTestIiEEES3_S5_EES6_EEbEC2IPS7_bEERKNS0_IT_T0_EE
000000000054b970 W _ZN2ft4pairINS_12RBT_iteratorINS_7RB_nodeINS0_IKi8LeakTestIiEEES3_S5_EES6_EEbED2Ev
0000000000571ed0 W _ZN2ft4pairINS_12RBT_iteratorINS_7RB_nodeINS0_IKiNSt7__cxx1112basic_stringIcSt11char_traitsIcESaIcEEEEES3_S9_EESA_EEbEC2ERKSC_RKb
0000000000571ab0 W _ZN2ft4pairINS_12RBT_iteratorINS_7RB_nodeINS0_IKiNSt7__cxx1112basic_stringIcSt11char_traitsIcESaIcEEEEES3_S9_EESA_EEbEC2IPSB_bEERKNS0_IT_T0_EE
000000000054cca0 W _ZN2ft4pairINS_12RBT_iteratorINS_7RB_nodeINS0_IKiNSt7__cxx1112basic_stringIcSt11char_traitsIcESaIcEEEEES3_S9_EESA_EEbED2Ev
000000000054cbd0 W _ZN2ft4pairINS_12RBT_iteratorINS_7RB_nodeINS0_IKiNSt7__cxx1112basic_stringIcSt11char_traitsIcESaIcEEEEES3_S9_EESA_EEbEaSERKSD_
00000000004de880 W _ZN2ft4pairINS_12RBT_iteratorINS_7RB_nodeINS0_IKiiEES3_iEES4_EEbEC2ERKS6_RKb
00000000004de460 W _ZN2ft4pairINS_12RBT_iteratorINS_7RB_nodeINS0_IKiiEES3_iEES4_EEbEC2IPS5_bEERKNS0_IT_T0_EE
00000000004d5b80 W _ZN2ft4pairINS_12RBT_iteratorINS_7RB_nodeINS0_IKiiEES3_iEES4_EEbED2Ev
00000000004f9fe0 W _ZN2ft4pairINS_12RBT_iteratorINS_7RB_nodeINS0_IKiiEEiiEES4_EEbEC2ERKS6_RKb
00000000004f9bc0 W _ZN2ft4pairINS_12RBT_iteratorINS_7RB_nodeINS0_IKiiEEiiEES4_EEbEC2IPS5_bEERKNS0_IT_T0_EE
00000000004eb2e0 W _ZN2ft4pairINS_12RBT_iteratorINS_7RB_nodeINS0_IKiiEEiiEES4_EEbED2Ev
00000000005580b0 W _ZN2ft4pairINSt7__cxx1112basic_stringIcSt11char_traitsIcESaIcEEEiEC2ERKS6_RKi
00000000005552c0 W _ZN2ft4pairINSt7__cxx1112basic_stringIcSt11char_traitsIcESaIcEEEiED2Ev
0000000000523450 W _ZN2ft4pairIPNS_7RB_nodeIKNSt7__cxx1112basic_stringIcSt11char_traitsIcESaIcEEES7_S7_EEbEC2ERKSA_RKb
0000000000511ff0 W _ZN2ft4pairIPNS_7RB_nodeIKiiiEEbEC2ERKS4_RKb
00000000005565c0 W _ZN2ft4pairIPNS_7RB_nodeINS0_IKNSt7__cxx1112basic_stringIcSt11char_traitsIcESaIcEEEiEES8_iEEbEC2ERKSB_RKb
0000000000568340 W _ZN2ft4pairIPNS_7RB_nodeINS0_IKi8LeakTestIiEEES2_S4_EEbEC2ERKS7_RKb
0000000000571dc0 W _ZN2ft4pairIPNS_7RB_nodeINS0_IKiNSt7__cxx1112basic_stringIcSt11char_traitsIcESaIcEEEEES2_S8_EEbEC2ERKSB_RKb
00000000004de770 W _ZN2ft4pairIPNS_7RB_nodeINS0_IKiiEES2_iEEbEC2ERKS5_RKb
00000000004f9ed0 W _ZN2ft4pairIPNS_7RB_nodeINS0_IKiiEEiiEEbEC2ERKS5_RKb
0000000000567110 W _ZN2ft4pairIi8LeakTestIiEEC2ERKiRKS2_
000000000054b9b0 W _ZN2ft4pairIi8LeakTestIiEED2Ev
0000000000570a80 W _ZN2ft4pairIiNSt7__cxx1112basic_stringIcSt11char_traitsIcESaIcEEEEC2ERKiRKS6_
0000000000570a60 W _ZN2ft4pairIiNSt7__cxx1112basic_stringIcSt11char_traitsIcESaIcEEEED2Ev
0000000000570b40 W _ZN2ft4pairIiPKcEC2ERKiRKS2_
00000000004dd4c0 W _ZN2ft4pairIiiEC2ERKiS3_
00000000004ea410 W _ZN2ft5stackI6BufferSt5dequeIS1_SaIS1_EEEC2ERKS4_
00000000004ebf70 W _ZN2ft5stackI6BufferSt5dequeIS1_SaIS1_EEED2Ev
00000000004e2640 W _ZN2ft5stackI8LeakTestIiENS_6vectorIS2_SaIS2_EEEE3popEv
00000000004e2620 W _ZN2ft5stackI8LeakTestIiENS_6vectorIS2_SaIS2_EEEE3topEv
00000000004e2550 W _ZN2ft5stackI8LeakTestIiENS_6vectorIS2_SaIS2_EEEE4pushERKS2_
00000000004e21a0 W _ZN2ft5stackI8LeakTestIiENS_6vectorIS2_SaIS2_EEEEC2ERKS5_
00000000004e2b00 W _ZN2ft5stackI8LeakTestIiENS_6vectorIS2_SaIS2_EEEED2Ev
00000000004e2ac0 W _ZN2ft5stackINSt7__cxx1112basic_stringIcSt11char_traitsIcESaIcEEENS_6vectorIS6_SaIS6_EEEE3popEv
00000000004e2aa0 W _ZN2ft5stackINSt7__cxx1112basic_stringIcSt11char_traitsIcESaIcEEENS_6vectorIS6_SaIS6_EEEE3topEv
00000000004e2a40 W _ZN2ft5stackINSt7__cxx1112basic_stringIcSt11char_traitsIcESaIcEEENS_6vectorIS6_SaIS6_EEEE4pushERKS6_
00000000004e27f0 W _ZN2ft5stackINSt7__cxx1112basic_stringIcSt11char_traitsIcESaIcEEENS_6vectorIS6_SaIS6_EEEEC2ERKS9_
00000000004e2ae0 W _ZN2ft5stackINSt7__cxx1112basic_stringIcSt11char_traitsIcESaIcEEENS_6vectorIS6_SaIS6_EEEED2Ev
00000000004ebd60 W _ZN2ft5stackIcNS_6vectorIcSaIcEEEE4pushERKc
00000000004fcfb0 W _ZN2ft5stackIcNS_6vectorIcSaIcEEEEC2ERKS3_
00000000004ff6d0 W _ZN2ft5stackIcNS_6vectorIcSaIcEEEED2Ev
00000000004ea050 W _ZN2ft5stackIiNS_6vectorIiSaIiEEEEC2ERKS3_
00000000004ebf90 W _ZN2ft5stackIiNS_6vectorIiSaIiEEEED2Ev
00000000004d56e0 W _ZN2ft5stackIlNS_6vectorIlSaIlEEEE3popEv
00000000004d56c0 W _ZN2ft5stackIlNS_6vectorIlSaIlEEEE3topEv
00000000004d5590 W _ZN2ft5stackIlNS_6vectorIlSaIlEEEE4pushERKl
00000000004d5560 W _ZN2ft5stackIlNS_6vectorIlSaIlEEEEC2ERKS3_
00000000004d5700 W _ZN2ft5stackIlNS_6vectorIlSaIlEEEED2Ev
00000000004eaf60 W _ZN2ft6vectorI6BufferSaIS1_EE2atEm
00000000004ea940 W _ZN2ft6vectorI6BufferSaIS1_EE4swapERS3_
00000000004f86b0 W _ZN2ft6vectorI6BufferSaIS1_EE7reserveEm
00000000004ea730 W _ZN2ft6vectorI6BufferSaIS1_EE9push_backERKS1_
00000000004ea260 W _ZN2ft6vectorI6BufferSaIS1_EEC2ERKS2_
00000000004ee7a0 W _ZN2ft6vectorI6BufferSaIS1_EED0Ev
00000000004ead90 W _ZN2ft6vectorI6BufferSaIS1_EED2Ev
00000000004ea8f0 W _ZN2ft6vectorI6BufferSaIS1_EEixEm
00000000004e4700 W _ZN2ft6vectorI8LeakTestIiESaIS2_EE3endEv
00000000004e5510 W _ZN2ft6vectorI8LeakTestIiESaIS2_EE4backEv
00000000004e3670 W _ZN2ft6vectorI8LeakTestIiESaIS2_EE5beginEv
000000000053c610 W _ZN2ft6vectorI8LeakTestIiESaIS2_EE5clearEv
0000000000535420 W _ZN2ft6vectorI8LeakTestIiESaIS2_EE5eraseENS_22random_access_iteratorIS2_EE
000000000053c040 W _ZN2ft6vectorI8LeakTestIiESaIS2_EE5eraseENS_22random_access_iteratorIS2_EES6_
00000000004e3b00 W _ZN2ft6vectorI8LeakTestIiESaIS2_EE6insertENS_22random_access_iteratorIS2_EES6_S6_
00000000004e3140 W _ZN2ft6vectorI8LeakTestIiESaIS2_EE6insertINS_22random_access_iteratorIKS2_EEEEvNS6_IS2_EET_SA_PNS_9enable_ifIXntsr2ft11is_integralISA_EE5valueEE4typeE
00000000004e47a0 W _ZN2ft6vectorI8LeakTestIiESaIS2_EE7reserveEm
00000000004e55a0 W _ZN2ft6vectorI8LeakTestIiESaIS2_EE8pop_backEv
00000000004e3870 W _ZN2ft6vectorI8LeakTestIiESaIS2_EE9push_backERKS2_
00000000004e2030 W _ZN2ft6vectorI8LeakTestIiESaIS2_EEC2ERKS3_
00000000004e2d00 W _ZN2ft6vectorI8LeakTestIiESaIS2_EEC2ERKS4_
00000000005331e0 W _ZN2ft6vectorI8LeakTestIiESaIS2_EEC2EmRKS2_RKS3_
00000000004e2be0 W _ZN2ft6vectorI8LeakTestIiESaIS2_EED0Ev
00000000004e21d0 W _ZN2ft6vectorI8LeakTestIiESaIS2_EED2Ev
000000000053ab40 W _ZN2ft6vectorINS0_I8LeakTestIiESaIS2_EEESaIS4_EE3endEv
0000000000539ab0 W _ZN2ft6vectorINS0_I8LeakTestIiESaIS2_EEESaIS4_EE5beginEv
0000000000539f40 W _ZN2ft6vectorINS0_I8LeakTestIiESaIS2_EEESaIS4_EE6insertENS_22random_access_iteratorIS4_EES8_S8_
0000000000539580 W _ZN2ft6vectorINS0_I8LeakTestIiESaIS2_EEESaIS4_EE6insertINS_22random_access_iteratorIKS4_EEEEvNS8_IS4_EET_SC_PNS_9enable_ifIXntsr2ft11is_integralISC_EE5valueEE4typeE
000000000053abe0 W _ZN2ft6vectorINS0_I8LeakTestIiESaIS2_EEESaIS4_EE7reserveEm
0000000000539cb0 W _ZN2ft6vectorINS0_I8LeakTestIiESaIS2_EEESaIS4_EE9push_backERKS4_
0000000000534150 W _ZN2ft6vectorINS0_I8LeakTestIiESaIS2_EEESaIS4_EEC2ERKS5_
0000000000533b60 W _ZN2ft6vectorINS0_I8LeakTestIiESaIS2_EEESaIS4_EEC2ERKS6_
0000000000533570 W _ZN2ft6vectorINS0_I8LeakTestIiESaIS2_EEESaIS4_EEC2EmRKS4_RKS5_
0000000000539450 W _ZN2ft6vectorINS0_I8LeakTestIiESaIS2_EEESaIS4_EED0Ev
0000000000533f90 W _ZN2ft6vectorINS0_I8LeakTestIiESaIS2_EEESaIS4_EED2Ev
0000000000532e10 W _ZN2ft6vectorINSt7__cxx1112basic_stringIcSt11char_traitsIcESaIcEEESaIS6_EE2atEm
00000000004e71b0 W _ZN2ft6vectorINSt7__cxx1112basic_stringIcSt11char_traitsIcESaIcEEESaIS6_EE3endEv
00000000004e7d60 W _ZN2ft6vectorINSt7__cxx1112basic_stringIcSt11char_traitsIcESaIcEEESaIS6_EE4backEv
00000000004e6110 W _ZN2ft6vectorINSt7__cxx1112basic_stringIcSt11char_traitsIcESaIcEEESaIS6_EE5beginEv
00000000005331a0 W _ZN2ft6vectorINSt7__cxx1112basic_stringIcSt11char_traitsIcESaIcEEESaIS6_EE5frontEv
00000000004e65a0 W _ZN2ft6vectorINSt7__cxx1112basic_stringIcSt11char_traitsIcESaIcEEESaIS6_EE6insertENS_22random_access_iteratorIS6_EESA_SA_
00000000004e5be0 W _ZN2ft6vectorINSt7__cxx1112basic_stringIcSt11char_traitsIcESaIcEEESaIS6_EE6insertINS_22random_access_iteratorIKS6_EEEEvNSA_IS6_EET_SE_PNS_9enable_ifIXntsr2ft11is_integralISE_EE5valueEE4typeE
00000000004e7250 W _ZN2ft6vectorINSt7__cxx1112basic_stringIcSt11char_traitsIcESaIcEEESaIS6_EE7reserveEm
00000000004e7df0 W _ZN2ft6vectorINSt7__cxx1112basic_stringIcSt11char_traitsIcESaIcEEESaIS6_EE8pop_backEv
00000000004e6310 W _ZN2ft6vectorINSt7__cxx1112basic_stringIcSt11char_traitsIcESaIcEEESaIS6_EE9push_backERKS6_
00000000004e2680 W _ZN2ft6vectorINSt7__cxx1112basic_stringIcSt11char_traitsIcESaIcEEESaIS6_EEC2ERKS7_
00000000004e57a0 W _ZN2ft6vectorINSt7__cxx1112basic_stringIcSt11char_traitsIcESaIcEEESaIS6_EEC2ERKS8_
00000000004e56d0 W _ZN2ft6vectorINSt7__cxx1112basic_stringIcSt11char_traitsIcESaIcEEESaIS6_EED0Ev
00000000004e2820 W _ZN2ft6vectorINSt7__cxx1112basic_stringIcSt11char_traitsIcESaIcEEESaIS6_EED2Ev
0000000000533150 W _ZN2ft6vectorINSt7__cxx1112basic_stringIcSt11char_traitsIcESaIcEEESaIS6_EEixEm
00000000004fec50 W _ZN2ft6vectorIcSaIcEE3endEv
000000000053d370 W _ZN2ft6vectorIcSaIcEE4backEv
0000000000538960 W _ZN2ft6vectorIcSaIcEE4rendEv
00000000005375c0 W _ZN2ft6vectorIcSaIcEE4swapERS2_
00000000004fdbf0 W _ZN2ft6vectorIcSaIcEE5beginEv
0000000000537cf0 W _ZN2ft6vectorIcSaIcEE5clearEv
0000000000536400 W _ZN2ft6vectorIcSaIcEE6assignEmRKc
0000000000535b40 W _ZN2ft6vectorIcSaIcEE6assignISt14_List_iteratorIcEEEvT_S6_PNS_9enable_ifIXntsr2ft11is_integralIS6_EE5valueEE4typeE
0000000000536520 W _ZN2ft6vectorIcSaIcEE6insertENS_22random_access_iteratorIcEERKc
00000000004fe070 W _ZN2ft6vectorIcSaIcEE6insertENS_22random_access_iteratorIcEES4_S4_
0000000000536810 W _ZN2ft6vectorIcSaIcEE6insertENS_22random_access_iteratorIcEEmRKc
00000000004fd6c0 W _ZN2ft6vectorIcSaIcEE6insertINS_22random_access_iteratorIKcEEEEvNS4_IcEET_S8_PNS_9enable_ifIXntsr2ft11is_integralIS8_EE5valueEE4typeE
0000000000536ff0 W _ZN2ft6vectorIcSaIcEE6insertISt14_List_iteratorIcEEEvNS_22random_access_iteratorIcEET_S8_PNS_9enable_ifIXntsr2ft11is_integralIS8_EE5valueEE4typeE
0000000000538530 W _ZN2ft6vectorIcSaIcEE6rbeginEv
00000000004fecf0 W _ZN2ft6vectorIcSaIcEE7reserveEm
000000000053d300 W _ZN2ft6vectorIcSaIcEE8pop_backEv
00000000004fdde0 W _ZN2ft6vectorIcSaIcEE9push_backERKc
00000000004fce40 W _ZN2ft6vectorIcSaIcEEC2ERKS1_
00000000004fd280 W _ZN2ft6vectorIcSaIcEEC2ERKS2_
00000000004fd210 W _ZN2ft6vectorIcSaIcEED0Ev
00000000004fcfe0 W _ZN2ft6vectorIcSaIcEED2Ev
0000000000537a10 W _ZN2ft6vectorIcSaIcEEaSERKS2_
000000000053ba60 W _ZN2ft6vectorIiSaIiEE15reserve_cleanlyEm
00000000004edb40 W _ZN2ft6vectorIiSaIiEE3endEv
000000000053bfb0 W _ZN2ft6vectorIiSaIiEE4backEv
00000000004ecab0 W _ZN2ft6vectorIiSaIiEE5beginEv
000000000053bf00 W _ZN2ft6vectorIiSaIiEE5clearEv
0000000000535710 W _ZN2ft6vectorIiSaIiEE5eraseENS_22random_access_iteratorIiEE
0000000000534cc0 W _ZN2ft6vectorIiSaIiEE5eraseENS_22random_access_iteratorIiEES4_
000000000053b5f0 W _ZN2ft6vectorIiSaIiEE6assignENS_22random_access_iteratorIiEES4_
00000000004ecf40 W _ZN2ft6vectorIiSaIiEE6insertENS_22random_access_iteratorIiEES4_S4_
00000000004ec580 W _ZN2ft6vectorIiSaIiEE6insertINS_22random_access_iteratorIKiEEEEvNS4_IiEET_S8_PNS_9enable_ifIXntsr2ft11is_integralIS8_EE5valueEE4typeE
00000000004edbe0 W _ZN2ft6vectorIiSaIiEE7reserveEm
000000000053bf40 W _ZN2ft6vectorIiSaIiEE8pop_backEv
00000000004eccb0 W _ZN2ft6vectorIiSaIiEE9push_backERKi
00000000004e9ec0 W _ZN2ft6vectorIiSaIiEEC2ERKS1_
00000000004ec140 W _ZN2ft6vectorIiSaIiEEC2ERKS2_
0000000000534340 W _ZN2ft6vectorIiSaIiEEC2EmRKiRKS1_
0000000000534620 W _ZN2ft6vectorIiSaIiEEC2INS_22random_access_iteratorIiEEEET_S6_RKS1_PNS_9enable_ifIXntsr2ft11is_integralIS6_EE5valueEE4typeE
00000000004ec080 W _ZN2ft6vectorIiSaIiEED0Ev
00000000004ea080 W _ZN2ft6vectorIiSaIiEED2Ev
00000000005349e0 W _ZN2ft6vectorIiSaIiEEaSERKS2_
00000000004d6fd0 W _ZN2ft6vectorIlSaIlEE15reserve_cleanlyEm
00000000004d5080 W _ZN2ft6vectorIlSaIlEE3endEv
00000000004d6e70 W _ZN2ft6vectorIlSaIlEE4backEv
00000000004d3880 W _ZN2ft6vectorIlSaIlEE5beginEv
00000000004d40e0 W _ZN2ft6vectorIlSaIlEE5clearEv
00000000004d3a80 W _ZN2ft6vectorIlSaIlEE5eraseENS_22random_access_iteratorIlEES4_
00000000004d5120 W _ZN2ft6vectorIlSaIlEE6assignENS_22random_access_iteratorIlEES4_
00000000004d3960 W _ZN2ft6vectorIlSaIlEE6assignEmRKl
00000000004d4550 W _ZN2ft6vectorIlSaIlEE6insertENS_22random_access_iteratorIlEES4_S4_
00000000004d3020 W _ZN2ft6vectorIlSaIlEE6insertENS_22random_access_iteratorIlEEmRKl
00000000004d78b0 W _ZN2ft6vectorIlSaIlEE6insertINS_22random_access_iteratorIKlEEEEvNS4_IlEET_S8_PNS_9enable_ifIXntsr2ft11is_integralIS8_EE5valueEE4typeE
00000000004d63d0 W _ZN2ft6vectorIlSaIlEE7reserveEm
00000000004d6d40 W _ZN2ft6vectorIlSaIlEE8pop_backEv
00000000004d2d80 W _ZN2ft6vectorIlSaIlEE9push_backERKl
00000000004d2bf0 W _ZN2ft6vectorIlSaIlEEC2ERKS1_
00000000004d7470 W _ZN2ft6vectorIlSaIlEEC2ERKS2_
00000000004d42e0 W _ZN2ft6vectorIlSaIlEEC2EmRKlRKS1_
00000000004d6310 W _ZN2ft6vectorIlSaIlEED0Ev
00000000004d4120 W _ZN2ft6vectorIlSaIlEED2Ev
000000000051ebb0 W _ZN2ft7RB_nodeIKNSt7__cxx1112basic_stringIcSt11char_traitsIcESaIcEEES6_S6_E11is_nullLeafEv
00000000005208e0 W _ZN2ft7RB_nodeIKNSt7__cxx1112basic_stringIcSt11char_traitsIcESaIcEEES6_S6_E3keyEv
000000000051d380 W _ZN2ft7RB_nodeIKNSt7__cxx1112basic_stringIcSt11char_traitsIcESaIcEEES6_S6_EC2EPS8_
000000000051d750 W _ZN2ft7RB_nodeIKNSt7__cxx1112basic_stringIcSt11char_traitsIcESaIcEEES6_S6_EC2ERKS8_
000000000051d210 W _ZN2ft7RB_nodeIKNSt7__cxx1112basic_stringIcSt11char_traitsIcESaIcEEES6_S6_EC2ERS7_
000000000051d360 W _ZN2ft7RB_nodeIKNSt7__cxx1112basic_stringIcSt11char_traitsIcESaIcEEES6_S6_ED2Ev
000000000050d970 W _ZN2ft7RB_nodeIKiiiE11is_nullLeafEv
000000000050f6a0 W _ZN2ft7RB_nodeIKiiiE3keyEv
000000000050c2a0 W _ZN2ft7RB_nodeIKiiiEC2EPS2_
000000000050c6a0 W _ZN2ft7RB_nodeIKiiiEC2ERKS2_
000000000050c0d0 W _ZN2ft7RB_nodeIKiiiEC2ERS1_
00000000005517c0 W _ZN2ft7RB_nodeINS_4pairIKNSt7__cxx1112basic_stringIcSt11char_traitsIcESaIcEEEiEES8_iE11is_nullLeafEv
0000000000553530 W _ZN2ft7RB_nodeINS_4pairIKNSt7__cxx1112basic_stringIcSt11char_traitsIcESaIcEEEiEES8_iE3keyEv
000000000054fea0 W _ZN2ft7RB_nodeINS_4pairIKNSt7__cxx1112basic_stringIcSt11char_traitsIcESaIcEEEiEES8_iEC2EPSA_
000000000054fd10 W _ZN2ft7RB_nodeINS_4pairIKNSt7__cxx1112basic_stringIcSt11char_traitsIcESaIcEEEiEES8_iEC2ERKS9_
0000000000550270 W _ZN2ft7RB_nodeINS_4pairIKNSt7__cxx1112basic_stringIcSt11char_traitsIcESaIcEEEiEES8_iEC2ERKSA_
000000000054fe60 W _ZN2ft7RB_nodeINS_4pairIKNSt7__cxx1112basic_stringIcSt11char_traitsIcESaIcEEEiEES8_iED2Ev
0000000000563b00 W _ZN2ft7RB_nodeINS_4pairIKi8LeakTestIiEEES2_S4_E11is_nullLeafEv
0000000000565870 W _ZN2ft7RB_nodeINS_4pairIKi8LeakTestIiEEES2_S4_E3keyEv
0000000000562350 W _ZN2ft7RB_nodeINS_4pairIKi8LeakTestIiEEES2_S4_EC2EPS6_
00000000005621e0 W _ZN2ft7RB_nodeINS_4pairIKi8LeakTestIiEEES2_S4_EC2ERKS5_
0000000000562720 W _ZN2ft7RB_nodeINS_4pairIKi8LeakTestIiEEES2_S4_EC2ERKS6_
0000000000562330 W _ZN2ft7RB_nodeINS_4pairIKi8LeakTestIiEEES2_S4_ED2Ev
000000000056d1e0 W _ZN2ft7RB_nodeINS_4pairIKiNSt7__cxx1112basic_stringIcSt11char_traitsIcESaIcEEEEES2_S8_E11is_nullLeafEv
000000000056ef50 W _ZN2ft7RB_nodeINS_4pairIKiNSt7__cxx1112basic_stringIcSt11char_traitsIcESaIcEEEEES2_S8_E3keyEv
000000000056baa0 W _ZN2ft7RB_nodeINS_4pairIKiNSt7__cxx1112basic_stringIcSt11char_traitsIcESaIcEEEEES2_S8_EC2EPSA_
000000000056b930 W _ZN2ft7RB_nodeINS_4pairIKiNSt7__cxx1112basic_stringIcSt11char_traitsIcESaIcEEEEES2_S8_EC2ERKS9_
000000000056be70 W _ZN2ft7RB_nodeINS_4pairIKiNSt7__cxx1112basic_stringIcSt11char_traitsIcESaIcEEEEES2_S8_EC2ERKSA_
000000000056ba80 W _ZN2ft7RB_nodeINS_4pairIKiNSt7__cxx1112basic_stringIcSt11char_traitsIcESaIcEEEEES2_S8_ED2Ev
00000000004da130 W _ZN2ft7RB_nodeINS_4pairIKiiEES2_iE11is_nullLeafEv
00000000004dbf50 W _ZN2ft7RB_nodeINS_4pairIKiiEES2_iE3keyEv
00000000004d8bf0 W _ZN2ft7RB_nodeINS_4pairIKiiEES2_iEC2EPS4_
00000000004d8a90 W _ZN2ft7RB_nodeINS_4pairIKiiEES2_iEC2ERKS3_
00000000004d8fc0 W _ZN2ft7RB_nodeINS_4pairIKiiEES2_iEC2ERKS4_
00000000004f5320 W _ZN2ft7RB_nodeINS_4pairIKiiEEiiE11is_nullLeafEv
00000000004f7140 W _ZN2ft7RB_nodeINS_4pairIKiiEEiiE3keyEv
00000000004f3d20 W _ZN2ft7RB_nodeINS_4pairIKiiEEiiEC2EPS4_
00000000004f3bc0 W _ZN2ft7RB_nodeINS_4pairIKiiEEiiEC2ERKS3_
00000000004f40f0 W _ZN2ft7RB_nodeINS_4pairIKiiEEiiEC2ERKS4_
0000000000557f30 W _ZN2ft7RB_treeIKNSt7__cxx1112basic_stringIcSt11char_traitsIcESaIcEEEiNS_4pairIS7_iEESt4lessIS7_ESaIS9_EE10color_flipEPNS_7RB_nodeIS9_S7_iEE
00000000005510f0 W _ZN2ft7RB_treeIKNSt7__cxx1112basic_stringIcSt11char_traitsIcESaIcEEEiNS_4pairIS7_iEESt4lessIS7_ESaIS9_EE12find_nodeptrENS_12RBT_iteratorINS_7RB_nodeIS9_S7_iEES9_EE
0000000000557df0 W _ZN2ft7RB_treeIKNSt7__cxx1112basic_stringIcSt11char_traitsIcESaIcEEEiNS_4pairIS7_iEESt4lessIS7_ESaIS9_EE13get_aunt_nodeEPNS_7RB_nodeIS9_S7_iEE
00000000005574e0 W _ZN2ft7RB_treeIKNSt7__cxx1112basic_stringIcSt11char_traitsIcESaIcEEEiNS_4pairIS7_iEESt4lessIS7_ESaIS9_EE13left_rotationEPNS_7RB_nodeIS9_S7_iEE
0000000000555360 W _ZN2ft7RB_treeIKNSt7__cxx1112basic_stringIcSt11char_traitsIcESaIcEEEiNS_4pairIS7_iEESt4lessIS7_ESaIS9_EE14insert_elementERKS9_
0000000000556c50 W _ZN2ft7RB_treeIKNSt7__cxx1112basic_stringIcSt11char_traitsIcESaIcEEEiNS_4pairIS7_iEESt4lessIS7_ESaIS9_EE14right_rotationEPNS_7RB_nodeIS9_S7_iEE
00000000005541c0 W _ZN2ft7RB_treeIKNSt7__cxx1112basic_stringIcSt11char_traitsIcESaIcEEEiNS_4pairIS7_iEESt4lessIS7_ESaIS9_EE16get_brother_nodeEPNS_7RB_nodeIS9_S7_iEE
0000000000554bb0 W _ZN2ft7RB_treeIKNSt7__cxx1112basic_stringIcSt11char_traitsIcESaIcEEEiNS_4pairIS7_iEESt4lessIS7_ESaIS9_EE16get_gparent_nodeEPNS_7RB_nodeIS9_S7_iEE
0000000000553c30 W _ZN2ft7RB_treeIKNSt7__cxx1112basic_stringIcSt11char_traitsIcESaIcEEEiNS_4pairIS7_iEESt4lessIS7_ESaIS9_EE17create_null_leafsEPNS_7RB_nodeIS9_S7_iEE
00000000005518a0 W _ZN2ft7RB_treeIKNSt7__cxx1112basic_stringIcSt11char_traitsIcESaIcEEEiNS_4pairIS7_iEESt4lessIS7_ESaIS9_EE18delete_lonely_nodeEPNS_7RB_nodeIS9_S7_iEE
0000000000553600 W _ZN2ft7RB_treeIKNSt7__cxx1112basic_stringIcSt11char_traitsIcESaIcEEEiNS_4pairIS7_iEESt4lessIS7_ESaIS9_EE18replace_node_valueERKS9_PNS_7RB_nodeIS9_S7_iEE
0000000000557140 W _ZN2ft7RB_treeIKNSt7__cxx1112basic_stringIcSt11char_traitsIcESaIcEEEiNS_4pairIS7_iEESt4lessIS7_ESaIS9_EE19left_right_rotationEPNS_7RB_nodeIS9_S7_iEE
0000000000557a50 W _ZN2ft7RB_treeIKNSt7__cxx1112basic_stringIcSt11char_traitsIcESaIcEEEiNS_4pairIS7_iEESt4lessIS7_ESaIS9_EE19right_left_rotationEPNS_7RB_nodeIS9_S7_iEE
0000000000551cf0 W _ZN2ft7RB_treeIKNSt7__cxx1112basic_stringIcSt11char_traitsIcESaIcEEEiNS_4pairIS7_iEESt4lessIS7_ESaIS9_EE21delete_one_child_nodeEPNS_7RB_nodeIS9_S7_iEE
0000000000552090 W _ZN2ft7RB_treeIKNSt7__cxx1112basic_stringIcSt11char_traitsIcESaIcEEEiNS_4pairIS7_iEESt4lessIS7_ESaIS9_EE21delete_two_child_nodeEPNS_7RB_nodeIS9_S7_iEE
0000000000552670 W _ZN2ft7RB_treeIKNSt7__cxx1112basic_stringIcSt11char_traitsIcESaIcEEEiNS_4pairIS7_iEESt4lessIS7_ESaIS9_EE22balance_after_deletionEPNS_7RB_nodeIS9_S7_iEE
0000000000556790 W _ZN2ft7RB_treeIKNSt7__cxx1112basic_stringIcSt11char_traitsIcESaIcEEEiNS_4pairIS7_iEESt4lessIS7_ESaIS9_EE22check_basic_conditionsEPNS_7RB_nodeIS9_S7_iEE
00000000005535b0 W _ZN2ft7RB_treeIKNSt7__cxx1112basic_stringIcSt11char_traitsIcESaIcEEEiNS_4pairIS7_iEESt4lessIS7_ESaIS9_EE22destroy_and_deallocateEPNS_7RB_nodeIS9_S7_iEE
0000000000554360 W _ZN2ft7RB_treeIKNSt7__cxx1112basic_stringIcSt11char_traitsIcESaIcEEEiNS_4pairIS7_iEESt4lessIS7_ESaIS9_EE24after_deletion_left_turnEPNS_7RB_nodeIS9_S7_iEE
0000000000554790 W _ZN2ft7RB_treeIKNSt7__cxx1112basic_stringIcSt11char_traitsIcESaIcEEEiNS_4pairIS7_iEESt4lessIS7_ESaIS9_EE25after_deletion_right_turnEPNS_7RB_nodeIS9_S7_iEE
0000000000554d30 W _ZN2ft7RB_treeIKNSt7__cxx1112basic_stringIcSt11char_traitsIcESaIcEEEiNS_4pairIS7_iEESt4lessIS7_ESaIS9_EE3endEv
0000000000558170 W _ZN2ft7RB_treeIKNSt7__cxx1112basic_stringIcSt11char_traitsIcESaIcEEEiNS_4pairIS7_iEESt4lessIS7_ESaIS9_EE4findERS7_
0000000000550f70 W _ZN2ft7RB_treeIKNSt7__cxx1112basic_stringIcSt11char_traitsIcESaIcEEEiNS_4pairIS7_iEESt4lessIS7_ESaIS9_EE5beginEv
0000000000550530 W _ZN2ft7RB_treeIKNSt7__cxx1112basic_stringIcSt11char_traitsIcESaIcEEEiNS_4pairIS7_iEESt4lessIS7_ESaIS9_EE5clearEv
0000000000550790 W _ZN2ft7RB_treeIKNSt7__cxx1112basic_stringIcSt11char_traitsIcESaIcEEEiNS_4pairIS7_iEESt4lessIS7_ESaIS9_EE5eraseENS_12RBT_iteratorINS_7RB_nodeIS9_S7_iEES9_EE
0000000000556520 W _ZN2ft7RB_treeIKNSt7__cxx1112basic_stringIcSt11char_traitsIcESaIcEEEiNS_4pairIS7_iEESt4lessIS7_ESaIS9_EE7balanceEPNS_7RB_nodeIS9_S7_iEE
000000000054f3a0 W _ZN2ft7RB_treeIKNSt7__cxx1112basic_stringIcSt11char_traitsIcESaIcEEEiNS_4pairIS7_iEESt4lessIS7_ESaIS9_EEC2ERKSB_RKSaINS_7RB_nodeIS9_S7_iEEE
00000000005501f0 W _ZN2ft7RB_treeIKNSt7__cxx1112basic_stringIcSt11char_traitsIcESaIcEEEiNS_4pairIS7_iEESt4lessIS7_ESaIS9_EED0Ev
000000000054ffe0 W _ZN2ft7RB_treeIKNSt7__cxx1112basic_stringIcSt11char_traitsIcESaIcEEEiNS_4pairIS7_iEESt4lessIS7_ESaIS9_EED2Ev
0000000000569cb0 W _ZN2ft7RB_treeIKi8LeakTestIiENS_4pairIS1_S3_EESt4lessIS1_ESaIS5_EE10color_flipEPNS_7RB_nodeIS5_S1_S3_EE
0000000000563600 W _ZN2ft7RB_treeIKi8LeakTestIiENS_4pairIS1_S3_EESt4lessIS1_ESaIS5_EE12find_nodeptrENS_12RBT_iteratorINS_7RB_nodeIS5_S1_S3_EES5_EE
0000000000569b70 W _ZN2ft7RB_treeIKi8LeakTestIiENS_4pairIS1_S3_EESt4lessIS1_ESaIS5_EE13get_aunt_nodeEPNS_7RB_nodeIS5_S1_S3_EE
0000000000569260 W _ZN2ft7RB_treeIKi8LeakTestIiENS_4pairIS1_S3_EESt4lessIS1_ESaIS5_EE13left_rotationEPNS_7RB_nodeIS5_S1_S3_EE
00000000005671d0 W _ZN2ft7RB_treeIKi8LeakTestIiENS_4pairIS1_S3_EESt4lessIS1_ESaIS5_EE14insert_elementERKS5_
00000000005689d0 W _ZN2ft7RB_treeIKi8LeakTestIiENS_4pairIS1_S3_EESt4lessIS1_ESaIS5_EE14right_rotationEPNS_7RB_nodeIS5_S1_S3_EE
00000000005664b0 W _ZN2ft7RB_treeIKi8LeakTestIiENS_4pairIS1_S3_EESt4lessIS1_ESaIS5_EE16get_brother_nodeEPNS_7RB_nodeIS5_S1_S3_EE
0000000000566ea0 W _ZN2ft7RB_treeIKi8LeakTestIiENS_4pairIS1_S3_EESt4lessIS1_ESaIS5_EE16get_gparent_nodeEPNS_7RB_nodeIS5_S1_S3_EE
0000000000565f40 W _ZN2ft7RB_treeIKi8LeakTestIiENS_4pairIS1_S3_EESt4lessIS1_ESaIS5_EE17create_null_leafsEPNS_7RB_nodeIS5_S1_S3_EE
0000000000563be0 W _ZN2ft7RB_treeIKi8LeakTestIiENS_4pairIS1_S3_EESt4lessIS1_ESaIS5_EE18delete_lonely_nodeEPNS_7RB_nodeIS5_S1_S3_EE
0000000000565930 W _ZN2ft7RB_treeIKi8LeakTestIiENS_4pairIS1_S3_EESt4lessIS1_ESaIS5_EE18replace_node_valueERKS5_PNS_7RB_nodeIS5_S1_S3_EE
0000000000568ec0 W _ZN2ft7RB_treeIKi8LeakTestIiENS_4pairIS1_S3_EESt4lessIS1_ESaIS5_EE19left_right_rotationEPNS_7RB_nodeIS5_S1_S3_EE
00000000005697d0 W _ZN2ft7RB_treeIKi8LeakTestIiENS_4pairIS1_S3_EESt4lessIS1_ESaIS5_EE19right_left_rotationEPNS_7RB_nodeIS5_S1_S3_EE
0000000000564030 W _ZN2ft7RB_treeIKi8LeakTestIiENS_4pairIS1_S3_EESt4lessIS1_ESaIS5_EE21delete_one_child_nodeEPNS_7RB_nodeIS5_S1_S3_EE
00000000005643d0 W _ZN2ft7RB_treeIKi8LeakTestIiENS_4pairIS1_S3_EESt4lessIS1_ESaIS5_EE21delete_two_child_nodeEPNS_7RB_nodeIS5_S1_S3_EE
00000000005649b0 W _ZN2ft7RB_treeIKi8LeakTestIiENS_4pairIS1_S3_EESt4lessIS1_ESaIS5_EE22balance_after_deletionEPNS_7RB_nodeIS5_S1_S3_EE
0000000000568510 W _ZN2ft7RB_treeIKi8LeakTestIiENS_4pairIS1_S3_EESt4lessIS1_ESaIS5_EE22check_basic_conditionsEPNS_7RB_nodeIS5_S1_S3_EE
00000000005658e0 W _ZN2ft7RB_treeIKi8LeakTestIiENS_4pairIS1_S3_EESt4lessIS1_ESaIS5_EE22destroy_and_deallocateEPNS_7RB_nodeIS5_S1_S3_EE
0000000000566650 W _ZN2ft7RB_treeIKi8LeakTestIiENS_4pairIS1_S3_EESt4lessIS1_ESaIS5_EE24after_deletion_left_turnEPNS_7RB_nodeIS5_S1_S3_EE
0000000000566a80 W _ZN2ft7RB_treeIKi8LeakTestIiENS_4pairIS1_S3_EESt4lessIS1_ESaIS5_EE25after_deletion_right_turnEPNS_7RB_nodeIS5_S1_S3_EE
0000000000567020 W _ZN2ft7RB_treeIKi8LeakTestIiENS_4pairIS1_S3_EESt4lessIS1_ESaIS5_EE3endEv
000000000056a040 W _ZN2ft7RB_treeIKi8LeakTestIiENS_4pairIS1_S3_EESt4lessIS1_ESaIS5_EE4findERS1_
0000000000563490 W _ZN2ft7RB_treeIKi8LeakTestIiENS_4pairIS1_S3_EESt4lessIS1_ESaIS5_EE5beginEv
0000000000562a70 W _ZN2ft7RB_treeIKi8LeakTestIiENS_4pairIS1_S3_EESt4lessIS1_ESaIS5_EE5clearEv
0000000000562cd0 W _ZN2ft7RB_treeIKi8LeakTestIiENS_4pairIS1_S3_EESt4lessIS1_ESaIS5_EE5eraseENS_12RBT_iteratorINS_7RB_nodeIS5_S1_S3_EES5_EE
00000000005682a0 W _ZN2ft7RB_treeIKi8LeakTestIiENS_4pairIS1_S3_EESt4lessIS1_ESaIS5_EE7balanceEPNS_7RB_nodeIS5_S1_S3_EE
00000000005618b0 W _ZN2ft7RB_treeIKi8LeakTestIiENS_4pairIS1_S3_EESt4lessIS1_ESaIS5_EEC2ERKS7_RKSaINS_7RB_nodeIS5_S1_S3_EEE
00000000005626a0 W _ZN2ft7RB_treeIKi8LeakTestIiENS_4pairIS1_S3_EESt4lessIS1_ESaIS5_EED0Ev
0000000000562490 W _ZN2ft7RB_treeIKi8LeakTestIiENS_4pairIS1_S3_EESt4lessIS1_ESaIS5_EED2Ev
0000000000573730 W _ZN2ft7RB_treeIKiNSt7__cxx1112basic_stringIcSt11char_traitsIcESaIcEEENS_4pairIS1_S7_EESt4lessIS1_ESaIS9_EE10color_flipEPNS_7RB_nodeIS9_S1_S7_EE
0000000000575f50 W _ZN2ft7RB_treeIKiNSt7__cxx1112basic_stringIcSt11char_traitsIcESaIcEEENS_4pairIS1_S7_EESt4lessIS1_ESaIS9_EE11lower_boundERS1_
00000000005762e0 W _ZN2ft7RB_treeIKiNSt7__cxx1112basic_stringIcSt11char_traitsIcESaIcEEENS_4pairIS1_S7_EESt4lessIS1_ESaIS9_EE11upper_boundERS1_
000000000056cce0 W _ZN2ft7RB_treeIKiNSt7__cxx1112basic_stringIcSt11char_traitsIcESaIcEEENS_4pairIS1_S7_EESt4lessIS1_ESaIS9_EE12find_nodeptrENS_12RBT_iteratorINS_7RB_nodeIS9_S1_S7_EES9_EE
00000000005735f0 W _ZN2ft7RB_treeIKiNSt7__cxx1112basic_stringIcSt11char_traitsIcESaIcEEENS_4pairIS1_S7_EESt4lessIS1_ESaIS9_EE13get_aunt_nodeEPNS_7RB_nodeIS9_S1_S7_EE
0000000000572ce0 W _ZN2ft7RB_treeIKiNSt7__cxx1112basic_stringIcSt11char_traitsIcESaIcEEENS_4pairIS1_S7_EESt4lessIS1_ESaIS9_EE13left_rotationEPNS_7RB_nodeIS9_S1_S7_EE
0000000000570c50 W _ZN2ft7RB_treeIKiNSt7__cxx1112basic_stringIcSt11char_traitsIcESaIcEEENS_4pairIS1_S7_EESt4lessIS1_ESaIS9_EE14insert_elementERKS9_
0000000000572450 W _ZN2ft7RB_treeIKiNSt7__cxx1112basic_stringIcSt11char_traitsIcESaIcEEENS_4pairIS1_S7_EESt4lessIS1_ESaIS9_EE14right_rotationEPNS_7RB_nodeIS9_S1_S7_EE
000000000056fbd0 W _ZN2ft7RB_treeIKiNSt7__cxx1112basic_stringIcSt11char_traitsIcESaIcEEENS_4pairIS1_S7_EESt4lessIS1_ESaIS9_EE16get_brother_nodeEPNS_7RB_nodeIS9_S1_S7_EE
00000000005705c0 W _ZN2ft7RB_treeIKiNSt7__cxx1112basic_stringIcSt11char_traitsIcESaIcEEENS_4pairIS1_S7_EESt4lessIS1_ESaIS9_EE16get_gparent_nodeEPNS_7RB_nodeIS9_S1_S7_EE
000000000056f640 W _ZN2ft7RB_treeIKiNSt7__cxx1112basic_stringIcSt11char_traitsIcESaIcEEENS_4pairIS1_S7_EESt4lessIS1_ESaIS9_EE17create_null_leafsEPNS_7RB_nodeIS9_S1_S7_EE
000000000056d2c0 W _ZN2ft7RB_treeIKiNSt7__cxx1112basic_stringIcSt11char_traitsIcESaIcEEENS_4pairIS1_S7_EESt4lessIS1_ESaIS9_EE18delete_lonely_nodeEPNS_7RB_nodeIS9_S1_S7_EE
000000000056f010 W _ZN2ft7RB_treeIKiNSt7__cxx1112basic_stringIcSt11char_traitsIcESaIcEEENS_4pairIS1_S7_EESt4lessIS1_ESaIS9_EE18replace_node_valueERKS9_PNS_7RB_nodeIS9_S1_S7_EE
0000000000572940 W _ZN2ft7RB_treeIKiNSt7__cxx1112basic_stringIcSt11char_traitsIcESaIcEEENS_4pairIS1_S7_EESt4lessIS1_ESaIS9_EE19left_right_rotationEPNS_7RB_nodeIS9_S1_S7_EE
0000000000573250 W _ZN2ft7RB_treeIKiNSt7__cxx1112basic_stringIcSt11char_traitsIcESaIcEEENS_4pairIS1_S7_EESt4lessIS1_ESaIS9_EE19right_left_rotationEPNS_7RB_nodeIS9_S1_S7_EE
000000000056d710 W _ZN2ft7RB_treeIKiNSt7__cxx1112basic_stringIcSt11char_traitsIcESaIcEEENS_4pairIS1_S7_EESt4lessIS1_ESaIS9_EE21delete_one_child_nodeEPNS_7RB_nodeIS9_S1_S7_EE
000000000056dab0 W _ZN2ft7RB_treeIKiNSt7__cxx1112basic_stringIcSt11char_traitsIcESaIcEEENS_4pairIS1_S7_EESt4lessIS1_ESaIS9_EE21delete_two_child_nodeEPNS_7RB_nodeIS9_S1_S7_EE
000000000056e090 W _ZN2ft7RB_treeIKiNSt7__cxx1112basic_stringIcSt11char_traitsIcESaIcEEENS_4pairIS1_S7_EESt4lessIS1_ESaIS9_EE22balance_after_deletionEPNS_7RB_nodeIS9_S1_S7_EE
0000000000571f90 W _ZN2ft7RB_treeIKiNSt7__cxx1112basic_stringIcSt11char_traitsIcESaIcEEENS_4pairIS1_S7_EESt4lessIS1_ESaIS9_EE22check_basic_conditionsEPNS_7RB_nodeIS9_S1_S7_EE
000000000056efc0 W _ZN2ft7RB_treeIKiNSt7__cxx1112basic_stringIcSt11char_traitsIcESaIcEEENS_4pairIS1_S7_EESt4lessIS1_ESaIS9_EE22destroy_and_deallocateEPNS_7RB_nodeIS9_S1_S7_EE
000000000056fd70 W _ZN2ft7RB_treeIKiNSt7__cxx1112basic_stringIcSt11char_traitsIcESaIcEEENS_4pairIS1_S7_EESt4lessIS1_ESaIS9_EE24after_deletion_left_turnEPNS_7RB_nodeIS9_S1_S7_EE
00000000005701a0 W _ZN2ft7RB_treeIKiNSt7__cxx1112basic_stringIcSt11char_traitsIcESaIcEEENS_4pairIS1_S7_EESt4lessIS1_ESaIS9_EE25after_deletion_right_turnEPNS_7RB_nodeIS9_S1_S7_EE
0000000000570740 W _ZN2ft7RB_treeIKiNSt7__cxx1112basic_stringIcSt11char_traitsIcESaIcEEENS_4pairIS1_S7_EESt4lessIS1_ESaIS9_EE3endEv
0000000000574bc0 W _ZN2ft7RB_treeIKiNSt7__cxx1112basic_stringIcSt11char_traitsIcESaIcEEENS_4pairIS1_S7_EESt4lessIS1_ESaIS9_EE4findERS1_
0000000000574f70 W _ZN2ft7RB_treeIKiNSt7__cxx1112basic_stringIcSt11char_traitsIcESaIcEEENS_4pairIS1_S7_EESt4lessIS1_ESaIS9_EE4swapERSD_
000000000056cb70 W _ZN2ft7RB_treeIKiNSt7__cxx1112basic_stringIcSt11char_traitsIcESaIcEEENS_4pairIS1_S7_EESt4lessIS1_ESaIS9_EE5beginEv
000000000056c130 W _ZN2ft7RB_treeIKiNSt7__cxx1112basic_stringIcSt11char_traitsIcESaIcEEENS_4pairIS1_S7_EESt4lessIS1_ESaIS9_EE5clearEv
000000000056c390 W _ZN2ft7RB_treeIKiNSt7__cxx1112basic_stringIcSt11char_traitsIcESaIcEEENS_4pairIS1_S7_EESt4lessIS1_ESaIS9_EE5eraseENS_12RBT_iteratorINS_7RB_nodeIS9_S1_S7_EES9_EE
0000000000571d20 W _ZN2ft7RB_treeIKiNSt7__cxx1112basic_stringIcSt11char_traitsIcESaIcEEENS_4pairIS1_S7_EESt4lessIS1_ESaIS9_EE7balanceEPNS_7RB_nodeIS9_S1_S7_EE
000000000056afc0 W _ZN2ft7RB_treeIKiNSt7__cxx1112basic_stringIcSt11char_traitsIcESaIcEEENS_4pairIS1_S7_EESt4lessIS1_ESaIS9_EEC2ERKSB_RKSaINS_7RB_nodeIS9_S1_S7_EEE
00000000005751b0 W _ZN2ft7RB_treeIKiNSt7__cxx1112basic_stringIcSt11char_traitsIcESaIcEEENS_4pairIS1_S7_EESt4lessIS1_ESaIS9_EEC2ERKSD_
000000000056bdf0 W _ZN2ft7RB_treeIKiNSt7__cxx1112basic_stringIcSt11char_traitsIcESaIcEEENS_4pairIS1_S7_EESt4lessIS1_ESaIS9_EED0Ev
000000000056bbe0 W _ZN2ft7RB_treeIKiNSt7__cxx1112basic_stringIcSt11char_traitsIcESaIcEEENS_4pairIS1_S7_EESt4lessIS1_ESaIS9_EED2Ev
00000000005753a0 W _ZN2ft7RB_treeIKiNSt7__cxx1112basic_stringIcSt11char_traitsIcESaIcEEENS_4pairIS1_S7_EESt4lessIS1_ESaIS9_EEaSERKSD_
00000000004e00e0 W _ZN2ft7RB_treeIKiiNS_4pairIS1_iEESt4lessIS1_ESaIS3_EE10color_flipEPNS_7RB_nodeIS3_S1_iEE
00000000004d9cf0 W _ZN2ft7RB_treeIKiiNS_4pairIS1_iEESt4lessIS1_ESaIS3_EE12find_nodeptrENS_12RBT_iteratorINS_7RB_nodeIS3_S1_iEES3_EE
00000000004dffa0 W _ZN2ft7RB_treeIKiiNS_4pairIS1_iEESt4lessIS1_ESaIS3_EE13get_aunt_nodeEPNS_7RB_nodeIS3_S1_iEE
00000000004df690 W _ZN2ft7RB_treeIKiiNS_4pairIS1_iEESt4lessIS1_ESaIS3_EE13left_rotationEPNS_7RB_nodeIS3_S1_iEE
00000000004dd600 W _ZN2ft7RB_treeIKiiNS_4pairIS1_iEESt4lessIS1_ESaIS3_EE14insert_elementERKS3_
00000000004dee00 W _ZN2ft7RB_treeIKiiNS_4pairIS1_iEESt4lessIS1_ESaIS3_EE14right_rotationEPNS_7RB_nodeIS3_S1_iEE
00000000004dc810 W _ZN2ft7RB_treeIKiiNS_4pairIS1_iEESt4lessIS1_ESaIS3_EE16get_brother_nodeEPNS_7RB_nodeIS3_S1_iEE
00000000004dd200 W _ZN2ft7RB_treeIKiiNS_4pairIS1_iEESt4lessIS1_ESaIS3_EE16get_gparent_nodeEPNS_7RB_nodeIS3_S1_iEE
00000000004dc450 W _ZN2ft7RB_treeIKiiNS_4pairIS1_iEESt4lessIS1_ESaIS3_EE17create_null_leafsEPNS_7RB_nodeIS3_S1_iEE
00000000004da210 W _ZN2ft7RB_treeIKiiNS_4pairIS1_iEESt4lessIS1_ESaIS3_EE18delete_lonely_nodeEPNS_7RB_nodeIS3_S1_iEE
00000000004dbfc0 W _ZN2ft7RB_treeIKiiNS_4pairIS1_iEESt4lessIS1_ESaIS3_EE18replace_node_valueERKS3_PNS_7RB_nodeIS3_S1_iEE
00000000004df2f0 W _ZN2ft7RB_treeIKiiNS_4pairIS1_iEESt4lessIS1_ESaIS3_EE19left_right_rotationEPNS_7RB_nodeIS3_S1_iEE
00000000004dfc00 W _ZN2ft7RB_treeIKiiNS_4pairIS1_iEESt4lessIS1_ESaIS3_EE19right_left_rotationEPNS_7RB_nodeIS3_S1_iEE
00000000004da660 W _ZN2ft7RB_treeIKiiNS_4pairIS1_iEESt4lessIS1_ESaIS3_EE21delete_one_child_nodeEPNS_7RB_nodeIS3_S1_iEE
00000000004daa00 W _ZN2ft7RB_treeIKiiNS_4pairIS1_iEESt4lessIS1_ESaIS3_EE21delete_two_child_nodeEPNS_7RB_nodeIS3_S1_iEE
00000000004dafe0 W _ZN2ft7RB_treeIKiiNS_4pairIS1_iEESt4lessIS1_ESaIS3_EE22balance_after_deletionEPNS_7RB_nodeIS3_S1_iEE
00000000004de940 W _ZN2ft7RB_treeIKiiNS_4pairIS1_iEESt4lessIS1_ESaIS3_EE22check_basic_conditionsEPNS_7RB_nodeIS3_S1_iEE
00000000004dbf70 W _ZN2ft7RB_treeIKiiNS_4pairIS1_iEESt4lessIS1_ESaIS3_EE22destroy_and_deallocateEPNS_7RB_nodeIS3_S1_iEE
00000000004dc9b0 W _ZN2ft7RB_treeIKiiNS_4pairIS1_iEESt4lessIS1_ESaIS3_EE24after_deletion_left_turnEPNS_7RB_nodeIS3_S1_iEE
00000000004dcde0 W _ZN2ft7RB_treeIKiiNS_4pairIS1_iEESt4lessIS1_ESaIS3_EE25after_deletion_right_turnEPNS_7RB_nodeIS3_S1_iEE
00000000004dd380 W _ZN2ft7RB_treeIKiiNS_4pairIS1_iEESt4lessIS1_ESaIS3_EE3endEv
00000000004e0d30 W _ZN2ft7RB_treeIKiiNS_4pairIS1_iEESt4lessIS1_ESaIS3_EE4findERS1_
000000000054f180 W _ZN2ft7RB_treeIKiiNS_4pairIS1_iEESt4lessIS1_ESaIS3_EE4rendEv
00000000004d9b80 W _ZN2ft7RB_treeIKiiNS_4pairIS1_iEESt4lessIS1_ESaIS3_EE5beginEv
00000000004d91c0 W _ZN2ft7RB_treeIKiiNS_4pairIS1_iEESt4lessIS1_ESaIS3_EE5clearEv
00000000004d9410 W _ZN2ft7RB_treeIKiiNS_4pairIS1_iEESt4lessIS1_ESaIS3_EE5eraseENS_12RBT_iteratorINS_7RB_nodeIS3_S1_iEES3_EE
000000000054eae0 W _ZN2ft7RB_treeIKiiNS_4pairIS1_iEESt4lessIS1_ESaIS3_EE6rbeginEv
00000000004de6d0 W _ZN2ft7RB_treeIKiiNS_4pairIS1_iEESt4lessIS1_ESaIS3_EE7balanceEPNS_7RB_nodeIS3_S1_iEE
00000000004d8200 W _ZN2ft7RB_treeIKiiNS_4pairIS1_iEESt4lessIS1_ESaIS3_EEC2ERKS5_RKSaINS_7RB_nodeIS3_S1_iEEE
00000000004d8f40 W _ZN2ft7RB_treeIKiiNS_4pairIS1_iEESt4lessIS1_ESaIS3_EED0Ev
00000000004d8d30 W _ZN2ft7RB_treeIKiiNS_4pairIS1_iEESt4lessIS1_ESaIS3_EED2Ev
000000000055fe90 W _ZN2ft7RB_treeIKiiNS_4pairIS1_iEESt7greaterIS1_ESaIS3_EE10color_flipEPNS_7RB_nodeIS3_S1_iEE
000000000055a4c0 W _ZN2ft7RB_treeIKiiNS_4pairIS1_iEESt7greaterIS1_ESaIS3_EE12find_nodeptrENS_12RBT_iteratorINS_7RB_nodeIS3_S1_iEES3_EE
000000000055fd50 W _ZN2ft7RB_treeIKiiNS_4pairIS1_iEESt7greaterIS1_ESaIS3_EE13get_aunt_nodeEPNS_7RB_nodeIS3_S1_iEE
000000000055f440 W _ZN2ft7RB_treeIKiiNS_4pairIS1_iEESt7greaterIS1_ESaIS3_EE13left_rotationEPNS_7RB_nodeIS3_S1_iEE
000000000055da10 W _ZN2ft7RB_treeIKiiNS_4pairIS1_iEESt7greaterIS1_ESaIS3_EE14insert_elementERKS3_
000000000055ebb0 W _ZN2ft7RB_treeIKiiNS_4pairIS1_iEESt7greaterIS1_ESaIS3_EE14right_rotationEPNS_7RB_nodeIS3_S1_iEE
000000000055ce40 W _ZN2ft7RB_treeIKiiNS_4pairIS1_iEESt7greaterIS1_ESaIS3_EE16get_brother_nodeEPNS_7RB_nodeIS3_S1_iEE
000000000055d830 W _ZN2ft7RB_treeIKiiNS_4pairIS1_iEESt7greaterIS1_ESaIS3_EE16get_gparent_nodeEPNS_7RB_nodeIS3_S1_iEE
000000000055ca80 W _ZN2ft7RB_treeIKiiNS_4pairIS1_iEESt7greaterIS1_ESaIS3_EE17create_null_leafsEPNS_7RB_nodeIS3_S1_iEE
000000000055a900 W _ZN2ft7RB_treeIKiiNS_4pairIS1_iEESt7greaterIS1_ESaIS3_EE18delete_lonely_nodeEPNS_7RB_nodeIS3_S1_iEE
000000000055c5f0 W _ZN2ft7RB_treeIKiiNS_4pairIS1_iEESt7greaterIS1_ESaIS3_EE18replace_node_valueERKS3_PNS_7RB_nodeIS3_S1_iEE
000000000055f0a0 W _ZN2ft7RB_treeIKiiNS_4pairIS1_iEESt7greaterIS1_ESaIS3_EE19left_right_rotationEPNS_7RB_nodeIS3_S1_iEE
000000000055f9b0 W _ZN2ft7RB_treeIKiiNS_4pairIS1_iEESt7greaterIS1_ESaIS3_EE19right_left_rotationEPNS_7RB_nodeIS3_S1_iEE
000000000055ad50 W _ZN2ft7RB_treeIKiiNS_4pairIS1_iEESt7greaterIS1_ESaIS3_EE21delete_one_child_nodeEPNS_7RB_nodeIS3_S1_iEE
000000000055b0f0 W _ZN2ft7RB_treeIKiiNS_4pairIS1_iEESt7greaterIS1_ESaIS3_EE21delete_two_child_nodeEPNS_7RB_nodeIS3_S1_iEE
000000000055b6d0 W _ZN2ft7RB_treeIKiiNS_4pairIS1_iEESt7greaterIS1_ESaIS3_EE22balance_after_deletionEPNS_7RB_nodeIS3_S1_iEE
000000000055e6f0 W _ZN2ft7RB_treeIKiiNS_4pairIS1_iEESt7greaterIS1_ESaIS3_EE22check_basic_conditionsEPNS_7RB_nodeIS3_S1_iEE
000000000055c5a0 W _ZN2ft7RB_treeIKiiNS_4pairIS1_iEESt7greaterIS1_ESaIS3_EE22destroy_and_deallocateEPNS_7RB_nodeIS3_S1_iEE
000000000055cfe0 W _ZN2ft7RB_treeIKiiNS_4pairIS1_iEESt7greaterIS1_ESaIS3_EE24after_deletion_left_turnEPNS_7RB_nodeIS3_S1_iEE
000000000055d410 W _ZN2ft7RB_treeIKiiNS_4pairIS1_iEESt7greaterIS1_ESaIS3_EE25after_deletion_right_turnEPNS_7RB_nodeIS3_S1_iEE
000000000055d9b0 W _ZN2ft7RB_treeIKiiNS_4pairIS1_iEESt7greaterIS1_ESaIS3_EE3endEv
000000000055a350 W _ZN2ft7RB_treeIKiiNS_4pairIS1_iEESt7greaterIS1_ESaIS3_EE5beginEv
00000000005599d0 W _ZN2ft7RB_treeIKiiNS_4pairIS1_iEESt7greaterIS1_ESaIS3_EE5clearEv
0000000000559be0 W _ZN2ft7RB_treeIKiiNS_4pairIS1_iEESt7greaterIS1_ESaIS3_EE5eraseENS_12RBT_iteratorINS_7RB_nodeIS3_S1_iEES3_EE
000000000055e650 W _ZN2ft7RB_treeIKiiNS_4pairIS1_iEESt7greaterIS1_ESaIS3_EE7balanceEPNS_7RB_nodeIS3_S1_iEE
0000000000559070 W _ZN2ft7RB_treeIKiiNS_4pairIS1_iEESt7greaterIS1_ESaIS3_EEC2ERKS5_RKSaINS_7RB_nodeIS3_S1_iEEE
0000000000559980 W _ZN2ft7RB_treeIKiiNS_4pairIS1_iEESt7greaterIS1_ESaIS3_EED0Ev
0000000000559780 W _ZN2ft7RB_treeIKiiNS_4pairIS1_iEESt7greaterIS1_ESaIS3_EED2Ev
0000000000524dc0 W _ZN2ft7RB_treeINSt7__cxx1112basic_stringIcSt11char_traitsIcESaIcEEES6_KS6_St4lessIS6_ESaIS6_EE10color_flipEPNS_7RB_nodeIS7_S6_S6_EE
0000000000527620 W _ZN2ft7RB_treeINSt7__cxx1112basic_stringIcSt11char_traitsIcESaIcEEES6_KS6_St4lessIS6_ESaIS6_EE11lower_boundERS7_
0000000000527a50 W _ZN2ft7RB_treeINSt7__cxx1112basic_stringIcSt11char_traitsIcESaIcEEES6_KS6_St4lessIS6_ESaIS6_EE11upper_boundERS7_
000000000051e4e0 W _ZN2ft7RB_treeINSt7__cxx1112basic_stringIcSt11char_traitsIcESaIcEEES6_KS6_St4lessIS6_ESaIS6_EE12find_nodeptrENS_12RBT_iteratorINS_7RB_nodeIS7_S6_S6_EES7_EE
0000000000524c80 W _ZN2ft7RB_treeINSt7__cxx1112basic_stringIcSt11char_traitsIcESaIcEEES6_KS6_St4lessIS6_ESaIS6_EE13get_aunt_nodeEPNS_7RB_nodeIS7_S6_S6_EE
0000000000524370 W _ZN2ft7RB_treeINSt7__cxx1112basic_stringIcSt11char_traitsIcESaIcEEES6_KS6_St4lessIS6_ESaIS6_EE13left_rotationEPNS_7RB_nodeIS7_S6_S6_EE
00000000005221f0 W _ZN2ft7RB_treeINSt7__cxx1112basic_stringIcSt11char_traitsIcESaIcEEES6_KS6_St4lessIS6_ESaIS6_EE14insert_elementERS7_
0000000000523ae0 W _ZN2ft7RB_treeINSt7__cxx1112basic_stringIcSt11char_traitsIcESaIcEEES6_KS6_St4lessIS6_ESaIS6_EE14right_rotationEPNS_7RB_nodeIS7_S6_S6_EE
0000000000521590 W _ZN2ft7RB_treeINSt7__cxx1112basic_stringIcSt11char_traitsIcESaIcEEES6_KS6_St4lessIS6_ESaIS6_EE16get_brother_nodeEPNS_7RB_nodeIS7_S6_S6_EE
0000000000521f80 W _ZN2ft7RB_treeINSt7__cxx1112basic_stringIcSt11char_traitsIcESaIcEEES6_KS6_St4lessIS6_ESaIS6_EE16get_gparent_nodeEPNS_7RB_nodeIS7_S6_S6_EE
0000000000521020 W _ZN2ft7RB_treeINSt7__cxx1112basic_stringIcSt11char_traitsIcESaIcEEES6_KS6_St4lessIS6_ESaIS6_EE17create_null_leafsEPNS_7RB_nodeIS7_S6_S6_EE
000000000051ec90 W _ZN2ft7RB_treeINSt7__cxx1112basic_stringIcSt11char_traitsIcESaIcEEES6_KS6_St4lessIS6_ESaIS6_EE18delete_lonely_nodeEPNS_7RB_nodeIS7_S6_S6_EE
0000000000520a10 W _ZN2ft7RB_treeINSt7__cxx1112basic_stringIcSt11char_traitsIcESaIcEEES6_KS6_St4lessIS6_ESaIS6_EE18replace_node_valueERS7_PNS_7RB_nodeIS7_S6_S6_EE
0000000000523fd0 W _ZN2ft7RB_treeINSt7__cxx1112basic_stringIcSt11char_traitsIcESaIcEEES6_KS6_St4lessIS6_ESaIS6_EE19left_right_rotationEPNS_7RB_nodeIS7_S6_S6_EE
00000000005248e0 W _ZN2ft7RB_treeINSt7__cxx1112basic_stringIcSt11char_traitsIcESaIcEEES6_KS6_St4lessIS6_ESaIS6_EE19right_left_rotationEPNS_7RB_nodeIS7_S6_S6_EE
000000000051f0e0 W _ZN2ft7RB_treeINSt7__cxx1112basic_stringIcSt11char_traitsIcESaIcEEES6_KS6_St4lessIS6_ESaIS6_EE21delete_one_child_nodeEPNS_7RB_nodeIS7_S6_S6_EE
000000000051f480 W _ZN2ft7RB_treeINSt7__cxx1112basic_stringIcSt11char_traitsIcESaIcEEES6_KS6_St4lessIS6_ESaIS6_EE21delete_two_child_nodeEPNS_7RB_nodeIS7_S6_S6_EE
000000000051fa60 W _ZN2ft7RB_treeINSt7__cxx1112basic_stringIcSt11char_traitsIcESaIcEEES6_KS6_St4lessIS6_ESaIS6_EE22balance_after_deletionEPNS_7RB_nodeIS7_S6_S6_EE
0000000000523620 W _ZN2ft7RB_treeINSt7__cxx1112basic_stringIcSt11char_traitsIcESaIcEEES6_KS6_St4lessIS6_ESaIS6_EE22check_basic_conditionsEPNS_7RB_nodeIS7_S6_S6_EE
00000000005209c0 W _ZN2ft7RB_treeINSt7__cxx1112basic_stringIcSt11char_traitsIcESaIcEEES6_KS6_St4lessIS6_ESaIS6_EE22destroy_and_deallocateEPNS_7RB_nodeIS7_S6_S6_EE
0000000000521730 W _ZN2ft7RB_treeINSt7__cxx1112basic_stringIcSt11char_traitsIcESaIcEEES6_KS6_St4lessIS6_ESaIS6_EE24after_deletion_left_turnEPNS_7RB_nodeIS7_S6_S6_EE
0000000000521b60 W _ZN2ft7RB_treeINSt7__cxx1112basic_stringIcSt11char_traitsIcESaIcEEES6_KS6_St4lessIS6_ESaIS6_EE25after_deletion_right_turnEPNS_7RB_nodeIS7_S6_S6_EE
0000000000522100 W _ZN2ft7RB_treeINSt7__cxx1112basic_stringIcSt11char_traitsIcESaIcEEES6_KS6_St4lessIS6_ESaIS6_EE3endEv
00000000005269c0 W _ZN2ft7RB_treeINSt7__cxx1112basic_stringIcSt11char_traitsIcESaIcEEES6_KS6_St4lessIS6_ESaIS6_EE4findERS7_
0000000000526220 W _ZN2ft7RB_treeINSt7__cxx1112basic_stringIcSt11char_traitsIcESaIcEEES6_KS6_St4lessIS6_ESaIS6_EE4swapERSB_
000000000051e370 W _ZN2ft7RB_treeINSt7__cxx1112basic_stringIcSt11char_traitsIcESaIcEEES6_KS6_St4lessIS6_ESaIS6_EE5beginEv
000000000051d950 W _ZN2ft7RB_treeINSt7__cxx1112basic_stringIcSt11char_traitsIcESaIcEEES6_KS6_St4lessIS6_ESaIS6_EE5clearEv
000000000051dbb0 W _ZN2ft7RB_treeINSt7__cxx1112basic_stringIcSt11char_traitsIcESaIcEEES6_KS6_St4lessIS6_ESaIS6_EE5eraseENS_12RBT_iteratorINS_7RB_nodeIS7_S6_S6_EES7_EE
00000000005233b0 W _ZN2ft7RB_treeINSt7__cxx1112basic_stringIcSt11char_traitsIcESaIcEEES6_KS6_St4lessIS6_ESaIS6_EE7balanceEPNS_7RB_nodeIS7_S6_S6_EE
000000000051c950 W _ZN2ft7RB_treeINSt7__cxx1112basic_stringIcSt11char_traitsIcESaIcEEES6_KS6_St4lessIS6_ESaIS6_EEC2ERKS9_RKSaINS_7RB_nodeIS7_S6_S6_EEE
0000000000526460 W _ZN2ft7RB_treeINSt7__cxx1112basic_stringIcSt11char_traitsIcESaIcEEES6_KS6_St4lessIS6_ESaIS6_EEC2ERKSB_
000000000051d6d0 W _ZN2ft7RB_treeINSt7__cxx1112basic_stringIcSt11char_traitsIcESaIcEEES6_KS6_St4lessIS6_ESaIS6_EED0Ev
000000000051d4c0 W _ZN2ft7RB_treeINSt7__cxx1112basic_stringIcSt11char_traitsIcESaIcEEES6_KS6_St4lessIS6_ESaIS6_EED2Ev
0000000000526650 W _ZN2ft7RB_treeINSt7__cxx1112basic_stringIcSt11char_traitsIcESaIcEEES6_KS6_St4lessIS6_ESaIS6_EEaSERKSB_
0000000000513960 W _ZN2ft7RB_treeIiiKiSt4lessIiESaIiEE10color_flipEPNS_7RB_nodeIS1_iiEE
000000000050d470 W _ZN2ft7RB_treeIiiKiSt4lessIiESaIiEE12find_nodeptrENS_12RBT_iteratorINS_7RB_nodeIS1_iiEES1_EE
0000000000513820 W _ZN2ft7RB_treeIiiKiSt4lessIiESaIiEE13get_aunt_nodeEPNS_7RB_nodeIS1_iiEE
0000000000512f10 W _ZN2ft7RB_treeIiiKiSt4lessIiESaIiEE13left_rotationEPNS_7RB_nodeIS1_iiEE
0000000000510e80 W _ZN2ft7RB_treeIiiKiSt4lessIiESaIiEE14insert_elementERS1_
0000000000512680 W _ZN2ft7RB_treeIiiKiSt4lessIiESaIiEE14right_rotationEPNS_7RB_nodeIS1_iiEE
0000000000510010 W _ZN2ft7RB_treeIiiKiSt4lessIiESaIiEE16get_brother_nodeEPNS_7RB_nodeIS1_iiEE
0000000000510a00 W _ZN2ft7RB_treeIiiKiSt4lessIiESaIiEE16get_gparent_nodeEPNS_7RB_nodeIS1_iiEE
000000000050fc50 W _ZN2ft7RB_treeIiiKiSt4lessIiESaIiEE17create_null_leafsEPNS_7RB_nodeIS1_iiEE
000000000050da50 W _ZN2ft7RB_treeIiiKiSt4lessIiESaIiEE18delete_lonely_nodeEPNS_7RB_nodeIS1_iiEE
000000000050f7c0 W _ZN2ft7RB_treeIiiKiSt4lessIiESaIiEE18replace_node_valueERS1_PNS_7RB_nodeIS1_iiEE
0000000000512b70 W _ZN2ft7RB_treeIiiKiSt4lessIiESaIiEE19left_right_rotationEPNS_7RB_nodeIS1_iiEE
0000000000513480 W _ZN2ft7RB_treeIiiKiSt4lessIiESaIiEE19right_left_rotationEPNS_7RB_nodeIS1_iiEE
000000000050dea0 W _ZN2ft7RB_treeIiiKiSt4lessIiESaIiEE21delete_one_child_nodeEPNS_7RB_nodeIS1_iiEE
000000000050e240 W _ZN2ft7RB_treeIiiKiSt4lessIiESaIiEE21delete_two_child_nodeEPNS_7RB_nodeIS1_iiEE
000000000050e820 W _ZN2ft7RB_treeIiiKiSt4lessIiESaIiEE22balance_after_deletionEPNS_7RB_nodeIS1_iiEE
00000000005121c0 W _ZN2ft7RB_treeIiiKiSt4lessIiESaIiEE22check_basic_conditionsEPNS_7RB_nodeIS1_iiEE
000000000050f770 W _ZN2ft7RB_treeIiiKiSt4lessIiESaIiEE22destroy_and_deallocateEPNS_7RB_nodeIS1_iiEE
00000000005101b0 W _ZN2ft7RB_treeIiiKiSt4lessIiESaIiEE24after_deletion_left_turnEPNS_7RB_nodeIS1_iiEE
00000000005105e0 W _ZN2ft7RB_treeIiiKiSt4lessIiESaIiEE25after_deletion_right_turnEPNS_7RB_nodeIS1_iiEE
0000000000510b80 W _ZN2ft7RB_treeIiiKiSt4lessIiESaIiEE3endEv
0000000000513fd0 W _ZN2ft7RB_treeIiiKiSt4lessIiESaIiEE4rendEv
000000000050d300 W _ZN2ft7RB_treeIiiKiSt4lessIiESaIiEE5beginEv
000000000050c940 W _ZN2ft7RB_treeIiiKiSt4lessIiESaIiEE5clearEv
000000000050cb90 W _ZN2ft7RB_treeIiiKiSt4lessIiESaIiEE5eraseENS_12RBT_iteratorINS_7RB_nodeIS1_iiEES1_EE
0000000000513ae0 W _ZN2ft7RB_treeIiiKiSt4lessIiESaIiEE6rbeginEv
0000000000511f50 W _ZN2ft7RB_treeIiiKiSt4lessIiESaIiEE7balanceEPNS_7RB_nodeIS1_iiEE
000000000050b890 W _ZN2ft7RB_treeIiiKiSt4lessIiESaIiEEC2ERKS3_RKSaINS_7RB_nodeIS1_iiEEE
000000000050c620 W _ZN2ft7RB_treeIiiKiSt4lessIiESaIiEED0Ev
000000000050c410 W _ZN2ft7RB_treeIiiKiSt4lessIiESaIiEED2Ev
000000000051b040 W _ZN2ft7RB_treeIiiKiSt7greaterIiESaIiEE10color_flipEPNS_7RB_nodeIS1_iiEE
0000000000515670 W _ZN2ft7RB_treeIiiKiSt7greaterIiESaIiEE12find_nodeptrENS_12RBT_iteratorINS_7RB_nodeIS1_iiEES1_EE
000000000051af00 W _ZN2ft7RB_treeIiiKiSt7greaterIiESaIiEE13get_aunt_nodeEPNS_7RB_nodeIS1_iiEE
000000000051a5f0 W _ZN2ft7RB_treeIiiKiSt7greaterIiESaIiEE13left_rotationEPNS_7RB_nodeIS1_iiEE
0000000000518bc0 W _ZN2ft7RB_treeIiiKiSt7greaterIiESaIiEE14insert_elementERS1_
0000000000519d60 W _ZN2ft7RB_treeIiiKiSt7greaterIiESaIiEE14right_rotationEPNS_7RB_nodeIS1_iiEE
0000000000517ff0 W _ZN2ft7RB_treeIiiKiSt7greaterIiESaIiEE16get_brother_nodeEPNS_7RB_nodeIS1_iiEE
00000000005189e0 W _ZN2ft7RB_treeIiiKiSt7greaterIiESaIiEE16get_gparent_nodeEPNS_7RB_nodeIS1_iiEE
0000000000517c30 W _ZN2ft7RB_treeIiiKiSt7greaterIiESaIiEE17create_null_leafsEPNS_7RB_nodeIS1_iiEE
0000000000515ab0 W _ZN2ft7RB_treeIiiKiSt7greaterIiESaIiEE18delete_lonely_nodeEPNS_7RB_nodeIS1_iiEE
00000000005177a0 W _ZN2ft7RB_treeIiiKiSt7greaterIiESaIiEE18replace_node_valueERS1_PNS_7RB_nodeIS1_iiEE
000000000051a250 W _ZN2ft7RB_treeIiiKiSt7greaterIiESaIiEE19left_right_rotationEPNS_7RB_nodeIS1_iiEE
000000000051ab60 W _ZN2ft7RB_treeIiiKiSt7greaterIiESaIiEE19right_left_rotationEPNS_7RB_nodeIS1_iiEE
0000000000515f00 W _ZN2ft7RB_treeIiiKiSt7greaterIiESaIiEE21delete_one_child_nodeEPNS_7RB_nodeIS1_iiEE
00000000005162a0 W _ZN2ft7RB_treeIiiKiSt7greaterIiESaIiEE21delete_two_child_nodeEPNS_7RB_nodeIS1_iiEE
0000000000516880 W _ZN2ft7RB_treeIiiKiSt7greaterIiESaIiEE22balance_after_deletionEPNS_7RB_nodeIS1_iiEE
00000000005198a0 W _ZN2ft7RB_treeIiiKiSt7greaterIiESaIiEE22check_basic_conditionsEPNS_7RB_nodeIS1_iiEE
0000000000517750 W _ZN2ft7RB_treeIiiKiSt7greaterIiESaIiEE22destroy_and_deallocateEPNS_7RB_nodeIS1_iiEE
0000000000518190 W _ZN2ft7RB_treeIiiKiSt7greaterIiESaIiEE24after_deletion_left_turnEPNS_7RB_nodeIS1_iiEE
00000000005185c0 W _ZN2ft7RB_treeIiiKiSt7greaterIiESaIiEE25after_deletion_right_turnEPNS_7RB_nodeIS1_iiEE
0000000000518b60 W _ZN2ft7RB_treeIiiKiSt7greaterIiESaIiEE3endEv
0000000000515500 W _ZN2ft7RB_treeIiiKiSt7greaterIiESaIiEE5beginEv
0000000000514b80 W _ZN2ft7RB_treeIiiKiSt7greaterIiESaIiEE5clearEv
0000000000514d90 W _ZN2ft7RB_treeIiiKiSt7greaterIiESaIiEE5eraseENS_12RBT_iteratorINS_7RB_nodeIS1_iiEES1_EE
0000000000519800 W _ZN2ft7RB_treeIiiKiSt7greaterIiESaIiEE7balanceEPNS_7RB_nodeIS1_iiEE
00000000005141d0 W _ZN2ft7RB_treeIiiKiSt7greaterIiESaIiEEC2ERKS3_RKSaINS_7RB_nodeIS1_iiEEE
0000000000514b30 W _ZN2ft7RB_treeIiiKiSt7greaterIiESaIiEED0Ev
0000000000514930 W _ZN2ft7RB_treeIiiKiSt7greaterIiESaIiEED2Ev
00000000004fb840 W _ZN2ft7RB_treeIiiNS_4pairIKiiEESt4lessIiESaIS3_EE10color_flipEPNS_7RB_nodeIS3_iiEE
00000000004f4e20 W _ZN2ft7RB_treeIiiNS_4pairIKiiEESt4lessIiESaIS3_EE12find_nodeptrENS_12RBT_iteratorINS_7RB_nodeIS3_iiEES3_EE
00000000004fb700 W _ZN2ft7RB_treeIiiNS_4pairIKiiEESt4lessIiESaIS3_EE13get_aunt_nodeEPNS_7RB_nodeIS3_iiEE
00000000004fadf0 W _ZN2ft7RB_treeIiiNS_4pairIKiiEESt4lessIiESaIS3_EE13left_rotationEPNS_7RB_nodeIS3_iiEE
00000000004f8d60 W _ZN2ft7RB_treeIiiNS_4pairIKiiEESt4lessIiESaIS3_EE14insert_elementERKS3_
00000000004fa560 W _ZN2ft7RB_treeIiiNS_4pairIKiiEESt4lessIiESaIS3_EE14right_rotationEPNS_7RB_nodeIS3_iiEE
00000000004f7a50 W _ZN2ft7RB_treeIiiNS_4pairIKiiEESt4lessIiESaIS3_EE16get_brother_nodeEPNS_7RB_nodeIS3_iiEE
00000000004f8440 W _ZN2ft7RB_treeIiiNS_4pairIKiiEESt4lessIiESaIS3_EE16get_gparent_nodeEPNS_7RB_nodeIS3_iiEE
00000000004f7690 W _ZN2ft7RB_treeIiiNS_4pairIKiiEESt4lessIiESaIS3_EE17create_null_leafsEPNS_7RB_nodeIS3_iiEE
00000000004f5400 W _ZN2ft7RB_treeIiiNS_4pairIKiiEESt4lessIiESaIS3_EE18delete_lonely_nodeEPNS_7RB_nodeIS3_iiEE
00000000004f7200 W _ZN2ft7RB_treeIiiNS_4pairIKiiEESt4lessIiESaIS3_EE18replace_node_valueERKS3_PNS_7RB_nodeIS3_iiEE
00000000004faa50 W _ZN2ft7RB_treeIiiNS_4pairIKiiEESt4lessIiESaIS3_EE19left_right_rotationEPNS_7RB_nodeIS3_iiEE
00000000004fb360 W _ZN2ft7RB_treeIiiNS_4pairIKiiEESt4lessIiESaIS3_EE19right_left_rotationEPNS_7RB_nodeIS3_iiEE
00000000004f5850 W _ZN2ft7RB_treeIiiNS_4pairIKiiEESt4lessIiESaIS3_EE21delete_one_child_nodeEPNS_7RB_nodeIS3_iiEE
00000000004f5bf0 W _ZN2ft7RB_treeIiiNS_4pairIKiiEESt4lessIiESaIS3_EE21delete_two_child_nodeEPNS_7RB_nodeIS3_iiEE
00000000004f61d0 W _ZN2ft7RB_treeIiiNS_4pairIKiiEESt4lessIiESaIS3_EE22balance_after_deletionEPNS_7RB_nodeIS3_iiEE
00000000004fa0a0 W _ZN2ft7RB_treeIiiNS_4pairIKiiEESt4lessIiESaIS3_EE22check_basic_conditionsEPNS_7RB_nodeIS3_iiEE
00000000004f71b0 W _ZN2ft7RB_treeIiiNS_4pairIKiiEESt4lessIiESaIS3_EE22destroy_and_deallocateEPNS_7RB_nodeIS3_iiEE
00000000004f7bf0 W _ZN2ft7RB_treeIiiNS_4pairIKiiEESt4lessIiESaIS3_EE24after_deletion_left_turnEPNS_7RB_nodeIS3_iiEE
00000000004f8020 W _ZN2ft7RB_treeIiiNS_4pairIKiiEESt4lessIiESaIS3_EE25after_deletion_right_turnEPNS_7RB_nodeIS3_iiEE
00000000004f85c0 W _ZN2ft7RB_treeIiiNS_4pairIKiiEESt4lessIiESaIS3_EE3endEv
00000000004fba40 W _ZN2ft7RB_treeIiiNS_4pairIKiiEESt4lessIiESaIS3_EE4findERS2_
00000000004f4cb0 W _ZN2ft7RB_treeIiiNS_4pairIKiiEESt4lessIiESaIS3_EE5beginEv
00000000004f42f0 W _ZN2ft7RB_treeIiiNS_4pairIKiiEESt4lessIiESaIS3_EE5clearEv
00000000004f4540 W _ZN2ft7RB_treeIiiNS_4pairIKiiEESt4lessIiESaIS3_EE5eraseENS_12RBT_iteratorINS_7RB_nodeIS3_iiEES3_EE
00000000004f9e30 W _ZN2ft7RB_treeIiiNS_4pairIKiiEESt4lessIiESaIS3_EE7balanceEPNS_7RB_nodeIS3_iiEE
00000000004f33d0 W _ZN2ft7RB_treeIiiNS_4pairIKiiEESt4lessIiESaIS3_EEC2ERKS5_RKSaINS_7RB_nodeIS3_iiEEE
00000000004f4070 W _ZN2ft7RB_treeIiiNS_4pairIKiiEESt4lessIiESaIS3_EED0Ev
00000000004f3e60 W _ZN2ft7RB_treeIiiNS_4pairIKiiEESt4lessIiESaIS3_EED2Ev
0000000000523230 W _ZN2ft9make_pairINS_12RBT_iteratorINS_7RB_nodeIKNSt7__cxx1112basic_stringIcSt11char_traitsIcESaIcEEES8_S8_EES9_EEbEENS_4pairIT_T0_EESD_SE_
0000000000511dd0 W _ZN2ft9make_pairINS_12RBT_iteratorINS_7RB_nodeIKiiiEES3_EEbEENS_4pairIT_T0_EES7_S8_
00000000005563a0 W _ZN2ft9make_pairINS_12RBT_iteratorINS_7RB_nodeINS_4pairIKNSt7__cxx1112basic_stringIcSt11char_traitsIcESaIcEEEiEESA_iEESB_EEbEENS3_IT_T0_EESE_SF_
0000000000568120 W _ZN2ft9make_pairINS_12RBT_iteratorINS_7RB_nodeINS_4pairIKi8LeakTestIiEEES4_S6_EES7_EEbEENS3_IT_T0_EESA_SB_
0000000000571ba0 W _ZN2ft9make_pairINS_12RBT_iteratorINS_7RB_nodeINS_4pairIKiNSt7__cxx1112basic_stringIcSt11char_traitsIcESaIcEEEEES4_SA_EESB_EEbEENS3_IT_T0_EESE_SF_
00000000004de550 W _ZN2ft9make_pairINS_12RBT_iteratorINS_7RB_nodeINS_4pairIKiiEES4_iEES5_EEbEENS3_IT_T0_EES8_S9_
00000000004f9cb0 W _ZN2ft9make_pairINS_12RBT_iteratorINS_7RB_nodeINS_4pairIKiiEEiiEES5_EEbEENS3_IT_T0_EES8_S9_
0000000000555070 W _ZN2ft9make_pairINSt7__cxx1112basic_stringIcSt11char_traitsIcESaIcEEEiEENS_4pairIT_T0_EES8_S9_
0000000000522f20 W _ZN2ft9make_pairIPNS_7RB_nodeIKNSt7__cxx1112basic_stringIcSt11char_traitsIcESaIcEEES7_S7_EEbEENS_4pairIT_T0_EESC_SD_
0000000000511ac0 W _ZN2ft9make_pairIPNS_7RB_nodeIKiiiEEbEENS_4pairIT_T0_EES6_S7_
0000000000556090 W _ZN2ft9make_pairIPNS_7RB_nodeINS_4pairIKNSt7__cxx1112basic_stringIcSt11char_traitsIcESaIcEEEiEES9_iEEbEENS2_IT_T0_EESD_SE_
0000000000567e10 W _ZN2ft9make_pairIPNS_7RB_nodeINS_4pairIKi8LeakTestIiEEES3_S5_EEbEENS2_IT_T0_EES9_SA_
0000000000571890 W _ZN2ft9make_pairIPNS_7RB_nodeINS_4pairIKiNSt7__cxx1112basic_stringIcSt11char_traitsIcESaIcEEEEES3_S9_EEbEENS2_IT_T0_EESD_SE_
00000000004de240 W _ZN2ft9make_pairIPNS_7RB_nodeINS_4pairIKiiEES3_iEEbEENS2_IT_T0_EES7_S8_
00000000004f99a0 W _ZN2ft9make_pairIPNS_7RB_nodeINS_4pairIKiiEEiiEEbEENS2_IT_T0_EES7_S8_
000000000054b740 W _ZN2ft9make_pairIi8LeakTestIiEEENS_4pairIT_T0_EES4_S5_
0000000000570830 W _ZN2ft9make_pairIiNSt7__cxx1112basic_stringIcSt11char_traitsIcESaIcEEEEENS_4pairIT_T0_EES8_S9_
000000000054c2a0 W _ZN2ft9make_pairIiPKcEENS_4pairIT_T0_EES4_S5_
00000000004d57d0 W _ZN2ft9make_pairIiiEENS_4pairIT_T0_EES2_S3_
0000000000537e20 W _ZN2fteqIiKiEEbRKNS_22random_access_iteratorIT_EERKNS2_IT0_EE
0000000000537f20 W _ZN2ftgeIiKiEEbRKNS_22random_access_iteratorIT_EERKNS2_IT0_EE
0000000000537ea0 W _ZN2ftgtIiKiEEbRKNS_22random_access_iteratorIT_EERKNS2_IT0_EE
0000000000537f60 W _ZN2ftleIiKiEEbRKNS_22random_access_iteratorIT_EERKNS2_IT0_EE
0000000000537ee0 W _ZN2ftltIiKiEEbRKNS_22random_access_iteratorIT_EERKNS2_IT0_EE
00000000004e5180 W _ZN2ftmiI8LeakTestIiES2_EENS_22random_access_iteratorIT_E15difference_typeERKS5_RKNS3_IT0_EE
00000000005383b0 W _ZN2ftmiIKiS1_EENS_22random_access_iteratorIT_E15difference_typeERKS4_RKNS2_IT0_EE
000000000053b2f0 W _ZN2ftmiINS_6vectorI8LeakTestIiESaIS3_EEES5_EENS_22random_access_iteratorIT_E15difference_typeERKS8_RKNS6_IT0_EE
00000000004e79d0 W _ZN2ftmiINSt7__cxx1112basic_stringIcSt11char_traitsIcESaIcEEES6_EENS_22random_access_iteratorIT_E15difference_typeERKS9_RKNS7_IT0_EE
00000000004ff4e0 W _ZN2ftmiIccEENS_22random_access_iteratorIT_E15difference_typeERKS3_RKNS1_IT0_EE
0000000000538370 W _ZN2ftmiIiKiEENS_22random_access_iteratorIT_E15difference_typeERKS4_RKNS2_IT0_EE
00000000004ee3e0 W _ZN2ftmiIiiEENS_22random_access_iteratorIT_E15difference_typeERKS3_RKNS1_IT0_EE
00000000004d6bb0 W _ZN2ftmiIllEENS_22random_access_iteratorIT_E15difference_typeERKS3_RKNS1_IT0_EE
0000000000507fc0 W _ZN2ftneINS_12RBT_iteratorINS_7RB_nodeIKiiiEES3_EES5_EEbRKNS_16reverse_iteratorIT_EERKNS6_IT0_EE
0000000000549280 W _ZN2ftneINS_12RBT_iteratorINS_7RB_nodeINS_4pairIKiiEES4_iEEKS5_EENS1_IS6_S5_EEEEbRKNS_16reverse_iteratorIT_EERKNSA_IT0_EE
0000000000548ff0 W _ZN2ftneINS_12RBT_iteratorINS_7RB_nodeINS_4pairIKiiEES4_iEES5_EES7_EEbRKNS_16reverse_iteratorIT_EERKNS8_IT0_EE
0000000000538700 W _ZN2ftneINS_22random_access_iteratorIcEES2_EEbRKNS_16reverse_iteratorIT_EERKNS3_IT0_EE
0000000000537e60 W _ZN2ftneIiKiEEbRKNS_22random_access_iteratorIT_EERKNS2_IT0_EE
0000000000538330 W _ZN2ftplIKiEENS_22random_access_iteratorIT_EENS4_15difference_typeERKS4_
000000000049ec70 T _ZN6__asan10AsanTSDGetEv
000000000049ecb0 T _ZN6__asan10AsanTSDSetEPv
00000000004a61e0 T _ZN6__asan10AsanThread10stack_sizeEv
00000000004a6910 T _ZN6__asan10AsanThread11ThreadStartEy
00000000004a61b0 T _ZN6__asan10AsanThread12stack_bottomEv
00000000004a6ad0 T _ZN6__asan10AsanThread13AddrIsInStackEm
00000000004a6080 T _ZN6__asan10AsanThread16StartSwitchFiberEPPNS_9FakeStackEmm
00000000004a6100 T _ZN6__asan10AsanThread17FinishSwitchFiberEPNS_9FakeStackEPmS3_
00000000004a67f0 T _ZN6__asan10AsanThread20SetThreadStackAndTlsEPKNS0_11InitOptionsE
00000000004a6b20 T _ZN6__asan10AsanThread25GetStackFrameAccessByAddrEmPNS0_16StackFrameAccessE
00000000004a6f00 T _ZN6__asan10AsanThread27GetStackVariableShadowStartEm
00000000004a5fc0 T _ZN6__asan10AsanThread31ClearShadowForThreadStackAndTLSEv
00000000004a6230 T _ZN6__asan10AsanThread32AsyncSignalSafeLazyInitFakeStackEv
00000000004a63b0 T _ZN6__asan10AsanThread4InitEPKNS0_11InitOptionsE
00000000004a5cb0 T _ZN6__asan10AsanThread6CreateEPFPvS1_ES1_jPN11__sanitizer10StackTraceEb
00000000004a5df0 T _ZN6__asan10AsanThread7DestroyEv
00000000004a5db0 T _ZN6__asan10AsanThread7TSDDtorEPv
00000000004a6180 T _ZN6__asan10AsanThread9stack_topEv
00000000005de138 B _ZN6__asan10kMidMemBegE
00000000005de140 B _ZN6__asan10kMidMemEndE
000000000049ec10 T _ZN6__asan11AsanTSDInitEPFvPvE
000000000049c860 W _ZN6__asan11HeapProfile12ProcessChunkERKNS_13AsanChunkViewE
000000000049c5a0 W _ZN6__asan11HeapProfile5PrintEmm
0000000000421f50 T _ZN6__asan11asan_callocEmmPN11__sanitizer18BufferedStackTraceE
0000000000421720 T _ZN6__asan11asan_deleteEPvmmPN11__sanitizer18BufferedStackTraceENS_9AllocTypeE
00000000005de128 B _ZN6__asan11asan_initedE
0000000000421740 T _ZN6__asan11asan_mallocEmPN11__sanitizer18BufferedStackTraceE
0000000000422290 T _ZN6__asan11asan_vallocEmPN11__sanitizer18BufferedStackTraceE
00000000005de130 B _ZN6__asan11kHighMemEndE
0000000000427430 T _ZN6__asan12AsanActivateEv
000000000042ba20 T _ZN6__asan12ErrorGeneric5PrintEv
000000000042b350 T _ZN6__asan12ErrorGenericC1Ejmmmmbm
000000000042b350 T _ZN6__asan12ErrorGenericC2Ejmmmmbm
000000000049cc10 T _ZN6__asan12PoisonShadowEmmh
0000000000422660 T _ZN6__asan12asan_mz_sizeEPKv
00000000004222f0 T _ZN6__asan12asan_pvallocEmPN11__sanitizer18BufferedStackTraceE
00000000004220e0 T _ZN6__asan12asan_reallocEPvmPN11__sanitizer18BufferedStackTraceE
000000000049b3c0 T _ZN6__asan13AsanDlSymNextEPKc
00000000004327a0 T _ZN6__asan13SetThreadNameEPKc
00000000004a35a0 T _ZN6__asan13UnpoisonStackEmmPKc
00000000004223b0 T _ZN6__asan13asan_memalignEmmPN11__sanitizer18BufferedStackTraceENS_9AllocTypeE
0000000000427350 T _ZN6__asan14AsanDeactivateEv
0000000000428250 T _ZN6__asan14DescribeThreadEPNS_17AsanThreadContextE
00000000004a32b0 T _ZN6__asan15AsanInitFromRtlEv
000000000049cc00 T _ZN6__asan15CanPoisonMemoryEv
0000000000429be0 T _ZN6__asan15ErrorDoubleFree5PrintEv
000000000042cdb0 T _ZN6__asan15GetTLSFakeStackEv
000000000042fb70 T _ZN6__asan15InitializeFlagsEv
000000000049ecf0 T _ZN6__asan15PlatformTSDDtorEPv
000000000049ee00 T _ZN6__asan15PrintMemoryByteEPN11__sanitizer20InternalScopedStringEPKchbS4_
000000000042cdd0 T _ZN6__asan15SetTLSFakeStackEPNS_9FakeStackE
0000000000420a20 T _ZN6__asan16AllocatorOptions6CopyToEPNS_5FlagsEPN11__sanitizer11CommonFlagsE
00000000004209e0 T _ZN6__asan16AllocatorOptions7SetFromEPKNS_5FlagsEPKN11__sanitizer11CommonFlagsE
00000000004a69d0 T _ZN6__asan16CreateMainThreadEv
00000000004a15d0 W _ZN6__asan16ErrorDescription5PrintEv
000000000042ab70 T _ZN6__asan16ErrorOutOfMemory5PrintEv
00000000004a7220 T _ZN6__asan16GetCurrentThreadEv
000000000049b3d0 T _ZN6__asan16HandleDlopenInitEv
000000000049b3b0 T _ZN6__asan16ReadContextStackEPvPmS1_
000000000049f5e0 T _ZN6__asan16ReportDoubleFreeEmPN11__sanitizer18BufferedStackTraceE
00000000004a6a10 T _ZN6__asan16SetCurrentThreadEPNS_10AsanThreadE
00000000004a5b80 T _ZN6__asan17AsanThreadContext10OnFinishedEv
00000000004a5b40 T _ZN6__asan17AsanThreadContext9OnCreatedEPv
0000000000429b50 T _ZN6__asan17ErrorDeadlySignal5PrintEv
000000000049f2c0 W _ZN6__asan17ErrorDeadlySignalC2EjRKN11__sanitizer13SignalContextE
000000000042aea0 T _ZN6__asan17ErrorODRViolation5PrintEv
0000000000420980 T _ZN6__asan17GetAllocatorCacheEPNS_28AsanThreadLocalMallocStorageE
00000000004a04e0 T _ZN6__asan17ReportOutOfMemoryEmPN11__sanitizer18BufferedStackTraceE
00000000004a1850 T _ZN6__asan17ShowStatsAndAbortEv
0000000000421fe0 T _ZN6__asan17asan_reallocarrayEPvmmPN11__sanitizer18BufferedStackTraceE
0000000000429780 T _ZN6__asan18AddressDescriptionC1Emmb
0000000000429780 T _ZN6__asan18AddressDescriptionC2Emmb
000000000049b090 T _ZN6__asan18AsanApplyToGlobalsEPFvP13__asan_globalmEPKv
00000000005dd420 B _ZN6__asan18AsanMappingProfileE
000000000049eb00 T _ZN6__asan18AsanOnDeadlySignalEiPvS0_
00000000004209b0 T _ZN6__asan18GetQuarantineCacheEPNS_28AsanThreadLocalMallocStorageE
0000000000423ec0 W _ZN6__asan18QuarantineCallback7RecycleEPNS_9AsanChunkE
000000000049f200 T _ZN6__asan18ReportDeadlySignalERKN11__sanitizer13SignalContextE
00000000004a0be0 T _ZN6__asan18ReportGenericErrorEmmmmbmjb
00000000004a09a0 T _ZN6__asan18ReportODRViolationEPK13__asan_globaljS2_j
000000000049cbf0 T _ZN6__asan18SetCanPoisonMemoryEb
00000000004a5b90 T _ZN6__asan18asanThreadRegistryEv
0000000000422430 T _ZN6__asan18asan_aligned_allocEmmPN11__sanitizer18BufferedStackTraceE
00000000004226a0 T _ZN6__asan18asan_mz_force_lockEv
0000000000428110 T _ZN6__asan19AsanThreadIdAndName4InitEjPKc
0000000000428090 T _ZN6__asan19AsanThreadIdAndNameC1EPNS_17AsanThreadContextE
0000000000428190 T _ZN6__asan19AsanThreadIdAndNameC1Ej
0000000000428090 T _ZN6__asan19AsanThreadIdAndNameC2EPNS_17AsanThreadContextE
0000000000428190 T _ZN6__asan19AsanThreadIdAndNameC2Ej
000000000042a500 T _ZN6__asan19ErrorCallocOverflow5PrintEv
0000000000421080 T _ZN6__asan19GetAllocatorOptionsEPNS_16AllocatorOptionsE
0000000000420c50 T _ZN6__asan19InitializeAllocatorERKNS_16AllocatorOptionsE
000000000049b050 T _ZN6__asan19IsSystemHeapAddressEm
0000000000430f00 T _ZN6__asan19PrintGlobalLocationEPN11__sanitizer20InternalScopedStringERK13__asan_global
000000000049c4b0 T _ZN6__asan19ReplaceSystemMallocEv
00000000005dcca0 B _ZN6__asan19ScopedInErrorReport14current_error_E
000000000049f410 W _ZN6__asan19ScopedInErrorReportD2Ev
00000000004224c0 T _ZN6__asan19asan_posix_memalignEPPvmmPN11__sanitizer18BufferedStackTraceE
0000000000427640 W _ZN6__asan20AsanDeactivatedFlags23RegisterActivationFlagsEPN11__sanitizer10FlagParserEPNS_5FlagsEPNS1_11CommonFlagsE
0000000000427520 W _ZN6__asan20AsanDeactivatedFlags27OverrideFromActivationFlagsEv
0000000000429f60 T _ZN6__asan20ErrorFreeNotMalloced5PrintEv
000000000042a6a0 T _ZN6__asan20ErrorPvallocOverflow5PrintEv
00000000004a4a60 T _ZN6__asan20FillMallocStatisticsEPNS_15AsanMallocStatsE
0000000000430930 T _ZN6__asan20GetGlobalsForAddressEmP13__asan_globalPji
00000000004a4020 T _ZN6__asan20GetMallocContextSizeEv
000000000049fca0 T _ZN6__asan20ReportCallocOverflowEmmPN11__sanitizer18BufferedStackTraceE
00000000004a4010 T _ZN6__asan20SetMallocContextSizeEj
00000000005de12c B _ZN6__asan20asan_init_is_runningE
00000000004226e0 T _ZN6__asan20asan_mz_force_unlockEv
0000000000428910 T _ZN6__asan21DescribeAddressIfHeapEmm
000000000042aad0 T _ZN6__asan21ErrorRssLimitExceeded5PrintEv
00000000004a51d0 T _ZN6__asan21GetCurrentThreadStatsEv
000000000049ef50 T _ZN6__asan21ParseFrameDescriptionEPKcPN11__sanitizer18InternalMmapVectorINS_13StackVarDescrEEE
0000000000420dd0 T _ZN6__asan21ReInitializeAllocatorERKNS_16AllocatorOptionsE
000000000049f840 T _ZN6__asan21ReportFreeNotMallocedEmPN11__sanitizer18BufferedStackTraceE
000000000049fec0 T _ZN6__asan21ReportPvallocOverflowEmPN11__sanitizer18BufferedStackTraceE
000000000049d660 W _ZN6__asan21ShadowSegmentEndpointC2Em
0000000000430be0 T _ZN6__asan21StopInitOrderCheckingEv
0000000000428df0 T _ZN6__asan22DescribeAddressIfStackEmm
000000000042a180 T _ZN6__asan22ErrorAllocTypeMismatch5PrintEv
000000000049b070 T _ZN6__asan22FindDynamicShadowStartEv
00000000004210e0 T _ZN6__asan22FindHeapChunkByAddressEm
00000000004a46f0 T _ZN6__asan22FlushToDeadThreadStatsEPNS_9AsanStatsE
00000000004a68e0 T _ZN6__asan22GetCurrentTidOrInvalidEv
00000000004a3bb0 T _ZN6__asan22InitializeShadowMemoryEv
00000000004a57e0 T _ZN6__asan22InitializeSuppressionsEv
00000000004a5940 T _ZN6__asan22IsStackTraceSuppressedEPKN11__sanitizer10StackTraceE
000000000049eb70 T _ZN6__asan22PlatformUnpoisonStacksEv
0000000000430e70 T _ZN6__asan22PrintGlobalNameIfASCIIEPN11__sanitizer20InternalScopedStringERK13__asan_global
00000000004a03f0 T _ZN6__asan22ReportRssLimitExceededEPN11__sanitizer18BufferedStackTraceE
000000000049b2b0 T _ZN6__asan23AsanCheckIncompatibleRTEv
00000000004293d0 T _ZN6__asan23DescribeAddressIfGlobalEmmPKc
0000000000428470 T _ZN6__asan23DescribeAddressIfShadowEm
000000000042b200 T _ZN6__asan23ErrorInvalidPointerPair5PrintEv
0000000000421220 T _ZN6__asan23FindHeapChunkByAllocBegEm
00000000004a5860 T _ZN6__asan23IsInterceptorSuppressedEPKc
0000000000430e40 T _ZN6__asan23MaybeDemangleGlobalNameEPKc
0000000000429920 T _ZN6__asan23PrintAddressDescriptionEmmPKc
00000000004a2f50 T _ZN6__asan23PrintAddressSpaceLayoutEv
000000000049f950 T _ZN6__asan23ReportAllocTypeMismatchEmPN11__sanitizer18BufferedStackTraceENS_9AllocTypeES3_
0000000000422580 T _ZN6__asan23asan_malloc_usable_sizeEPKvmm
00000000004a7240 T _ZN6__asan24FindThreadByStackAddressEm
00000000004a5900 T _ZN6__asan24IsODRViolationSuppressedEPKc
000000000049b2a0 T _ZN6__asan25AsanCheckDynamicRTPrereqsEv
000000000042a9f0 T _ZN6__asan25ErrorAllocationSizeTooBig5PrintEv
000000000042a5d0 T _ZN6__asan25ErrorReallocArrayOverflow5PrintEv
00000000004a7410 T _ZN6__asan25GetAsanThreadByOsIDLockedEy
0000000000428740 T _ZN6__asan25GetHeapAddressInformationEmmPNS_22HeapAddressDescriptionE
00000000004a0b10 T _ZN6__asan25ReportMacMzReallocUnknownEmmPKcPN11__sanitizer18BufferedStackTraceE
000000000049ed40 T _ZN6__asan26AppendToErrorMessageBufferEPKc
0000000000429d30 T _ZN6__asan26ErrorNewDeleteTypeMismatch5PrintEv
0000000000428d70 T _ZN6__asan26GetStackAddressInformationEmmPNS_23StackAddressDescriptionE
0000000000488580 T _ZN6__asan26InitializeAsanInterceptorsEv
00000000004a02d0 T _ZN6__asan26ReportAllocationSizeTooBigEmmmPN11__sanitizer18BufferedStackTraceE
000000000049fdb0 T _ZN6__asan26ReportReallocArrayOverflowEmmPN11__sanitizer18BufferedStackTraceE
00000000004a73e0 T _ZN6__asan27EnsureMainThreadIDIsCorrectEv
0000000000429390 T _ZN6__asan27GetGlobalAddressInformationEmmPNS_24GlobalAddressDescriptionE
00000000004284b0 T _ZN6__asan27GetShadowAddressInformationEmPNS_24ShadowAddressDescriptionE
00000000004a5c50 T _ZN6__asan27GetThreadContextByTidLockedEj
00000000004213d0 T _ZN6__asan27PrintInternalAllocatorStatsEv
000000000049f710 T _ZN6__asan27ReportNewDeleteTypeMismatchEmmmPN11__sanitizer18BufferedStackTraceE
0000000000421270 T _ZN6__asan28AsanThreadLocalMallocStorage10CommitBackEv
00000000005d7cb0 B _ZN6__asan28asan_flags_dont_use_directlyE
000000000042a360 T _ZN6__asan29ErrorMallocUsableSizeNotOwned5PrintEv
000000000049b0b0 T _ZN6__asan29FlushUnneededASanShadowMemoryEmm
000000000049b030 T _ZN6__asan30InitializePlatformInterceptorsEv
000000000049fa80 T _ZN6__asan30ReportMallocUsableSizeNotOwnedEmPN11__sanitizer18BufferedStackTraceE
000000000049b060 T _ZN6__asan31AsanDoesNotSupportStaticLinkageEv
000000000042a790 T _ZN6__asan31ErrorInvalidAllocationAlignment5PrintEv
000000000042ad60 T _ZN6__asan31ErrorStringFunctionSizeOverflow5PrintEv
00000000004a58a0 T _ZN6__asan31HaveStackTraceBasedSuppressionsEv
000000000049cfa0 T _ZN6__asan31PoisonShadowPartialRightRedzoneEmmmh
0000000000422700 T _ZN6__asan32AsanSoftRssLimitExceededCallbackEb
000000000049ffc0 T _ZN6__asan32ReportInvalidAllocationAlignmentEmPN11__sanitizer18BufferedStackTraceE
00000000004a0750 T _ZN6__asan32ReportStringFunctionSizeOverflowEmmPN11__sanitizer18BufferedStackTraceE
000000000042a850 T _ZN6__asan33ErrorInvalidAlignedAllocAlignment5PrintEv
000000000042a920 T _ZN6__asan34ErrorInvalidPosixMemalignAlignment5PrintEv
00000000004a00c0 T _ZN6__asan34ReportInvalidAlignedAllocAlignmentEmmPN11__sanitizer18BufferedStackTraceE
000000000049b040 T _ZN6__asan35InitializePlatformExceptionHandlersEv
00000000004a01d0 T _ZN6__asan35ReportInvalidPosixMemalignAlignmentEmPN11__sanitizer18BufferedStackTraceE
000000000049d160 T _ZN6__asan38AsanPoisonOrUnpoisonIntraObjectRedzoneEmmb
000000000042a430 T _ZN6__asan38ErrorSanitizerGetAllocatedSizeNotOwned5PrintEv
000000000042ac00 T _ZN6__asan38ErrorStringFunctionMemoryRangesOverlap5PrintEv
000000000049fb90 T _ZN6__asan39ReportSanitizerGetAllocatedSizeNotOwnedEmPN11__sanitizer18BufferedStackTraceE
00000000004a05e0 T _ZN6__asan39ReportStringFunctionMemoryRangesOverlapEPKcS1_mS1_mPN11__sanitizer18BufferedStackTraceE
000000000042ae30 T _ZN6__asan43ErrorBadParamsToAnnotateContiguousContainer5PrintEv
00000000004a0870 T _ZN6__asan44ReportBadParamsToAnnotateContiguousContainerEmmmmPN11__sanitizer18BufferedStackTraceE
000000000042faf0 T _ZN6__asan5Flags11SetDefaultsEv
00000000004327e0 T _ZN6__asan6OnExitEv
0000000000421590 W _ZN6__asan9Allocator10DeallocateEPvmmPN11__sanitizer18BufferedStackTraceENS_9AllocTypeE
00000000004213e0 W _ZN6__asan9Allocator10PrintStatsEv
0000000000422180 W _ZN6__asan9Allocator10ReallocateEPvmPN11__sanitizer18BufferedStackTraceE
0000000000420de0 W _ZN6__asan9Allocator12ReInitializeERKNS_16AllocatorOptionsE
0000000000423470 W _ZN6__asan9Allocator13RePoisonChunkEm
00000000004256d0 W _ZN6__asan9Allocator15QuarantineChunkEPNS_9AsanChunkEPvPN11__sanitizer18BufferedStackTraceE
0000000000422b90 W _ZN6__asan9Allocator18GetAsanChunkByAddrEm
00000000004210f0 W _ZN6__asan9Allocator22FindHeapChunkByAddressEm
0000000000422800 W _ZN6__asan9Allocator28GetAsanChunkByAddrFastLockedEm
0000000000423060 W _ZN6__asan9Allocator5PurgeEPN11__sanitizer18BufferedStackTraceE
0000000000421780 W _ZN6__asan9Allocator8AllocateEmmPN11__sanitizer18BufferedStackTraceENS_9AllocTypeEb
00000000004a41d0 T _ZN6__asan9AsanStats5ClearEv
00000000004a4210 T _ZN6__asan9AsanStats5PrintEv
00000000004a4330 T _ZN6__asan9AsanStats9MergeFromEPKS0_
00000000004a4190 T _ZN6__asan9AsanStatsC1Ev
00000000004a4190 T _ZN6__asan9AsanStatsC2Ev
000000000049eea0 W _ZN6__asan9Decorator10ShadowByteEh
000000000042ccb0 T _ZN6__asan9FakeStack14HandleNoReturnEv
000000000042ccc0 T _ZN6__asan9FakeStack16ForEachFakeFrameEPFvmmPvES1_
00000000004208f0 W _ZN6__asan9FakeStack17AddrIsInFakeStackEm
000000000042c5e0 T _ZN6__asan9FakeStack17AddrIsInFakeStackEmPmS1_
000000000042cbf0 T _ZN6__asan9FakeStack2GCEm
000000000042c6d0 T _ZN6__asan9FakeStack6CreateEm
000000000042c7a0 T _ZN6__asan9FakeStack7DestroyEi
000000000042cad0 W _ZN6__asan9FakeStack8AllocateEmmm
000000000042caa0 T _ZN6__asan9FakeStack9PoisonAllEh
0000000000421570 T _ZN6__asan9asan_freeEPvPN11__sanitizer18BufferedStackTraceENS_9AllocTypeE
00000000004a3ef0 t _ZN6__asanL10ProtectGapEmm
00000000004266d0 t _ZN6__asanL10RZSize2LogEj
00000000005de600 b _ZN6__asanL10print_lockE
00000000005c4680 d _ZN6__asanL11ShadowNamesE
00000000004a3960 t _ZN6__asanL11asan_atexitEv
000000000049c570 t _ZN6__asanL13ChunkCallbackEmPv
0000000000429b70 t _ZN6__asanL13OnStackUnwindERKN11__sanitizer13SignalContextEPKvPNS0_18BufferedStackTraceE
0000000000580304 r _ZN6__asanL13kODRViolationE
0000000000000000 b _ZN6__asanL14fake_stack_tlsE
00000000005d7d28 b _ZN6__asanL14mu_for_globalsE
00000000005dcc31 b _ZN6__asanL14tsd_key_initedE
00000000005dd340 b _ZN6__asanL15AsanBuggyPcPoolE
00000000004a38b0 t _ZN6__asanL15AsanCheckFailedEPKciS1_yy
000000000049c4f0 t _ZN6__asanL15MemoryProfileCBERKN11__sanitizer20SuspendedThreadsListEPv
00000000005de658 b _ZN6__asanL15suppression_ctxE
00000000004a32c0 t _ZN6__asanL16AsanInitInternalEv
00000000004a53f0 t _ZN6__asanL16MergeThreadStatsEPN11__sanitizer17ThreadContextBaseEPv
00000000005802b0 r _ZN6__asanL16kInterceptorNameE
00000000005dcc30 b _ZN6__asanL17can_poison_memoryE
00000000005c5260 d _ZN6__asanL17kSuppressionTypesE
00000000004a3950 t _ZN6__asanL18OnLowLevelAllocateEmm
00000000005de380 b _ZN6__asanL18dead_threads_statsE
00000000004a4ae0 t _ZN6__asanL19GetAccumulatedStatsEPNS_9AsanStatsE
00000000005d7c78 b _ZN6__asanL19asan_is_deactivatedE
00000000005d7d80 b _ZN6__asanL19list_of_all_globalsE
00000000005de154 b _ZN6__asanL19malloc_context_sizeE
00000000005de5f8 b _ZN6__asanL19max_malloced_memoryE
00000000004a5be0 t _ZN6__asanL20GetAsanThreadContextEj
000000000049b390 t _ZN6__asanL20ReportIncompatibleRTEv
00000000005de7d0 b _ZN6__asanL20asan_thread_registryE
00000000005d7d88 b _ZN6__asanL20dynamic_init_globalsE
00000000005dcc90 b _ZN6__asanL20error_message_bufferE
00000000005de160 b _ZN6__asanL20unknown_thread_statsE
00000000005d7d98 b _ZN6__asanL21allocator_for_globalsE
00000000005dd330 b _ZN6__asanL21error_report_callbackE
00000000005de7d8 b _ZN6__asanL21mu_for_thread_contextE
00000000004a3ff0 t _ZN6__asanL22MaybeReportLinuxPIEBugEv
00000000005d7c80 b _ZN6__asanL22asan_deactivated_flagsE
00000000005802f0 r _ZN6__asanL22kInterceptorViaLibraryE
00000000005de5a0 b _ZN6__asanL23dead_threads_stats_lockE
00000000005dcc38 b _ZN6__asanL23error_message_buf_mutexE
00000000004a39c0 t _ZN6__asanL23force_interface_symbolsEv
00000000005802d0 r _ZN6__asanL23kInterceptorViaFunctionE
00000000005de680 b _ZN6__asanL23suppression_placeholderE
00000000004a1700 t _ZN6__asanL24ReportInvalidPointerPairEmmmmm
00000000005dcc98 b _ZN6__asanL24error_message_buffer_posE
00000000004a13c0 t _ZN6__asanL26CheckForInvalidPointerPairEPvS0_
00000000004a7310 t _ZN6__asanL26ThreadStackContainsAddressEPN11__sanitizer17ThreadContextBaseEPv
00000000005de700 b _ZN6__asanL27thread_registry_placeholderE
00000000005de830 b _ZN6__asanL28allocator_for_thread_contextE
00000000004329d0 t _ZN6__asanL29QuickCheckForUnpoisonedRegionEmm
000000000049abb0 t _ZN6__asanL29QuickCheckForUnpoisonedRegionEmm
00000000005d7d90 b _ZN6__asanL31global_registration_site_vectorE
00000000004a37f0 t _ZN6__asanL7AsanDieEv
00000000005dcc34 b _ZN6__asanL7tsd_keyE
00000000005c9cf8 b _ZN6__asanL8instanceE
00000000004c4260 T _ZN6__lsan10LeakReport12PrintSummaryEv
00000000004c37e0 T _ZN6__lsan10LeakReport14AddLeakedChunkEmjmNS_8ChunkTagE
00000000004c3b40 T _ZN6__lsan10LeakReport14ReportTopLeaksEm
00000000004c43e0 T _ZN6__lsan10LeakReport17ApplySuppressionsEv
00000000004c4010 T _ZN6__lsan10LeakReport18PrintReportForLeakEm
00000000004c3f60 T _ZN6__lsan10LeakReport21UnsuppressedLeakCountEv
00000000004c41c0 T _ZN6__lsan10LeakReport25PrintLeakedObjectsForLeakEm
00000000004c44b0 T _ZN6__lsan10LeakReport29IndirectUnsuppressedLeakCountEv
0000000000e6f9b8 B _ZN6__lsan10lsan_flagsE
00000000004c3220 T _ZN6__lsan11DoLeakCheckEv
00000000004c6320 T _ZN6__lsan11HandleLeaksEv
0000000000422a20 T _ZN6__lsan12ForEachChunkEPFvmPvES0_
0000000000422970 T _ZN6__lsan12GetUserBeginEm
00000000004229d0 T _ZN6__lsan12LsanMetadata7set_tagENS_8ChunkTagE
0000000000422990 T _ZN6__lsan12LsanMetadataC1Em
0000000000422990 T _ZN6__lsan12LsanMetadataC2Em
0000000000e6f960 B _ZN6__lsan12global_mutexE
0000000000422710 T _ZN6__lsan13LockAllocatorEv
00000000004c29a0 T _ZN6__lsan14GetRootRegionsEv
00000000004c2a00 T _ZN6__lsan14InitCommonLsanEv
00000000004c2f40 T _ZN6__lsan14ScanRootRegionEPN11__sanitizer18InternalMmapVectorImEERKNS_10RootRegionEmmb
000000000049eae0 T _ZN6__lsan14WordIsPoisonedEm
0000000000422780 T _ZN6__lsan15PointsIntoChunkEPv
00000000004c2e40 T _ZN6__lsan15ScanGlobalRangeEmmPN11__sanitizer18InternalMmapVectorImEE
0000000000422740 T _ZN6__lsan15UnlockAllocatorEv
0000000000000070 B _ZN6__lsan15disable_counterE
00000000004c3210 T _ZN6__lsan16HasReportedLeaksEv
00000000004c25e0 T _ZN6__lsan17RegisterLsanFlagsEPN11__sanitizer10FlagParserEPNS_5FlagsE
00000000004c6040 T _ZN6__lsan18EnableInThisThreadEv
0000000000422b20 T _ZN6__lsan18IgnoreObjectLockedEPKv
00000000004a76a0 T _ZN6__lsan18LockThreadRegistryEv
00000000004c6030 T _ZN6__lsan19DisableInThisThreadEv
00000000004c6020 T _ZN6__lsan20DisabledInThisThreadEv
00000000004c6260 T _ZN6__lsan20ProcessGlobalRegionsEPN11__sanitizer18InternalMmapVectorImEE
00000000004c2ae0 T _ZN6__lsan20ScanRangeForPointersEmmPN11__sanitizer18InternalMmapVectorImEEPKcNS_8ChunkTagE
00000000004a7700 T _ZN6__lsan20UnlockThreadRegistryEv
00000000004a7490 T _ZN6__lsan21GetThreadRangesLockedEyPmS0_S0_S0_S0_S0_PPN11__sanitizer4DTLSE
00000000004c29b0 T _ZN6__lsan21InitializeRootRegionsEv
00000000004a75d0 T _ZN6__lsan22ForEachExtraStackRangeEyPFvmmPvES0_
00000000004c28d0 T _ZN6__lsan22InitializeSuppressionsEv
00000000004c3500 T _ZN6__lsan22LeakSuppressionContext21GetSuppressionForAddrEm
00000000004c35f0 T _ZN6__lsan22LeakSuppressionContext22GetSuppressionForStackEj
00000000004c3130 T _ZN6__lsan22LeakSuppressionContext24PrintMatchedSuppressionsEv
00000000004c2950 T _ZN6__lsan22LeakSuppressionContext8LazyInitEv
00000000004c2580 T _ZN6__lsan23DisableCounterUnderflowEv
0000000000422760 T _ZN6__lsan23GetAllocatorGlobalRangeEPmS0_
00000000004a7760 T _ZN6__lsan23GetThreadRegistryLockedEv
00000000004c2f20 T _ZN6__lsan24ForEachExtraStackRangeCbEmmPv
00000000004c6340 T _ZN6__lsan24LockStuffAndStopTheWorldEPFvRKN11__sanitizer20SuspendedThreadsListEPvEPNS_18CheckForLeaksParamE
00000000004c34e0 T _ZN6__lsan26DoRecoverableLeakCheckVoidEv
00000000004a7800 T _ZN6__lsan27EnsureMainThreadIDIsCorrectEv
0000000000422d00 T _ZN6__lsan30GetAdditionalThreadContextPtrsEPN11__sanitizer17ThreadContextBaseEPv
00000000004a75c0 T _ZN6__lsan33GetAllThreadAllocatorCachesLockedEPN11__sanitizer18InternalMmapVectorImEE
00000000004c6070 T _ZN6__lsan33InitializePlatformSpecificModulesEv
00000000004c6310 T _ZN6__lsan34ProcessPlatformSpecificAllocationsEPN11__sanitizer18InternalMmapVectorImEE
00000000004c25b0 T _ZN6__lsan5Flags11SetDefaultsEv
00000000004c6300 T _ZN6__lsan9GetLinkerEv
00000000004c2fe0 T _ZN6__lsan9ProcessPCEPN11__sanitizer18InternalMmapVectorImEE
00000000004c59d0 t _ZN6__lsanL11ResetTagsCbEmPv
000000000058792d r _ZN6__lsanL11kLinkerNameE
00000000004c5570 t _ZN6__lsanL12PrintResultsERNS_10LeakReportE
0000000000e6fa98 b _ZN6__lsanL12root_regionsE
00000000004c3260 t _ZN6__lsanL13CheckForLeaksEv
00000000004c58e0 t _ZN6__lsanL14CollectLeaksCbEmPv
00000000004c3050 t _ZN6__lsanL15MarkInvalidPCCbEmPv
0000000000e6f9d8 b _ZN6__lsanL15suppression_ctxE
00000000004c5c20 t _ZN6__lsanL16CollectIgnoredCbEmPv
0000000000587810 r _ZN6__lsanL16kStdSuppressionsE
0000000000587825 r _ZN6__lsanL16kSuppressionLeakE
00000000005c7b18 d _ZN6__lsanL17kSuppressionTypesE
0000000000e6fad8 b _ZN6__lsanL18has_reported_leaksE
0000000000e6fb00 b _ZN6__lsanL18linker_placeholderE
00000000004c5ab0 t _ZN6__lsanL19IgnoredSuppressedCbEmPv
00000000004c5a20 t _ZN6__lsanL20ReportIfNotSuspendedEPN11__sanitizer17ThreadContextBaseEPv
00000000004c4a30 t _ZN6__lsanL21CheckForLeaksCallbackERKN11__sanitizer20SuspendedThreadsListEPv
00000000004c5ce0 t _ZN6__lsanL22MarkIndirectlyLeakedCbEmPv
0000000000e6fa00 b _ZN6__lsanL23suppression_placeholderE
00000000004c6280 t _ZN6__lsanL28ProcessGlobalRegionsCallbackEP12dl_phdr_infomPv
00000000004c6370 t _ZN6__lsanL32LockStuffAndStopTheWorldCallbackEP12dl_phdr_infomPv
0000000000e6fae0 b _ZN6__lsanL6linkerE
0000000000e6fbf8 B _ZN7__ubsan11ubsan_flagsE
00000000004c7560 T _ZN7__ubsan12InitAsPluginEv
00000000004c6fe0 T _ZN7__ubsan12ScopedReport11InitializerC1Ev
00000000004c6fe0 T _ZN7__ubsan12ScopedReport11InitializerC2Ev
00000000004c6ff0 T _ZN7__ubsan12ScopedReportC1ENS_13ReportOptionsENS_8LocationENS_9ErrorTypeE
00000000004c6ff0 T _ZN7__ubsan12ScopedReportC2ENS_13ReportOptionsENS_8LocationENS_9ErrorTypeE
00000000004c7040 T _ZN7__ubsan12ScopedReportD1Ev
00000000004c7040 T _ZN7__ubsan12ScopedReportD2Ev
00000000004c77e0 T _ZN7__ubsan12ignoreReportENS_14SourceLocationENS_13ReportOptionsENS_9ErrorTypeE
00000000004c72e0 T _ZN7__ubsan14IsPCSuppressedENS_9ErrorTypeEmPKc
00000000005c7c50 D _ZN7__ubsan14TypeCheckKindsE
00000000004c76e0 T _ZN7__ubsan15InitializeFlagsEv
00000000004c74c0 T _ZN7__ubsan16InitAsStandaloneEv
00000000004cec80 T _ZN7__ubsan16checkDynamicTypeEPvS0_m
00000000004cc370 T _ZN7__ubsan16getObjCClassNameEm
00000000004c75c0 T _ZN7__ubsan18RegisterUbsanFlagsEPN11__sanitizer10FlagParserEPNS_5FlagsE
00000000004c7290 T _ZN7__ubsan21IsVptrCheckSuppressedEPKc
00000000004cf090 T _ZN7__ubsan21checkTypeInfoEqualityEPKvS1_
00000000004c6430 T _ZN7__ubsan21getSymbolizedLocationEm
00000000004c74b0 T _ZN7__ubsan22GetSanititizerToolNameEv
00000000004c7230 T _ZN7__ubsan22InitializeSuppressionsEv
00000000004cc1a0 T _ZN7__ubsan23UndefinedBehaviorReportC1EPKcRNS_8LocationERN11__sanitizer20InternalScopedStringE
00000000004cc1a0 T _ZN7__ubsan23UndefinedBehaviorReportC2EPKcRNS_8LocationERN11__sanitizer20InternalScopedStringE
00000000004c7550 T _ZN7__ubsan27InitAsStandaloneIfNecessaryEv
00000000004cec60 T _ZN7__ubsan28getDynamicTypeInfoFromObjectEPv
00000000004cef20 T _ZN7__ubsan28getDynamicTypeInfoFromVtableEPv
00000000004cc280 T _ZN7__ubsan31RegisterUndefinedBehaviorReportEPNS_23UndefinedBehaviorReportE
00000000004c66a0 T _ZN7__ubsan4DiagD1Ev
00000000004c66a0 T _ZN7__ubsan4DiagD2Ev
00000000004c6450 T _ZN7__ubsan4DiaglsERKNS_14TypeDescriptorE
00000000004c64d0 T _ZN7__ubsan4DiaglsERKNS_5ValueE
00000000004c75a0 T _ZN7__ubsan5Flags11SetDefaultsEv
00000000004ce900 t _ZN7__ubsanL26handleFunctionTypeMismatchEPNS_24FunctionTypeMismatchDataEmmmNS_13ReportOptionsE
00000000004e4e10 W _ZN8LeakTestIiEC2ERKS0_
00000000004e23f0 W _ZN8LeakTestIiEC2Ei
00000000005629e0 W _ZN8LeakTestIiEC2Ev
00000000004e5020 W _ZN8LeakTestIiED0Ev
00000000004e2580 W _ZN8LeakTestIiED2Ev
000000000053c650 W _ZN8LeakTestIiEaSERKS0_
00000000004bb5a0 T _ZN8__sancov11SancovFlags11SetDefaultsEv
00000000004bbe00 t _ZN8__sancov12_GLOBAL__N_119WriteModuleCoverageEPcPKcPKmm
000000000066f4e0 b _ZN8__sancov12_GLOBAL__N_119pc_guard_controllerE
0000000000585758 r _ZN8__sancov12_GLOBAL__N_15MagicE
00000000004bb5b0 T _ZN8__sancov21InitializeSancovFlagsEv
000000000066f4d8 B _ZN8__sancov30sancov_flags_dont_use_directlyE
00000000004efad0 W _ZN9__gnu_cxx14__alloc_traitsISaI6BufferES1_E10deallocateERS2_PS1_m
00000000004f0260 W _ZN9__gnu_cxx14__alloc_traitsISaI6BufferES1_E17_S_select_on_copyERKS2_
00000000004efa60 W _ZN9__gnu_cxx14__alloc_traitsISaI6BufferES1_E8allocateERS2_m
00000000004efb00 W _ZN9__gnu_cxx14__alloc_traitsISaIP6BufferES2_E10deallocateERS3_PS2_m
00000000004ef880 W _ZN9__gnu_cxx14__alloc_traitsISaIP6BufferES2_E8allocateERS3_m
000000000054e970 W _ZN9__gnu_cxx14__alloc_traitsISaISt10_List_nodeIN2ft4pairIKiNSt7__cxx1112basic_stringIcSt11char_traitsIcESaIcEEEEEEESC_E10deallocateERSD_PSC_m
0000000000574820 W _ZN9__gnu_cxx14__alloc_traitsISaISt10_List_nodeIN2ft4pairIKiNSt7__cxx1112basic_stringIcSt11char_traitsIcESaIcEEEEEEESC_E8allocateERSD_m
000000000054e4f0 W _ZN9__gnu_cxx14__alloc_traitsISaISt10_List_nodeIN2ft4pairIKiiEEEES6_E10deallocateERS7_PS6_m
00000000005609e0 W _ZN9__gnu_cxx14__alloc_traitsISaISt10_List_nodeIN2ft4pairIKiiEEEES6_E8allocateERS7_m
000000000050b7e0 W _ZN9__gnu_cxx14__alloc_traitsISaISt10_List_nodeINSt7__cxx1112basic_stringIcSt11char_traitsIcESaIcEEEEES8_E10deallocateERS9_PS8_m
0000000000525e80 W _ZN9__gnu_cxx14__alloc_traitsISaISt10_List_nodeINSt7__cxx1112basic_stringIcSt11char_traitsIcESaIcEEEEES8_E8allocateERS9_m
00000000005391b0 W _ZN9__gnu_cxx14__alloc_traitsISaISt10_List_nodeIcEES2_E10deallocateERS3_PS2_m
000000000053cdf0 W _ZN9__gnu_cxx14__alloc_traitsISaISt10_List_nodeIcEES2_E8allocateERS3_m
000000000050b3c0 W _ZN9__gnu_cxx14__alloc_traitsISaISt10_List_nodeIiEES2_E10deallocateERS3_PS2_m
000000000051bc30 W _ZN9__gnu_cxx14__alloc_traitsISaISt10_List_nodeIiEES2_E8allocateERS3_m
00000000004bd450 T _ZNK11__sanitizer10StackTrace5PrintEv
00000000004a9e40 T _ZNK11__sanitizer12LoadedModule15containsAddressEm
00000000004b3fc0 T _ZNK11__sanitizer13SignalContext10GetAddressEv
00000000004b2de0 T _ZNK11__sanitizer13SignalContext12GetWriteFlagEv
00000000004b3fd0 T _ZNK11__sanitizer13SignalContext14IsMemoryAccessEv
00000000004b9dd0 T _ZNK11__sanitizer13SignalContext15IsStackOverflowEv
00000000004b2e00 T _ZNK11__sanitizer13SignalContext21IsTrueFaultingAddressEv
00000000004b3ff0 T _ZNK11__sanitizer13SignalContext7GetTypeEv
00000000004b4000 T _ZNK11__sanitizer13SignalContext8DescribeEv
00000000004c0850 T _ZNK11__sanitizer16Addr2LineProcess18ReachedEndOfOutputEPKcm
00000000004c0ce0 W _ZNK11__sanitizer16Addr2LineProcess7GetArgVEPKcRA6_S2_
00000000004c0c40 W _ZNK11__sanitizer17SymbolizerProcess18ReachedEndOfOutputEPKcm
00000000004c0c60 W _ZNK11__sanitizer17SymbolizerProcess7GetArgVEPKcRA6_S2_
00000000004b6650 T _ZNK11__sanitizer18SuppressionContext13SuppressionAtEm
00000000004b6640 T _ZNK11__sanitizer18SuppressionContext16SuppressionCountEv
00000000004b64d0 T _ZNK11__sanitizer18SuppressionContext18HasSuppressionTypeEPKc
00000000004b54b0 T _ZNK11__sanitizer19MemoryMappingLayout5ErrorEv
00000000004c00f0 W _ZNK11__sanitizer21LLVMSymbolizerProcess18ReachedEndOfOutputEPKcm
00000000004c0110 W _ZNK11__sanitizer21LLVMSymbolizerProcess7GetArgVEPKcRA6_S2_
00000000004ba650 T _ZNK11__sanitizer25SuspendedThreadsListLinux11ContainsTidEy
00000000004ba780 T _ZNK11__sanitizer25SuspendedThreadsListLinux11GetThreadIDEm
00000000004ba770 T _ZNK11__sanitizer25SuspendedThreadsListLinux11ThreadCountEv
00000000004bb0c0 T _ZNK11__sanitizer25SuspendedThreadsListLinux17GetRegistersAndSPEmPNS_18InternalMmapVectorImEEPm
00000000004e3130 W _ZNK12null_pointercvPT_I8LeakTestIiEEEv
0000000000539570 W _ZNK12null_pointercvPT_IN2ft6vectorI8LeakTestIiESaIS6_EEEEEv
000000000051d130 W _ZNK12null_pointercvPT_IN2ft7RB_nodeIKNSt7__cxx1112basic_stringIcSt11char_traitsIcESaIcEEESA_SA_EEEEv
000000000050bff0 W _ZNK12null_pointercvPT_IN2ft7RB_nodeIKiiiEEEEv
000000000054fbc0 W _ZNK12null_pointercvPT_IN2ft7RB_nodeINS3_4pairIKNSt7__cxx1112basic_stringIcSt11char_traitsIcESaIcEEEiEESC_iEEEEv
0000000000562090 W _ZNK12null_pointercvPT_IN2ft7RB_nodeINS3_4pairIKi8LeakTestIiEEES6_S8_EEEEv
000000000056b7e0 W _ZNK12null_pointercvPT_IN2ft7RB_nodeINS3_4pairIKiNSt7__cxx1112basic_stringIcSt11char_traitsIcESaIcEEEEES6_SC_EEEEv
00000000004d8910 W _ZNK12null_pointercvPT_IN2ft7RB_nodeINS3_4pairIKiiEES6_iEEEEv
00000000004f3ae0 W _ZNK12null_pointercvPT_IN2ft7RB_nodeINS3_4pairIKiiEEiiEEEEv
00000000004e5bd0 W _ZNK12null_pointercvPT_INSt7__cxx1112basic_stringIcSt11char_traitsIcESaIcEEEEEv
00000000004fd6b0 W _ZNK12null_pointercvPT_IcEEv
00000000004ec570 W _ZNK12null_pointercvPT_IiEEv
00000000004d78a0 W _ZNK12null_pointercvPT_IlEEv
0000000000525890 W _ZNK2ft12RBT_iteratorINS_7RB_nodeIKNSt7__cxx1112basic_stringIcSt11char_traitsIcESaIcEEES7_S7_EES8_E17get_last_nullLeafEv
00000000005256e0 W _ZNK2ft12RBT_iteratorINS_7RB_nodeIKNSt7__cxx1112basic_stringIcSt11char_traitsIcESaIcEEES7_S7_EES8_E8get_rootEv
0000000000509cd0 W _ZNK2ft12RBT_iteratorINS_7RB_nodeIKNSt7__cxx1112basic_stringIcSt11char_traitsIcESaIcEEES7_S7_EES8_EdeEv
000000000050ae20 W _ZNK2ft12RBT_iteratorINS_7RB_nodeIKNSt7__cxx1112basic_stringIcSt11char_traitsIcESaIcEEES7_S7_EES8_EeqERKSA_
0000000000524f40 W _ZNK2ft12RBT_iteratorINS_7RB_nodeIKNSt7__cxx1112basic_stringIcSt11char_traitsIcESaIcEEES7_S7_EES8_EneERKSA_
0000000000513e80 W _ZNK2ft12RBT_iteratorINS_7RB_nodeIKiiiEES2_E17get_last_nullLeafEv
0000000000513f10 W _ZNK2ft12RBT_iteratorINS_7RB_nodeIKiiiEES2_E18get_first_nullLeafEv
0000000000513cd0 W _ZNK2ft12RBT_iteratorINS_7RB_nodeIKiiiEES2_E8get_rootEv
0000000000506c00 W _ZNK2ft12RBT_iteratorINS_7RB_nodeIKiiiEES2_EdeEv
0000000000507f10 W _ZNK2ft12RBT_iteratorINS_7RB_nodeIKiiiEES2_EneERKS4_
0000000000558fe0 W _ZNK2ft12RBT_iteratorINS_7RB_nodeINS_4pairIKNSt7__cxx1112basic_stringIcSt11char_traitsIcESaIcEEEiEES9_iEESA_E17get_last_nullLeafEv
0000000000558e30 W _ZNK2ft12RBT_iteratorINS_7RB_nodeINS_4pairIKNSt7__cxx1112basic_stringIcSt11char_traitsIcESaIcEEEiEES9_iEESA_E8get_rootEv
00000000005534c0 W _ZNK2ft12RBT_iteratorINS_7RB_nodeINS_4pairIKNSt7__cxx1112basic_stringIcSt11char_traitsIcESaIcEEEiEES9_iEESA_EdeEv
0000000000558660 W _ZNK2ft12RBT_iteratorINS_7RB_nodeINS_4pairIKNSt7__cxx1112basic_stringIcSt11char_traitsIcESaIcEEEiEES9_iEESA_EneERKSC_
0000000000555320 W _ZNK2ft12RBT_iteratorINS_7RB_nodeINS_4pairIKNSt7__cxx1112basic_stringIcSt11char_traitsIcESaIcEEEiEES9_iEESA_EptEv
000000000056af10 W _ZNK2ft12RBT_iteratorINS_7RB_nodeINS_4pairIKi8LeakTestIiEEES3_S5_EES6_E17get_last_nullLeafEv
000000000056ad60 W _ZNK2ft12RBT_iteratorINS_7RB_nodeINS_4pairIKi8LeakTestIiEEES3_S5_EES6_E8get_rootEv
0000000000565830 W _ZNK2ft12RBT_iteratorINS_7RB_nodeINS_4pairIKi8LeakTestIiEEES3_S5_EES6_EdeEv
000000000056a3f0 W _ZNK2ft12RBT_iteratorINS_7RB_nodeINS_4pairIKi8LeakTestIiEEES3_S5_EES6_EneERKS8_
0000000000575d80 W _ZNK2ft12RBT_iteratorINS_7RB_nodeINS_4pairIKiNSt7__cxx1112basic_stringIcSt11char_traitsIcESaIcEEEEES3_S9_EEKSA_EeqERKSD_
0000000000574200 W _ZNK2ft12RBT_iteratorINS_7RB_nodeINS_4pairIKiNSt7__cxx1112basic_stringIcSt11char_traitsIcESaIcEEEEES3_S9_EESA_E17get_last_nullLeafEv
0000000000574050 W _ZNK2ft12RBT_iteratorINS_7RB_nodeINS_4pairIKiNSt7__cxx1112basic_stringIcSt11char_traitsIcESaIcEEEEES3_S9_EESA_E8get_rootEv
000000000056ef10 W _ZNK2ft12RBT_iteratorINS_7RB_nodeINS_4pairIKiNSt7__cxx1112basic_stringIcSt11char_traitsIcESaIcEEEEES3_S9_EESA_EdeEv
000000000054df00 W _ZNK2ft12RBT_iteratorINS_7RB_nodeINS_4pairIKiNSt7__cxx1112basic_stringIcSt11char_traitsIcESaIcEEEEES3_S9_EESA_EeqERKSC_
00000000005738b0 W _ZNK2ft12RBT_iteratorINS_7RB_nodeINS_4pairIKiNSt7__cxx1112basic_stringIcSt11char_traitsIcESaIcEEEEES3_S9_EESA_EneERKSC_
000000000054cb90 W _ZNK2ft12RBT_iteratorINS_7RB_nodeINS_4pairIKiNSt7__cxx1112basic_stringIcSt11char_traitsIcESaIcEEEEES3_S9_EESA_EptEv
000000000054f060 W _ZNK2ft12RBT_iteratorINS_7RB_nodeINS_4pairIKiiEES3_iEEKS4_E17get_last_nullLeafEv
000000000054f0f0 W _ZNK2ft12RBT_iteratorINS_7RB_nodeINS_4pairIKiiEES3_iEEKS4_E18get_first_nullLeafEv
000000000054eeb0 W _ZNK2ft12RBT_iteratorINS_7RB_nodeINS_4pairIKiiEES3_iEEKS4_E8get_rootEv
0000000000548060 W _ZNK2ft12RBT_iteratorINS_7RB_nodeINS_4pairIKiiEES3_iEEKS4_EdeEv
00000000005495a0 W _ZNK2ft12RBT_iteratorINS_7RB_nodeINS_4pairIKiiEES3_iEEKS4_EneERKS7_
00000000004e0a90 W _ZNK2ft12RBT_iteratorINS_7RB_nodeINS_4pairIKiiEES3_iEES4_E17get_last_nullLeafEv
000000000054ed00 W _ZNK2ft12RBT_iteratorINS_7RB_nodeINS_4pairIKiiEES3_iEES4_E18get_first_nullLeafEv
00000000004e08e0 W _ZNK2ft12RBT_iteratorINS_7RB_nodeINS_4pairIKiiEES3_iEES4_E8get_rootEv
0000000000546ca0 W _ZNK2ft12RBT_iteratorINS_7RB_nodeINS_4pairIKiiEES3_iEES4_EcvNS0_IS5_KS4_EEEv
00000000004dbe60 W _ZNK2ft12RBT_iteratorINS_7RB_nodeINS_4pairIKiiEES3_iEES4_EdeEv
00000000004e10e0 W _ZNK2ft12RBT_iteratorINS_7RB_nodeINS_4pairIKiiEES3_iEES4_EneERKS6_
00000000004d5bd0 W _ZNK2ft12RBT_iteratorINS_7RB_nodeINS_4pairIKiiEES3_iEES4_EptEv
00000000004fcb50 W _ZNK2ft12RBT_iteratorINS_7RB_nodeINS_4pairIKiiEEiiEEKS4_E17get_last_nullLeafEv
00000000004fc9a0 W _ZNK2ft12RBT_iteratorINS_7RB_nodeINS_4pairIKiiEEiiEEKS4_E8get_rootEv
00000000004fc130 W _ZNK2ft12RBT_iteratorINS_7RB_nodeINS_4pairIKiiEEiiEEKS4_EdeEv
00000000004fc0b0 W _ZNK2ft12RBT_iteratorINS_7RB_nodeINS_4pairIKiiEEiiEEKS4_EneERKS7_
00000000004f7050 W _ZNK2ft12RBT_iteratorINS_7RB_nodeINS_4pairIKiiEEiiEES4_EdeEv
00000000004fba00 W _ZNK2ft12RBT_iteratorINS_7RB_nodeINS_4pairIKiiEEiiEES4_EptEv
00000000005141a0 W _ZNK2ft16reverse_iteratorINS_12RBT_iteratorINS_7RB_nodeIKiiiEES3_EEE4baseEv
0000000000507b60 W _ZNK2ft16reverse_iteratorINS_12RBT_iteratorINS_7RB_nodeIKiiiEES3_EEEdeEv
000000000054f350 W _ZNK2ft16reverse_iteratorINS_12RBT_iteratorINS_7RB_nodeINS_4pairIKiiEES4_iEEKS5_EEE4baseEv
0000000000547cb0 W _ZNK2ft16reverse_iteratorINS_12RBT_iteratorINS_7RB_nodeINS_4pairIKiiEES4_iEEKS5_EEEdeEv
000000000054ecd0 W _ZNK2ft16reverse_iteratorINS_12RBT_iteratorINS_7RB_nodeINS_4pairIKiiEES4_iEES5_EEE4baseEv
0000000000547820 W _ZNK2ft16reverse_iteratorINS_12RBT_iteratorINS_7RB_nodeINS_4pairIKiiEES4_iEES5_EEEdeEv
000000000053d410 W _ZNK2ft16reverse_iteratorINS_22random_access_iteratorIcEEE4baseEv
0000000000538b50 W _ZNK2ft16reverse_iteratorINS_22random_access_iteratorIcEEEdeEv
00000000004e5240 W _ZNK2ft22random_access_iteratorI8LeakTestIiEEdeEv
00000000004e51c0 W _ZNK2ft22random_access_iteratorI8LeakTestIiEEneERKS3_
00000000005356a0 W _ZNK2ft22random_access_iteratorI8LeakTestIiEEplEl
00000000004e3a30 W _ZNK2ft22random_access_iteratorIK8LeakTestIiEEdeEv
00000000004e37f0 W _ZNK2ft22random_access_iteratorIK8LeakTestIiEEneERKS4_
0000000000539e70 W _ZNK2ft22random_access_iteratorIKNS_6vectorI8LeakTestIiESaIS3_EEEEdeEv
0000000000539c30 W _ZNK2ft22random_access_iteratorIKNS_6vectorI8LeakTestIiESaIS3_EEEEneERKS7_
00000000004e64d0 W _ZNK2ft22random_access_iteratorIKNSt7__cxx1112basic_stringIcSt11char_traitsIcESaIcEEEEdeEv
00000000004e6290 W _ZNK2ft22random_access_iteratorIKNSt7__cxx1112basic_stringIcSt11char_traitsIcESaIcEEEEneERKS8_
00000000004fdfa0 W _ZNK2ft22random_access_iteratorIKcEdeEv
00000000004fdd60 W _ZNK2ft22random_access_iteratorIKcEneERKS2_
00000000004ece70 W _ZNK2ft22random_access_iteratorIKiEdeEv
00000000004ecc30 W _ZNK2ft22random_access_iteratorIKiEneERKS2_
00000000005382c0 W _ZNK2ft22random_access_iteratorIKiEplEl
00000000004d7f70 W _ZNK2ft22random_access_iteratorIKlEdeEv
00000000004d7ef0 W _ZNK2ft22random_access_iteratorIKlEneERKS2_
000000000053b3b0 W _ZNK2ft22random_access_iteratorINS_6vectorI8LeakTestIiESaIS3_EEEEdeEv
000000000053b330 W _ZNK2ft22random_access_iteratorINS_6vectorI8LeakTestIiESaIS3_EEEEneERKS6_
00000000004e7a90 W _ZNK2ft22random_access_iteratorINSt7__cxx1112basic_stringIcSt11char_traitsIcESaIcEEEEdeEv
00000000004e7a10 W _ZNK2ft22random_access_iteratorINSt7__cxx1112basic_stringIcSt11char_traitsIcESaIcEEEEneERKS7_
00000000004ebe80 W _ZNK2ft22random_access_iteratorIcEdeEv
0000000000537550 W _ZNK2ft22random_access_iteratorIcEmiEl
00000000004ebdc0 W _ZNK2ft22random_access_iteratorIcEneERKS1_
0000000000536f80 W _ZNK2ft22random_access_iteratorIcEplEl
0000000000537d50 W _ZNK2ft22random_access_iteratorIiEcvNS0_IKiEEEv
00000000004ee4a0 W _ZNK2ft22random_access_iteratorIiEdeEv
0000000000537fa0 W _ZNK2ft22random_access_iteratorIiEeqERKS1_
0000000000538120 W _ZNK2ft22random_access_iteratorIiEgeERKS1_
0000000000538020 W _ZNK2ft22random_access_iteratorIiEgtERKS1_
00000000005381a0 W _ZNK2ft22random_access_iteratorIiEleERKS1_
00000000005380a0 W _ZNK2ft22random_access_iteratorIiEltERKS1_
0000000000537db0 W _ZNK2ft22random_access_iteratorIiEmiEl
00000000004ee420 W _ZNK2ft22random_access_iteratorIiEneERKS1_
00000000005345b0 W _ZNK2ft22random_access_iteratorIiEplEl
00000000004d6bf0 W _ZNK2ft22random_access_iteratorIlEdeEv
00000000004d6f50 W _ZNK2ft22random_access_iteratorIlEltERKS1_
00000000004d6c30 W _ZNK2ft22random_access_iteratorIlEneERKS1_
00000000004d38e0 W _ZNK2ft22random_access_iteratorIlEplEl
0000000000554e20 W _ZNK2ft3mapIKNSt7__cxx1112basic_stringIcSt11char_traitsIcESaIcEEEiSt4lessIS7_ESaINS_4pairIS7_iEEEE4sizeEv
0000000000554e40 W _ZNK2ft3mapIKNSt7__cxx1112basic_stringIcSt11char_traitsIcESaIcEEEiSt4lessIS7_ESaINS_4pairIS7_iEEEE8max_sizeEv
0000000000569e30 W _ZNK2ft3mapIKi8LeakTestIiESt4lessIS1_ESaINS_4pairIS1_S3_EEEE4sizeEv
0000000000569e50 W _ZNK2ft3mapIKi8LeakTestIiESt4lessIS1_ESaINS_4pairIS1_S3_EEEE8max_sizeEv
0000000000575500 W _ZNK2ft3mapIKiNSt7__cxx1112basic_stringIcSt11char_traitsIcESaIcEEESt4lessIS1_ESaINS_4pairIS1_S7_EEEE4sizeEv
000000000054e060 W _ZNK2ft3mapIKiNSt7__cxx1112basic_stringIcSt11char_traitsIcESaIcEEESt4lessIS1_ESaINS_4pairIS1_S7_EEEE5countERS1_
0000000000575520 W _ZNK2ft3mapIKiNSt7__cxx1112basic_stringIcSt11char_traitsIcESaIcEEESt4lessIS1_ESaINS_4pairIS1_S7_EEEE8max_sizeEv
0000000000561470 W _ZNK2ft3mapIKiiSt4lessIS1_ESaINS_4pairIS1_iEEEE13get_allocatorEv
0000000000561680 W _ZNK2ft3mapIKiiSt4lessIS1_ESaINS_4pairIS1_iEEEE3endEv
00000000004e0b20 W _ZNK2ft3mapIKiiSt4lessIS1_ESaINS_4pairIS1_iEEEE4sizeEv
0000000000561650 W _ZNK2ft3mapIKiiSt4lessIS1_ESaINS_4pairIS1_iEEEE5beginEv
0000000000561450 W _ZNK2ft3mapIKiiSt4lessIS1_ESaINS_4pairIS1_iEEEE8key_compEv
00000000004e0b40 W _ZNK2ft3mapIKiiSt4lessIS1_ESaINS_4pairIS1_iEEEE8max_sizeEv
0000000000561030 W _ZNK2ft3mapIKiiSt7greaterIS1_ESaINS_4pairIS1_iEEEE13get_allocatorEv
0000000000561240 W _ZNK2ft3mapIKiiSt7greaterIS1_ESaINS_4pairIS1_iEEEE3endEv
00000000005600b0 W _ZNK2ft3mapIKiiSt7greaterIS1_ESaINS_4pairIS1_iEEEE4sizeEv
0000000000561210 W _ZNK2ft3mapIKiiSt7greaterIS1_ESaINS_4pairIS1_iEEEE5beginEv
0000000000561010 W _ZNK2ft3mapIKiiSt7greaterIS1_ESaINS_4pairIS1_iEEEE8key_compEv
00000000005600d0 W _ZNK2ft3mapIKiiSt7greaterIS1_ESaINS_4pairIS1_iEEEE8max_sizeEv
00000000004fbe10 W _ZNK2ft3mapIiiSt4lessIiESaINS_4pairIKiiEEEE13get_allocatorEv
00000000004fc020 W _ZNK2ft3mapIiiSt4lessIiESaINS_4pairIKiiEEEE3endEv
00000000004fbff0 W _ZNK2ft3mapIiiSt4lessIiESaINS_4pairIKiiEEEE5beginEv
00000000004fbdf0 W _ZNK2ft3mapIiiSt4lessIiESaINS_4pairIKiiEEEE8key_compEv
00000000005267b0 W _ZNK2ft3setINSt7__cxx1112basic_stringIcSt11char_traitsIcESaIcEEESt4lessIS6_ESaIS6_EE4sizeEv
000000000050af80 W _ZNK2ft3setINSt7__cxx1112basic_stringIcSt11char_traitsIcESaIcEEESt4lessIS6_ESaIS6_EE5countERKS6_
00000000005267d0 W _ZNK2ft3setINSt7__cxx1112basic_stringIcSt11char_traitsIcESaIcEEESt4lessIS6_ESaIS6_EE8max_sizeEv
000000000051c6c0 W _ZNK2ft3setIiSt4lessIiESaIiEE13get_allocatorEv
000000000051c720 W _ZNK2ft3setIiSt4lessIiESaIiEE3endEv
0000000000510c70 W _ZNK2ft3setIiSt4lessIiESaIiEE4sizeEv
000000000051c6f0 W _ZNK2ft3setIiSt4lessIiESaIiEE5beginEv
000000000051c6a0 W _ZNK2ft3setIiSt4lessIiESaIiEE8key_compEv
0000000000510c90 W _ZNK2ft3setIiSt4lessIiESaIiEE8max_sizeEv
000000000051c280 W _ZNK2ft3setIiSt7greaterIiESaIiEE13get_allocatorEv
000000000051c490 W _ZNK2ft3setIiSt7greaterIiESaIiEE3endEv
000000000051b260 W _ZNK2ft3setIiSt7greaterIiESaIiEE4sizeEv
000000000051c460 W _ZNK2ft3setIiSt7greaterIiESaIiEE5beginEv
000000000051c260 W _ZNK2ft3setIiSt7greaterIiESaIiEE8key_compEv
000000000051b280 W _ZNK2ft3setIiSt7greaterIiESaIiEE8max_sizeEv
00000000004e23d0 W _ZNK2ft5stackI8LeakTestIiENS_6vectorIS2_SaIS2_EEEE4sizeEv
00000000004e23b0 W _ZNK2ft5stackI8LeakTestIiENS_6vectorIS2_SaIS2_EEEE5emptyEv
00000000004e2a20 W _ZNK2ft5stackINSt7__cxx1112basic_stringIcSt11char_traitsIcESaIcEEENS_6vectorIS6_SaIS6_EEEE4sizeEv
00000000004e2a00 W _ZNK2ft5stackINSt7__cxx1112basic_stringIcSt11char_traitsIcESaIcEEENS_6vectorIS6_SaIS6_EEEE5emptyEv
00000000004d5660 W _ZNK2ft5stackIlNS_6vectorIlSaIlEEEE4sizeEv
00000000004d5600 W _ZNK2ft5stackIlNS_6vectorIlSaIlEEEE5emptyEv
00000000004f8d20 W _ZNK2ft6vectorI6BufferSaIS1_EE4sizeEv
00000000004f8cc0 W _ZNK2ft6vectorI6BufferSaIS1_EE8capacityEv
00000000004f8ca0 W _ZNK2ft6vectorI6BufferSaIS1_EE8max_sizeEv
00000000004e3730 W _ZNK2ft6vectorI8LeakTestIiESaIS2_EE3endEv
00000000004e54d0 W _ZNK2ft6vectorI8LeakTestIiESaIS2_EE4sizeEv
00000000004e36d0 W _ZNK2ft6vectorI8LeakTestIiESaIS2_EE5beginEv
00000000004e5480 W _ZNK2ft6vectorI8LeakTestIiESaIS2_EE5emptyEv
00000000004e4db0 W _ZNK2ft6vectorI8LeakTestIiESaIS2_EE8capacityEv
00000000004e4d90 W _ZNK2ft6vectorI8LeakTestIiESaIS2_EE8max_sizeEv
0000000000539b70 W _ZNK2ft6vectorINS0_I8LeakTestIiESaIS2_EEESaIS4_EE3endEv
00000000005342c0 W _ZNK2ft6vectorINS0_I8LeakTestIiESaIS2_EEESaIS4_EE4sizeEv
0000000000539b10 W _ZNK2ft6vectorINS0_I8LeakTestIiESaIS2_EEESaIS4_EE5beginEv
0000000000534300 W _ZNK2ft6vectorINS0_I8LeakTestIiESaIS2_EEESaIS4_EE8capacityEv
000000000053b1a0 W _ZNK2ft6vectorINS0_I8LeakTestIiESaIS2_EEESaIS4_EE8max_sizeEv
00000000004e61d0 W _ZNK2ft6vectorINSt7__cxx1112basic_stringIcSt11char_traitsIcESaIcEEESaIS6_EE3endEv
00000000004e7d20 W _ZNK2ft6vectorINSt7__cxx1112basic_stringIcSt11char_traitsIcESaIcEEESaIS6_EE4sizeEv
00000000004e6170 W _ZNK2ft6vectorINSt7__cxx1112basic_stringIcSt11char_traitsIcESaIcEEESaIS6_EE5beginEv
00000000004e7cd0 W _ZNK2ft6vectorINSt7__cxx1112basic_stringIcSt11char_traitsIcESaIcEEESaIS6_EE5emptyEv
00000000004e7860 W _ZNK2ft6vectorINSt7__cxx1112basic_stringIcSt11char_traitsIcESaIcEEESaIS6_EE8capacityEv
00000000004e7840 W _ZNK2ft6vectorINSt7__cxx1112basic_stringIcSt11char_traitsIcESaIcEEESaIS6_EE8max_sizeEv
00000000004fdcb0 W _ZNK2ft6vectorIcSaIcEE3endEv
000000000053d270 W _ZNK2ft6vectorIcSaIcEE4sizeEv
00000000004fdc50 W _ZNK2ft6vectorIcSaIcEE5beginEv
000000000053d2b0 W _ZNK2ft6vectorIcSaIcEE5emptyEv
00000000004ff370 W _ZNK2ft6vectorIcSaIcEE8capacityEv
00000000004ff350 W _ZNK2ft6vectorIcSaIcEE8max_sizeEv
00000000004ecb70 W _ZNK2ft6vectorIiSaIiEE3endEv
0000000000539320 W _ZNK2ft6vectorIiSaIiEE4sizeEv
00000000004ecb10 W _ZNK2ft6vectorIiSaIiEE5beginEv
0000000000532dc0 W _ZNK2ft6vectorIiSaIiEE5emptyEv
00000000004ee270 W _ZNK2ft6vectorIiSaIiEE8capacityEv
00000000004ee250 W _ZNK2ft6vectorIiSaIiEE8max_sizeEv
00000000004d7e40 W _ZNK2ft6vectorIlSaIlEE3endEv
00000000004d6a90 W _ZNK2ft6vectorIlSaIlEE4sizeEv
00000000004d7de0 W _ZNK2ft6vectorIlSaIlEE5beginEv
00000000004d6f00 W _ZNK2ft6vectorIlSaIlEE5emptyEv
00000000004d6a30 W _ZNK2ft6vectorIlSaIlEE8capacityEv
00000000004d6a10 W _ZNK2ft6vectorIlSaIlEE8max_sizeEv
0000000000554f90 W _ZNK2ft7RB_treeIKNSt7__cxx1112basic_stringIcSt11char_traitsIcESaIcEEEiNS_4pairIS7_iEESt4lessIS7_ESaIS9_EE7getSizeEv
0000000000554fd0 W _ZNK2ft7RB_treeIKNSt7__cxx1112basic_stringIcSt11char_traitsIcESaIcEEEiNS_4pairIS7_iEESt4lessIS7_ESaIS9_EE8getAllocEv
0000000000569fa0 W _ZNK2ft7RB_treeIKi8LeakTestIiENS_4pairIS1_S3_EESt4lessIS1_ESaIS5_EE7getSizeEv
0000000000569fe0 W _ZNK2ft7RB_treeIKi8LeakTestIiENS_4pairIS1_S3_EESt4lessIS1_ESaIS5_EE8getAllocEv
0000000000575e00 W _ZNK2ft7RB_treeIKiNSt7__cxx1112basic_stringIcSt11char_traitsIcESaIcEEENS_4pairIS1_S7_EESt4lessIS1_ESaIS9_EE3endEv
00000000005759d0 W _ZNK2ft7RB_treeIKiNSt7__cxx1112basic_stringIcSt11char_traitsIcESaIcEEENS_4pairIS1_S7_EESt4lessIS1_ESaIS9_EE4findERS1_
0000000000575710 W _ZNK2ft7RB_treeIKiNSt7__cxx1112basic_stringIcSt11char_traitsIcESaIcEEENS_4pairIS1_S7_EESt4lessIS1_ESaIS9_EE5countERS1_
0000000000575670 W _ZNK2ft7RB_treeIKiNSt7__cxx1112basic_stringIcSt11char_traitsIcESaIcEEENS_4pairIS1_S7_EESt4lessIS1_ESaIS9_EE7getSizeEv
00000000005756b0 W _ZNK2ft7RB_treeIKiNSt7__cxx1112basic_stringIcSt11char_traitsIcESaIcEEENS_4pairIS1_S7_EESt4lessIS1_ESaIS9_EE8getAllocEv
0000000000561830 W _ZNK2ft7RB_treeIKiiNS_4pairIS1_iEESt4lessIS1_ESaIS3_EE3endEv
00000000005616c0 W _ZNK2ft7RB_treeIKiiNS_4pairIS1_iEESt4lessIS1_ESaIS3_EE5beginEv
00000000004e0c90 W _ZNK2ft7RB_treeIKiiNS_4pairIS1_iEESt4lessIS1_ESaIS3_EE7getSizeEv
00000000004e0cd0 W _ZNK2ft7RB_treeIKiiNS_4pairIS1_iEESt4lessIS1_ESaIS3_EE8getAllocEv
00000000005616b0 W _ZNK2ft7RB_treeIKiiNS_4pairIS1_iEESt4lessIS1_ESaIS3_EE8key_compEv
00000000005613f0 W _ZNK2ft7RB_treeIKiiNS_4pairIS1_iEESt7greaterIS1_ESaIS3_EE3endEv
0000000000561280 W _ZNK2ft7RB_treeIKiiNS_4pairIS1_iEESt7greaterIS1_ESaIS3_EE5beginEv
0000000000560220 W _ZNK2ft7RB_treeIKiiNS_4pairIS1_iEESt7greaterIS1_ESaIS3_EE7getSizeEv
0000000000560260 W _ZNK2ft7RB_treeIKiiNS_4pairIS1_iEESt7greaterIS1_ESaIS3_EE8getAllocEv
0000000000561270 W _ZNK2ft7RB_treeIKiiNS_4pairIS1_iEESt7greaterIS1_ESaIS3_EE8key_compEv
00000000005275c0 W _ZNK2ft7RB_treeINSt7__cxx1112basic_stringIcSt11char_traitsIcESaIcEEES6_KS6_St4lessIS6_ESaIS6_EE3endEv
0000000000527100 W _ZNK2ft7RB_treeINSt7__cxx1112basic_stringIcSt11char_traitsIcESaIcEEES6_KS6_St4lessIS6_ESaIS6_EE4findERS7_
0000000000526e80 W _ZNK2ft7RB_treeINSt7__cxx1112basic_stringIcSt11char_traitsIcESaIcEEES6_KS6_St4lessIS6_ESaIS6_EE5countERS7_
0000000000526920 W _ZNK2ft7RB_treeINSt7__cxx1112basic_stringIcSt11char_traitsIcESaIcEEES6_KS6_St4lessIS6_ESaIS6_EE7getSizeEv
0000000000526960 W _ZNK2ft7RB_treeINSt7__cxx1112basic_stringIcSt11char_traitsIcESaIcEEES6_KS6_St4lessIS6_ESaIS6_EE8getAllocEv
000000000051c8d0 W _ZNK2ft7RB_treeIiiKiSt4lessIiESaIiEE3endEv
000000000051c760 W _ZNK2ft7RB_treeIiiKiSt4lessIiESaIiEE5beginEv
0000000000510de0 W _ZNK2ft7RB_treeIiiKiSt4lessIiESaIiEE7getSizeEv
0000000000510e20 W _ZNK2ft7RB_treeIiiKiSt4lessIiESaIiEE8getAllocEv
000000000051c750 W _ZNK2ft7RB_treeIiiKiSt4lessIiESaIiEE8key_compEv
000000000051c640 W _ZNK2ft7RB_treeIiiKiSt7greaterIiESaIiEE3endEv
000000000051c4d0 W _ZNK2ft7RB_treeIiiKiSt7greaterIiESaIiEE5beginEv
000000000051b3d0 W _ZNK2ft7RB_treeIiiKiSt7greaterIiESaIiEE7getSizeEv
000000000051b410 W _ZNK2ft7RB_treeIiiKiSt7greaterIiESaIiEE8getAllocEv
000000000051c4c0 W _ZNK2ft7RB_treeIiiKiSt7greaterIiESaIiEE8key_compEv
00000000004fcd50 W _ZNK2ft7RB_treeIiiNS_4pairIKiiEESt4lessIiESaIS3_EE3endEv
00000000004fcbe0 W _ZNK2ft7RB_treeIiiNS_4pairIKiiEESt4lessIiESaIS3_EE5beginEv
00000000004fc070 W _ZNK2ft7RB_treeIiiNS_4pairIKiiEESt4lessIiESaIS3_EE8getAllocEv
00000000004fc060 W _ZNK2ft7RB_treeIiiNS_4pairIKiiEESt4lessIiESaIS3_EE8key_compEv
0000000000420a80 T _ZNK6__asan13AsanChunkView11IsAllocatedEv
0000000000420b60 T _ZNK6__asan13AsanChunkView12GetAllocTypeEv
0000000000420bf0 T _ZNK6__asan13AsanChunkView12GetFreeStackEv
0000000000420ba0 T _ZNK6__asan13AsanChunkView13GetAllocStackEv
0000000000420aa0 T _ZNK6__asan13AsanChunkView13IsQuarantinedEv
0000000000420b80 T _ZNK6__asan13AsanChunkView14GetFreeStackIdEv
0000000000420b70 T _ZNK6__asan13AsanChunkView15GetAllocStackIdEv
0000000000420b10 T _ZNK6__asan13AsanChunkView22UserRequestedAlignmentEv
0000000000420ac0 T _ZNK6__asan13AsanChunkView3BegEv
0000000000420ad0 T _ZNK6__asan13AsanChunkView3EndEv
0000000000420b40 T _ZNK6__asan13AsanChunkView7FreeTidEv
0000000000420a60 T _ZNK6__asan13AsanChunkView7IsValidEv
0000000000420b30 T _ZNK6__asan13AsanChunkView8AllocTidEv
0000000000420af0 T _ZNK6__asan13AsanChunkView8UsedSizeEv
000000000042a100 W _ZNK6__asan18AddressDescription5PrintEPKc
0000000000420910 T _ZNK6__asan20AsanMapUnmapCallback5OnMapEmm
0000000000420940 T _ZNK6__asan20AsanMapUnmapCallback7OnUnmapEmm
0000000000428950 T _ZNK6__asan22HeapAddressDescription5PrintEv
0000000000428e80 T _ZNK6__asan23StackAddressDescription5PrintEv
00000000004296c0 T _ZNK6__asan24GlobalAddressDescription27PointsInsideTheSameVariableERKS0_
0000000000429440 T _ZNK6__asan24GlobalAddressDescription5PrintEPKc
0000000000428720 T _ZNK6__asan24ShadowAddressDescription5PrintEv
00000000004233b0 W _ZNK6__asan9Allocator12CheckOptionsERKNS_16AllocatorOptionsE
00000000004229f0 T _ZNK6__lsan12LsanMetadata14requested_sizeEv
0000000000422a10 T _ZNK6__lsan12LsanMetadata14stack_trace_idEv
00000000004229c0 T _ZNK6__lsan12LsanMetadata3tagEv
00000000004229a0 T _ZNK6__lsan12LsanMetadata9allocatedEv
00000000004cc380 T _ZNK7__ubsan5Value12getSIntValueEv
00000000004cc460 T _ZNK7__ubsan5Value12getUIntValueEv
00000000004cc670 T _ZNK7__ubsan5Value13getFloatValueEv
00000000004cc4f0 T _ZNK7__ubsan5Value19getPositiveIntValueEv
00000000004ef8d0 W _ZNKSt11_Deque_baseI6BufferSaIS0_EE19_M_get_Tp_allocatorEv
00000000004ef840 W _ZNKSt11_Deque_baseI6BufferSaIS0_EE20_M_get_map_allocatorEv
00000000005749b0 W _ZNKSt14_List_iteratorIN2ft4pairIKiNSt7__cxx1112basic_stringIcSt11char_traitsIcESaIcEEEEEEdeEv
0000000000560e00 W _ZNKSt14_List_iteratorIN2ft4pairIKiiEEEdeEv
0000000000526010 W _ZNKSt14_List_iteratorINSt7__cxx1112basic_stringIcSt11char_traitsIcESaIcEEEEdeEv
000000000053d150 W _ZNKSt14_List_iteratorIcEdeEv
000000000051c050 W _ZNKSt14_List_iteratorIiEdeEv
00000000004ee800 W _ZNKSt15__new_allocatorI6BufferE11_M_max_sizeEv
00000000004f8d00 W _ZNKSt15__new_allocatorI6BufferE8max_sizeEv
00000000004e2c40 W _ZNKSt15__new_allocatorI8LeakTestIiEE11_M_max_sizeEv
00000000004e4df0 W _ZNKSt15__new_allocatorI8LeakTestIiEE8max_sizeEv
00000000005394b0 W _ZNKSt15__new_allocatorIN2ft6vectorI8LeakTestIiESaIS3_EEEE11_M_max_sizeEv
000000000053b1c0 W _ZNKSt15__new_allocatorIN2ft6vectorI8LeakTestIiESaIS3_EEEE8max_sizeEv
000000000051d730 W _ZNKSt15__new_allocatorIN2ft7RB_nodeIKNSt7__cxx1112basic_stringIcSt11char_traitsIcESaIcEEES7_S7_EEE11_M_max_sizeEv
00000000005269a0 W _ZNKSt15__new_allocatorIN2ft7RB_nodeIKNSt7__cxx1112basic_stringIcSt11char_traitsIcESaIcEEES7_S7_EEE8max_sizeEv
000000000050c680 W _ZNKSt15__new_allocatorIN2ft7RB_nodeIKiiiEEE11_M_max_sizeEv
0000000000510e60 W _ZNKSt15__new_allocatorIN2ft7RB_nodeIKiiiEEE8max_sizeEv
0000000000550250 W _ZNKSt15__new_allocatorIN2ft7RB_nodeINS0_4pairIKNSt7__cxx1112basic_stringIcSt11char_traitsIcESaIcEEEiEES9_iEEE11_M_max_sizeEv
0000000000555010 W _ZNKSt15__new_allocatorIN2ft7RB_nodeINS0_4pairIKNSt7__cxx1112basic_stringIcSt11char_traitsIcESaIcEEEiEES9_iEEE8max_sizeEv
0000000000562700 W _ZNKSt15__new_allocatorIN2ft7RB_nodeINS0_4pairIKi8LeakTestIiEEES3_S5_EEE11_M_max_sizeEv
000000000056a020 W _ZNKSt15__new_allocatorIN2ft7RB_nodeINS0_4pairIKi8LeakTestIiEEES3_S5_EEE8max_sizeEv
000000000056be50 W _ZNKSt15__new_allocatorIN2ft7RB_nodeINS0_4pairIKiNSt7__cxx1112basic_stringIcSt11char_traitsIcESaIcEEEEES3_S9_EEE11_M_max_sizeEv
00000000005756f0 W _ZNKSt15__new_allocatorIN2ft7RB_nodeINS0_4pairIKiNSt7__cxx1112basic_stringIcSt11char_traitsIcESaIcEEEEES3_S9_EEE8max_sizeEv
00000000004d8fa0 W _ZNKSt15__new_allocatorIN2ft7RB_nodeINS0_4pairIKiiEES3_iEEE11_M_max_sizeEv
00000000004e0d10 W _ZNKSt15__new_allocatorIN2ft7RB_nodeINS0_4pairIKiiEES3_iEEE8max_sizeEv
00000000004f40d0 W _ZNKSt15__new_allocatorIN2ft7RB_nodeINS0_4pairIKiiEEiiEEE11_M_max_sizeEv
00000000004e5730 W _ZNKSt15__new_allocatorINSt7__cxx1112basic_stringIcSt11char_traitsIcESaIcEEEE11_M_max_sizeEv
00000000004e78a0 W _ZNKSt15__new_allocatorINSt7__cxx1112basic_stringIcSt11char_traitsIcESaIcEEEE8max_sizeEv
00000000004ef980 W _ZNKSt15__new_allocatorIP6BufferE11_M_max_sizeEv
00000000005748c0 W _ZNKSt15__new_allocatorISt10_List_nodeIN2ft4pairIKiNSt7__cxx1112basic_stringIcSt11char_traitsIcESaIcEEEEEEE11_M_max_sizeEv
0000000000560a80 W _ZNKSt15__new_allocatorISt10_List_nodeIN2ft4pairIKiiEEEE11_M_max_sizeEv
0000000000525f20 W _ZNKSt15__new_allocatorISt10_List_nodeINSt7__cxx1112basic_stringIcSt11char_traitsIcESaIcEEEEE11_M_max_sizeEv
000000000053ce90 W _ZNKSt15__new_allocatorISt10_List_nodeIcEE11_M_max_sizeEv
000000000051bcd0 W _ZNKSt15__new_allocatorISt10_List_nodeIiEE11_M_max_sizeEv
00000000004fd260 W _ZNKSt15__new_allocatorIcE11_M_max_sizeEv
00000000004ff3b0 W _ZNKSt15__new_allocatorIcE8max_sizeEv
00000000004ec0e0 W _ZNKSt15__new_allocatorIiE11_M_max_sizeEv
00000000004ee2b0 W _ZNKSt15__new_allocatorIiE8max_sizeEv
00000000004d6370 W _ZNKSt15__new_allocatorIlE11_M_max_sizeEv
00000000004d6a70 W _ZNKSt15__new_allocatorIlE8max_sizeEv
0000000000553500 W _ZNKSt4lessIKNSt7__cxx1112basic_stringIcSt11char_traitsIcESaIcEEEEclERS6_S8_
00000000004dbea0 W _ZNKSt4lessIKiEclERS0_S2_
00000000005208b0 W _ZNKSt4lessINSt7__cxx1112basic_stringIcSt11char_traitsIcESaIcEEEEclERKS5_S8_
00000000004f7090 W _ZNKSt4lessIiEclERKiS2_
00000000004f0710 W _ZNKSt5dequeI6BufferSaIS0_EE3endEv
00000000004f0270 W _ZNKSt5dequeI6BufferSaIS0_EE4sizeEv
00000000004f06e0 W _ZNKSt5dequeI6BufferSaIS0_EE5beginEv
                 U _ZNKSt7__cxx1112basic_stringIcSt11char_traitsIcESaIcEE4findEPKcm@GLIBCXX_3.4.21
                 U _ZNKSt7__cxx1112basic_stringIcSt11char_traitsIcESaIcEE7compareERKS4_@GLIBCXX_3.4.21
000000000055c4f0 W _ZNKSt7greaterIKiEclERS0_S2_
00000000005176a0 W _ZNKSt7greaterIiEclERKiS2_
00000000004ee700 W _ZNSaI6BufferEC2ERKS0_
00000000004ea240 W _ZNSaI6BufferEC2Ev
00000000004ea3d0 W _ZNSaI6BufferED2Ev
00000000004e2b40 W _ZNSaI8LeakTestIiEEC2ERKS1_
00000000004e2010 W _ZNSaI8LeakTestIiEEC2Ev
00000000004e2390 W _ZNSaI8LeakTestIiEED2Ev
000000000054e8b0 W _ZNSaIN2ft4pairIKiNSt7__cxx1112basic_stringIcSt11char_traitsIcESaIcEEEEEEC2ISt10_List_nodeIS8_EEERKSaIT_E
000000000054e8f0 W _ZNSaIN2ft4pairIKiNSt7__cxx1112basic_stringIcSt11char_traitsIcESaIcEEEEEED2Ev
000000000054e440 W _ZNSaIN2ft4pairIKiiEEEC2ISt10_List_nodeIS2_EEERKSaIT_E
000000000054e470 W _ZNSaIN2ft4pairIKiiEEED2Ev
0000000000539380 W _ZNSaIN2ft6vectorI8LeakTestIiESaIS2_EEEEC2ERKS5_
0000000000533550 W _ZNSaIN2ft6vectorI8LeakTestIiESaIS2_EEEEC2Ev
0000000000533800 W _ZNSaIN2ft6vectorI8LeakTestIiESaIS2_EEEED2Ev
000000000051d140 W _ZNSaIN2ft7RB_nodeIKNSt7__cxx1112basic_stringIcSt11char_traitsIcESaIcEEES6_S6_EEEC2ERKS9_
0000000000509890 W _ZNSaIN2ft7RB_nodeIKNSt7__cxx1112basic_stringIcSt11char_traitsIcESaIcEEES6_S6_EEEC2Ev
00000000005098e0 W _ZNSaIN2ft7RB_nodeIKNSt7__cxx1112basic_stringIcSt11char_traitsIcESaIcEEES6_S6_EEED2Ev
000000000050c000 W _ZNSaIN2ft7RB_nodeIKiiiEEEC2ERKS3_
0000000000506650 W _ZNSaIN2ft7RB_nodeIKiiiEEEC2Ev
00000000005066a0 W _ZNSaIN2ft7RB_nodeIKiiiEEED2Ev
000000000054fbd0 W _ZNSaIN2ft7RB_nodeINS_4pairIKNSt7__cxx1112basic_stringIcSt11char_traitsIcESaIcEEEiEES8_iEEEC2ERKSB_
0000000000549620 W _ZNSaIN2ft7RB_nodeINS_4pairIKNSt7__cxx1112basic_stringIcSt11char_traitsIcESaIcEEEiEES8_iEEEC2Ev
0000000000549670 W _ZNSaIN2ft7RB_nodeINS_4pairIKNSt7__cxx1112basic_stringIcSt11char_traitsIcESaIcEEEiEES8_iEEED2Ev
00000000005620a0 W _ZNSaIN2ft7RB_nodeINS_4pairIKi8LeakTestIiEEES2_S4_EEEC2ERKS7_
000000000054b690 W _ZNSaIN2ft7RB_nodeINS_4pairIKi8LeakTestIiEEES2_S4_EEEC2Ev
000000000054b6e0 W _ZNSaIN2ft7RB_nodeINS_4pairIKi8LeakTestIiEEES2_S4_EEED2Ev
000000000056b7f0 W _ZNSaIN2ft7RB_nodeINS_4pairIKiNSt7__cxx1112basic_stringIcSt11char_traitsIcESaIcEEEEES2_S8_EEEC2ERKSB_
000000000054bd60 W _ZNSaIN2ft7RB_nodeINS_4pairIKiNSt7__cxx1112basic_stringIcSt11char_traitsIcESaIcEEEEES2_S8_EEEC2Ev
000000000054bdb0 W _ZNSaIN2ft7RB_nodeINS_4pairIKiNSt7__cxx1112basic_stringIcSt11char_traitsIcESaIcEEEEES2_S8_EEED2Ev
00000000004d8920 W _ZNSaIN2ft7RB_nodeINS_4pairIKiiEES2_iEEEC2ERKS5_
00000000004d5720 W _ZNSaIN2ft7RB_nodeINS_4pairIKiiEES2_iEEEC2Ev
00000000004d5770 W _ZNSaIN2ft7RB_nodeINS_4pairIKiiEES2_iEEED2Ev
00000000004f3af0 W _ZNSaIN2ft7RB_nodeINS_4pairIKiiEEiiEEEC2ERKS5_
00000000004ea6c0 W _ZNSaIN2ft7RB_nodeINS_4pairIKiiEEiiEEEC2Ev
00000000004ea710 W _ZNSaIN2ft7RB_nodeINS_4pairIKiiEEiiEEED2Ev
00000000004e5630 W _ZNSaINSt7__cxx1112basic_stringIcSt11char_traitsIcESaIcEEEEC2ERKS5_
00000000004e2660 W _ZNSaINSt7__cxx1112basic_stringIcSt11char_traitsIcESaIcEEEEC2Ev
000000000050b780 W _ZNSaINSt7__cxx1112basic_stringIcSt11char_traitsIcESaIcEEEEC2ISt10_List_nodeIS4_EEERKSaIT_E
00000000004e29e0 W _ZNSaINSt7__cxx1112basic_stringIcSt11char_traitsIcESaIcEEEED2Ev
00000000004ef8e0 W _ZNSaIP6BufferEC2IS_EERKSaIT_E
00000000004ef8b0 W _ZNSaIP6BufferED2Ev
0000000000574300 W _ZNSaISt10_List_nodeIN2ft4pairIKiNSt7__cxx1112basic_stringIcSt11char_traitsIcESaIcEEEEEEEC2Ev
000000000054e9d0 W _ZNSaISt10_List_nodeIN2ft4pairIKiNSt7__cxx1112basic_stringIcSt11char_traitsIcESaIcEEEEEEED2Ev
00000000005604c0 W _ZNSaISt10_List_nodeIN2ft4pairIKiiEEEEC2Ev
000000000054e550 W _ZNSaISt10_List_nodeIN2ft4pairIKiiEEEED2Ev
0000000000525990 W _ZNSaISt10_List_nodeINSt7__cxx1112basic_stringIcSt11char_traitsIcESaIcEEEEEC2Ev
000000000050b840 W _ZNSaISt10_List_nodeINSt7__cxx1112basic_stringIcSt11char_traitsIcESaIcEEEEED2Ev
000000000053c900 W _ZNSaISt10_List_nodeIcEEC2Ev
0000000000539210 W _ZNSaISt10_List_nodeIcEED2Ev
000000000051b670 W _ZNSaISt10_List_nodeIiEEC2Ev
000000000050b420 W _ZNSaISt10_List_nodeIiEED2Ev
                 U _ZNSaIcEC1ERKS_@GLIBCXX_3.4
                 U _ZNSaIcEC1Ev@GLIBCXX_3.4
0000000000539140 W _ZNSaIcEC2ISt10_List_nodeIcEEERKSaIT_E
                 U _ZNSaIcED1Ev@GLIBCXX_3.4
00000000004ebfe0 W _ZNSaIiEC2ERKS_
00000000004e9ea0 W _ZNSaIiEC2Ev
000000000050b360 W _ZNSaIiEC2ISt10_List_nodeIiEEERKSaIT_E
00000000004ea030 W _ZNSaIiED2Ev
00000000004d6270 W _ZNSaIlEC2ERKS_
00000000004d2bd0 W _ZNSaIlEC2Ev
00000000004d2d60 W _ZNSaIlED2Ev
                 U _ZNSolsEPFRSoS_E@GLIBCXX_3.4
                 U _ZNSolsEb@GLIBCXX_3.4
                 U _ZNSolsEd@GLIBCXX_3.4
                 U _ZNSolsEi@GLIBCXX_3.4
                 U _ZNSolsEl@GLIBCXX_3.4
                 U _ZNSolsEm@GLIBCXX_3.4
000000000054e880 W _ZNSt10_List_nodeIN2ft4pairIKiNSt7__cxx1112basic_stringIcSt11char_traitsIcESaIcEEEEEE9_M_valptrEv
000000000054e410 W _ZNSt10_List_nodeIN2ft4pairIKiiEEE9_M_valptrEv
000000000050b750 W _ZNSt10_List_nodeINSt7__cxx1112basic_stringIcSt11char_traitsIcESaIcEEEE9_M_valptrEv
0000000000539110 W _ZNSt10_List_nodeIcE9_M_valptrEv
000000000050b330 W _ZNSt10_List_nodeIiE9_M_valptrEv
00000000004f0910 W _ZNSt11_Deque_baseI6BufferSaIS0_EE11_Deque_implC2ERKS1_
00000000004ee8b0 W _ZNSt11_Deque_baseI6BufferSaIS0_EE11_Deque_implC2Ev
00000000004ef030 W _ZNSt11_Deque_baseI6BufferSaIS0_EE11_Deque_implD2Ev
00000000004ef280 W _ZNSt11_Deque_baseI6BufferSaIS0_EE15_M_allocate_mapEm
00000000004ef440 W _ZNSt11_Deque_baseI6BufferSaIS0_EE15_M_create_nodesEPPS0_S4_
00000000004ef050 W _ZNSt11_Deque_baseI6BufferSaIS0_EE16_Deque_impl_dataC2Ev
00000000004ef9b0 W _ZNSt11_Deque_baseI6BufferSaIS0_EE16_M_allocate_nodeEv
00000000004ef9e0 W _ZNSt11_Deque_baseI6BufferSaIS0_EE16_M_destroy_nodesEPPS0_S4_
00000000004ef550 W _ZNSt11_Deque_baseI6BufferSaIS0_EE17_M_deallocate_mapEPPS0_m
00000000004ee900 W _ZNSt11_Deque_baseI6BufferSaIS0_EE17_M_initialize_mapEm
00000000004efa90 W _ZNSt11_Deque_baseI6BufferSaIS0_EE18_M_deallocate_nodeEPS0_
00000000004efc00 W _ZNSt11_Deque_baseI6BufferSaIS0_EE19_M_get_Tp_allocatorEv
00000000004f02a0 W _ZNSt11_Deque_baseI6BufferSaIS0_EEC2ERKS1_m
00000000004ee860 W _ZNSt11_Deque_baseI6BufferSaIS0_EEC2Ev
00000000004efc10 W _ZNSt11_Deque_baseI6BufferSaIS0_EED2Ev
00000000004f3190 W _ZNSt11__copy_moveILb0ELb1ESt26random_access_iterator_tagE8__copy_mI6BufferEEPT_PKS4_S7_S5_
                 U _ZNSt12length_errorC1ERKNSt7__cxx1112basic_stringIcSt11char_traitsIcESaIcEEE@GLIBCXX_3.4.21
                 U _ZNSt12length_errorD1Ev@GLIBCXX_3.4
                 U _ZNSt12out_of_rangeC1ERKNSt7__cxx1112basic_stringIcSt11char_traitsIcESaIcEEE@GLIBCXX_3.4.21
                 U _ZNSt12out_of_rangeD1Ev@GLIBCXX_3.4
00000000005748e0 W _ZNSt14_List_iteratorIN2ft4pairIKiNSt7__cxx1112basic_stringIcSt11char_traitsIcESaIcEEEEEEC2EPNSt8__detail15_List_node_baseE
00000000005749f0 W _ZNSt14_List_iteratorIN2ft4pairIKiNSt7__cxx1112basic_stringIcSt11char_traitsIcESaIcEEEEEEppEi
0000000000560aa0 W _ZNSt14_List_iteratorIN2ft4pairIKiiEEEC2EPNSt8__detail15_List_node_baseE
0000000000560e40 W _ZNSt14_List_iteratorIN2ft4pairIKiiEEEppEi
0000000000525f40 W _ZNSt14_List_iteratorINSt7__cxx1112basic_stringIcSt11char_traitsIcESaIcEEEEC2EPNSt8__detail15_List_node_baseE
0000000000526050 W _ZNSt14_List_iteratorINSt7__cxx1112basic_stringIcSt11char_traitsIcESaIcEEEEppEi
000000000053ceb0 W _ZNSt14_List_iteratorIcEC2EPNSt8__detail15_List_node_baseE
000000000053cf80 W _ZNSt14_List_iteratorIcEppEi
000000000051bcf0 W _ZNSt14_List_iteratorIiEC2EPNSt8__detail15_List_node_baseE
000000000051c090 W _ZNSt14_List_iteratorIiEppEi
00000000004f2e40 W _ZNSt15_Deque_iteratorI6BufferRKS0_PS1_E14_S_buffer_sizeEv
00000000004f3200 W _ZNSt15_Deque_iteratorI6BufferRKS0_PS1_EC2ERKS_IS0_RS0_PS0_E
00000000004ef710 W _ZNSt15_Deque_iteratorI6BufferRS0_PS0_E11_M_set_nodeEPS2_
00000000004efb60 W _ZNSt15_Deque_iteratorI6BufferRS0_PS0_E14_S_buffer_sizeEv
00000000004efd70 W _ZNSt15_Deque_iteratorI6BufferRS0_PS0_EC2ERKS3_
00000000004ef0e0 W _ZNSt15_Deque_iteratorI6BufferRS0_PS0_EC2Ev
00000000004f2f10 W _ZNSt15_Deque_iteratorI6BufferRS0_PS0_EpLEl
00000000004ee830 W _ZNSt15__new_allocatorI6BufferE10deallocateEPS0_m
00000000004ee820 W _ZNSt15__new_allocatorI6BufferE7destroyEPS0_
00000000004ee730 W _ZNSt15__new_allocatorI6BufferE8allocateEmPKv
00000000004f8c70 W _ZNSt15__new_allocatorI6BufferE9constructEPS0_RKS0_
00000000004ee7f0 W _ZNSt15__new_allocatorI6BufferEC2ERKS1_
00000000004ee6e0 W _ZNSt15__new_allocatorI6BufferEC2Ev
00000000004ee6f0 W _ZNSt15__new_allocatorI6BufferED2Ev
00000000004e2cd0 W _ZNSt15__new_allocatorI8LeakTestIiEE10deallocateEPS1_m
00000000004e2c60 W _ZNSt15__new_allocatorI8LeakTestIiEE7destroyEPS1_
00000000004e2b70 W _ZNSt15__new_allocatorI8LeakTestIiEE8allocateEmPKv
00000000004e4d60 W _ZNSt15__new_allocatorI8LeakTestIiEE9constructEPS1_RKS1_
00000000004e2c30 W _ZNSt15__new_allocatorI8LeakTestIiEEC2ERKS2_
00000000004e2b20 W _ZNSt15__new_allocatorI8LeakTestIiEEC2Ev
00000000004e2b30 W _ZNSt15__new_allocatorI8LeakTestIiEED2Ev
000000000054e8d0 W _ZNSt15__new_allocatorIN2ft4pairIKiNSt7__cxx1112basic_stringIcSt11char_traitsIcESaIcEEEEEE7destroyEPS9_
00000000005747f0 W _ZNSt15__new_allocatorIN2ft4pairIKiNSt7__cxx1112basic_stringIcSt11char_traitsIcESaIcEEEEEE9constructEPS9_RKS9_
000000000054e950 W _ZNSt15__new_allocatorIN2ft4pairIKiNSt7__cxx1112basic_stringIcSt11char_traitsIcESaIcEEEEEEC2Ev
000000000054e960 W _ZNSt15__new_allocatorIN2ft4pairIKiNSt7__cxx1112basic_stringIcSt11char_traitsIcESaIcEEEEEED2Ev
000000000054e460 W _ZNSt15__new_allocatorIN2ft4pairIKiiEEE7destroyEPS3_
00000000005609b0 W _ZNSt15__new_allocatorIN2ft4pairIKiiEEE9constructEPS3_RKS3_
000000000054e4d0 W _ZNSt15__new_allocatorIN2ft4pairIKiiEEEC2Ev
000000000054e4e0 W _ZNSt15__new_allocatorIN2ft4pairIKiiEEED2Ev
0000000000539540 W _ZNSt15__new_allocatorIN2ft6vectorI8LeakTestIiESaIS3_EEEE10deallocateEPS5_m
00000000005394d0 W _ZNSt15__new_allocatorIN2ft6vectorI8LeakTestIiESaIS3_EEEE7destroyEPS5_
00000000005393b0 W _ZNSt15__new_allocatorIN2ft6vectorI8LeakTestIiESaIS3_EEEE8allocateEmPKv
0000000000539420 W _ZNSt15__new_allocatorIN2ft6vectorI8LeakTestIiESaIS3_EEEE9constructEPS5_RKS5_
00000000005394a0 W _ZNSt15__new_allocatorIN2ft6vectorI8LeakTestIiESaIS3_EEEEC2ERKS6_
0000000000539360 W _ZNSt15__new_allocatorIN2ft6vectorI8LeakTestIiESaIS3_EEEEC2Ev
0000000000539370 W _ZNSt15__new_allocatorIN2ft6vectorI8LeakTestIiESaIS3_EEEED2Ev
000000000051db80 W _ZNSt15__new_allocatorIN2ft7RB_nodeIKNSt7__cxx1112basic_stringIcSt11char_traitsIcESaIcEEES7_S7_EEE10deallocateEPS9_m
000000000051db60 W _ZNSt15__new_allocatorIN2ft7RB_nodeIKNSt7__cxx1112basic_stringIcSt11char_traitsIcESaIcEEES7_S7_EEE7destroyEPS9_
000000000051d170 W _ZNSt15__new_allocatorIN2ft7RB_nodeIKNSt7__cxx1112basic_stringIcSt11char_traitsIcESaIcEEES7_S7_EEE8allocateEmPKv
000000000051d1e0 W _ZNSt15__new_allocatorIN2ft7RB_nodeIKNSt7__cxx1112basic_stringIcSt11char_traitsIcESaIcEEES7_S7_EEE9constructEPS9_RKS9_
000000000051d720 W _ZNSt15__new_allocatorIN2ft7RB_nodeIKNSt7__cxx1112basic_stringIcSt11char_traitsIcESaIcEEES7_S7_EEEC2ERKSA_
000000000051c930 W _ZNSt15__new_allocatorIN2ft7RB_nodeIKNSt7__cxx1112basic_stringIcSt11char_traitsIcESaIcEEES7_S7_EEEC2Ev
000000000051c940 W _ZNSt15__new_allocatorIN2ft7RB_nodeIKNSt7__cxx1112basic_stringIcSt11char_traitsIcESaIcEEES7_S7_EEED2Ev
000000000050cb60 W _ZNSt15__new_allocatorIN2ft7RB_nodeIKiiiEEE10deallocateEPS3_m
000000000050cb50 W _ZNSt15__new_allocatorIN2ft7RB_nodeIKiiiEEE7destroyEPS3_
000000000050c030 W _ZNSt15__new_allocatorIN2ft7RB_nodeIKiiiEEE8allocateEmPKv
000000000050c0a0 W _ZNSt15__new_allocatorIN2ft7RB_nodeIKiiiEEE9constructEPS3_RKS3_
000000000050c670 W _ZNSt15__new_allocatorIN2ft7RB_nodeIKiiiEEEC2ERKS4_
000000000050b870 W _ZNSt15__new_allocatorIN2ft7RB_nodeIKiiiEEEC2Ev
000000000050b880 W _ZNSt15__new_allocatorIN2ft7RB_nodeIKiiiEEED2Ev
0000000000550760 W _ZNSt15__new_allocatorIN2ft7RB_nodeINS0_4pairIKNSt7__cxx1112basic_stringIcSt11char_traitsIcESaIcEEEiEES9_iEEE10deallocateEPSB_m
0000000000550740 W _ZNSt15__new_allocatorIN2ft7RB_nodeINS0_4pairIKNSt7__cxx1112basic_stringIcSt11char_traitsIcESaIcEEEiEES9_iEEE7destroyEPSB_
000000000054fc00 W _ZNSt15__new_allocatorIN2ft7RB_nodeINS0_4pairIKNSt7__cxx1112basic_stringIcSt11char_traitsIcESaIcEEEiEES9_iEEE8allocateEmPKv
000000000054fc70 W _ZNSt15__new_allocatorIN2ft7RB_nodeINS0_4pairIKNSt7__cxx1112basic_stringIcSt11char_traitsIcESaIcEEEiEES9_iEEE9constructEPSB_RKSB_
0000000000550240 W _ZNSt15__new_allocatorIN2ft7RB_nodeINS0_4pairIKNSt7__cxx1112basic_stringIcSt11char_traitsIcESaIcEEEiEES9_iEEEC2ERKSC_
000000000054f380 W _ZNSt15__new_allocatorIN2ft7RB_nodeINS0_4pairIKNSt7__cxx1112basic_stringIcSt11char_traitsIcESaIcEEEiEES9_iEEEC2Ev
000000000054f390 W _ZNSt15__new_allocatorIN2ft7RB_nodeINS0_4pairIKNSt7__cxx1112basic_stringIcSt11char_traitsIcESaIcEEEiEES9_iEEED2Ev
0000000000562ca0 W _ZNSt15__new_allocatorIN2ft7RB_nodeINS0_4pairIKi8LeakTestIiEEES3_S5_EEE10deallocateEPS7_m
0000000000562c80 W _ZNSt15__new_allocatorIN2ft7RB_nodeINS0_4pairIKi8LeakTestIiEEES3_S5_EEE7destroyEPS7_
00000000005620d0 W _ZNSt15__new_allocatorIN2ft7RB_nodeINS0_4pairIKi8LeakTestIiEEES3_S5_EEE8allocateEmPKv
0000000000562140 W _ZNSt15__new_allocatorIN2ft7RB_nodeINS0_4pairIKi8LeakTestIiEEES3_S5_EEE9constructEPS7_RKS7_
00000000005626f0 W _ZNSt15__new_allocatorIN2ft7RB_nodeINS0_4pairIKi8LeakTestIiEEES3_S5_EEEC2ERKS8_
0000000000561890 W _ZNSt15__new_allocatorIN2ft7RB_nodeINS0_4pairIKi8LeakTestIiEEES3_S5_EEEC2Ev
00000000005618a0 W _ZNSt15__new_allocatorIN2ft7RB_nodeINS0_4pairIKi8LeakTestIiEEES3_S5_EEED2Ev
000000000056c360 W _ZNSt15__new_allocatorIN2ft7RB_nodeINS0_4pairIKiNSt7__cxx1112basic_stringIcSt11char_traitsIcESaIcEEEEES3_S9_EEE10deallocateEPSB_m
000000000056c340 W _ZNSt15__new_allocatorIN2ft7RB_nodeINS0_4pairIKiNSt7__cxx1112basic_stringIcSt11char_traitsIcESaIcEEEEES3_S9_EEE7destroyEPSB_
000000000056b820 W _ZNSt15__new_allocatorIN2ft7RB_nodeINS0_4pairIKiNSt7__cxx1112basic_stringIcSt11char_traitsIcESaIcEEEEES3_S9_EEE8allocateEmPKv
000000000056b890 W _ZNSt15__new_allocatorIN2ft7RB_nodeINS0_4pairIKiNSt7__cxx1112basic_stringIcSt11char_traitsIcESaIcEEEEES3_S9_EEE9constructEPSB_RKSB_
000000000056be40 W _ZNSt15__new_allocatorIN2ft7RB_nodeINS0_4pairIKiNSt7__cxx1112basic_stringIcSt11char_traitsIcESaIcEEEEES3_S9_EEEC2ERKSC_
000000000056afa0 W _ZNSt15__new_allocatorIN2ft7RB_nodeINS0_4pairIKiNSt7__cxx1112basic_stringIcSt11char_traitsIcESaIcEEEEES3_S9_EEEC2Ev
000000000056afb0 W _ZNSt15__new_allocatorIN2ft7RB_nodeINS0_4pairIKiNSt7__cxx1112basic_stringIcSt11char_traitsIcESaIcEEEEES3_S9_EEED2Ev
00000000004d93e0 W _ZNSt15__new_allocatorIN2ft7RB_nodeINS0_4pairIKiiEES3_iEEE10deallocateEPS5_m
00000000004d93d0 W _ZNSt15__new_allocatorIN2ft7RB_nodeINS0_4pairIKiiEES3_iEEE7destroyEPS5_
00000000004d8950 W _ZNSt15__new_allocatorIN2ft7RB_nodeINS0_4pairIKiiEES3_iEEE8allocateEmPKv
00000000004d89c0 W _ZNSt15__new_allocatorIN2ft7RB_nodeINS0_4pairIKiiEES3_iEEE9constructEPS5_RKS5_
00000000004d8f90 W _ZNSt15__new_allocatorIN2ft7RB_nodeINS0_4pairIKiiEES3_iEEEC2ERKS6_
00000000004d81e0 W _ZNSt15__new_allocatorIN2ft7RB_nodeINS0_4pairIKiiEES3_iEEEC2Ev
00000000004d81f0 W _ZNSt15__new_allocatorIN2ft7RB_nodeINS0_4pairIKiiEES3_iEEED2Ev
00000000004f4510 W _ZNSt15__new_allocatorIN2ft7RB_nodeINS0_4pairIKiiEEiiEEE10deallocateEPS5_m
00000000004f4500 W _ZNSt15__new_allocatorIN2ft7RB_nodeINS0_4pairIKiiEEiiEEE7destroyEPS5_
00000000004f3b20 W _ZNSt15__new_allocatorIN2ft7RB_nodeINS0_4pairIKiiEEiiEEE8allocateEmPKv
00000000004f3b90 W _ZNSt15__new_allocatorIN2ft7RB_nodeINS0_4pairIKiiEEiiEEE9constructEPS5_RKS5_
00000000004f40c0 W _ZNSt15__new_allocatorIN2ft7RB_nodeINS0_4pairIKiiEEiiEEEC2ERKS6_
00000000004f33b0 W _ZNSt15__new_allocatorIN2ft7RB_nodeINS0_4pairIKiiEEiiEEEC2Ev
00000000004f33c0 W _ZNSt15__new_allocatorIN2ft7RB_nodeINS0_4pairIKiiEEiiEEED2Ev
00000000004e5770 W _ZNSt15__new_allocatorINSt7__cxx1112basic_stringIcSt11char_traitsIcESaIcEEEE10deallocateEPS5_m
00000000004e5750 W _ZNSt15__new_allocatorINSt7__cxx1112basic_stringIcSt11char_traitsIcESaIcEEEE7destroyEPS5_
00000000004e5660 W _ZNSt15__new_allocatorINSt7__cxx1112basic_stringIcSt11char_traitsIcESaIcEEEE8allocateEmPKv
00000000004e7810 W _ZNSt15__new_allocatorINSt7__cxx1112basic_stringIcSt11char_traitsIcESaIcEEEE9constructEPS5_RKS5_
00000000004e5720 W _ZNSt15__new_allocatorINSt7__cxx1112basic_stringIcSt11char_traitsIcESaIcEEEEC2ERKS6_
00000000004e5610 W _ZNSt15__new_allocatorINSt7__cxx1112basic_stringIcSt11char_traitsIcESaIcEEEEC2Ev
00000000004e5620 W _ZNSt15__new_allocatorINSt7__cxx1112basic_stringIcSt11char_traitsIcESaIcEEEED2Ev
00000000004efb30 W _ZNSt15__new_allocatorIP6BufferE10deallocateEPS1_m
00000000004ef910 W _ZNSt15__new_allocatorIP6BufferE8allocateEmPKv
00000000004ef900 W _ZNSt15__new_allocatorIP6BufferEC2Ev
00000000004ef9a0 W _ZNSt15__new_allocatorIP6BufferED2Ev
000000000054e9a0 W _ZNSt15__new_allocatorISt10_List_nodeIN2ft4pairIKiNSt7__cxx1112basic_stringIcSt11char_traitsIcESaIcEEEEEEE10deallocateEPSB_m
0000000000574850 W _ZNSt15__new_allocatorISt10_List_nodeIN2ft4pairIKiNSt7__cxx1112basic_stringIcSt11char_traitsIcESaIcEEEEEEE8allocateEmPKv
0000000000574320 W _ZNSt15__new_allocatorISt10_List_nodeIN2ft4pairIKiNSt7__cxx1112basic_stringIcSt11char_traitsIcESaIcEEEEEEEC2Ev
000000000054e9f0 W _ZNSt15__new_allocatorISt10_List_nodeIN2ft4pairIKiNSt7__cxx1112basic_stringIcSt11char_traitsIcESaIcEEEEEEED2Ev
000000000054e520 W _ZNSt15__new_allocatorISt10_List_nodeIN2ft4pairIKiiEEEE10deallocateEPS5_m
0000000000560a10 W _ZNSt15__new_allocatorISt10_List_nodeIN2ft4pairIKiiEEEE8allocateEmPKv
00000000005604e0 W _ZNSt15__new_allocatorISt10_List_nodeIN2ft4pairIKiiEEEEC2Ev
000000000054e570 W _ZNSt15__new_allocatorISt10_List_nodeIN2ft4pairIKiiEEEED2Ev
000000000050b810 W _ZNSt15__new_allocatorISt10_List_nodeINSt7__cxx1112basic_stringIcSt11char_traitsIcESaIcEEEEE10deallocateEPS7_m
0000000000525eb0 W _ZNSt15__new_allocatorISt10_List_nodeINSt7__cxx1112basic_stringIcSt11char_traitsIcESaIcEEEEE8allocateEmPKv
00000000005259b0 W _ZNSt15__new_allocatorISt10_List_nodeINSt7__cxx1112basic_stringIcSt11char_traitsIcESaIcEEEEEC2Ev
000000000050b860 W _ZNSt15__new_allocatorISt10_List_nodeINSt7__cxx1112basic_stringIcSt11char_traitsIcESaIcEEEEED2Ev
00000000005391e0 W _ZNSt15__new_allocatorISt10_List_nodeIcEE10deallocateEPS1_m
000000000053ce20 W _ZNSt15__new_allocatorISt10_List_nodeIcEE8allocateEmPKv
000000000053c920 W _ZNSt15__new_allocatorISt10_List_nodeIcEEC2Ev
0000000000539230 W _ZNSt15__new_allocatorISt10_List_nodeIcEED2Ev
000000000050b3f0 W _ZNSt15__new_allocatorISt10_List_nodeIiEE10deallocateEPS1_m
000000000051bc60 W _ZNSt15__new_allocatorISt10_List_nodeIiEE8allocateEmPKv
000000000051b6b0 W _ZNSt15__new_allocatorISt10_List_nodeIiEEC2Ev
000000000050b440 W _ZNSt15__new_allocatorISt10_List_nodeIiEED2Ev
00000000004ff6a0 W _ZNSt15__new_allocatorIcE10deallocateEPcm
00000000004ff690 W _ZNSt15__new_allocatorIcE7destroyEPc
00000000004fd1a0 W _ZNSt15__new_allocatorIcE8allocateEmPKv
00000000004ff2a0 W _ZNSt15__new_allocatorIcE9constructEPcRKc
00000000005391a0 W _ZNSt15__new_allocatorIcEC2Ev
00000000004ec110 W _ZNSt15__new_allocatorIiE10deallocateEPim
00000000004ec100 W _ZNSt15__new_allocatorIiE7destroyEPi
00000000004ec010 W _ZNSt15__new_allocatorIiE8allocateEmPKv
00000000004ee1a0 W _ZNSt15__new_allocatorIiE9constructEPiRKi
00000000004ec0d0 W _ZNSt15__new_allocatorIiEC2ERKS0_
00000000004ebfc0 W _ZNSt15__new_allocatorIiEC2Ev
00000000004ebfd0 W _ZNSt15__new_allocatorIiED2Ev
00000000004d63a0 W _ZNSt15__new_allocatorIlE10deallocateEPlm
00000000004d6390 W _ZNSt15__new_allocatorIlE7destroyEPl
00000000004d62a0 W _ZNSt15__new_allocatorIlE8allocateEmPKv
00000000004d6990 W _ZNSt15__new_allocatorIlE9constructEPlRKl
00000000004d6360 W _ZNSt15__new_allocatorIlEC2ERKS0_
00000000004d6250 W _ZNSt15__new_allocatorIlEC2Ev
00000000004d6260 W _ZNSt15__new_allocatorIlED2Ev
00000000004f0d30 W _ZNSt20__uninitialized_copyILb1EE13__uninit_copyISt15_Deque_iteratorI6BufferRKS3_PS4_ES2_IS3_RS3_PS3_EEET0_T_SC_SB_
00000000004efb70 W _ZNSt5dequeI6BufferSaIS0_EE15_M_destroy_dataESt15_Deque_iteratorIS0_RS0_PS0_ES6_RKS1_
00000000004efbc0 W _ZNSt5dequeI6BufferSaIS0_EE3endEv
00000000004efb80 W _ZNSt5dequeI6BufferSaIS0_EE5beginEv
00000000004eff20 W _ZNSt5dequeI6BufferSaIS0_EEC2ERKS2_
00000000004ea3f0 W _ZNSt5dequeI6BufferSaIS0_EEC2Ev
00000000004ea440 W _ZNSt5dequeI6BufferSaIS0_EED2Ev
00000000005742b0 W _ZNSt7__cxx1110_List_baseIN2ft4pairIKiNS_12basic_stringIcSt11char_traitsIcESaIcEEEEESaIS9_EE10_List_implC2Ev
000000000054e860 W _ZNSt7__cxx1110_List_baseIN2ft4pairIKiNS_12basic_stringIcSt11char_traitsIcESaIcEEEEESaIS9_EE10_List_implD2Ev
00000000005747d0 W _ZNSt7__cxx1110_List_baseIN2ft4pairIKiNS_12basic_stringIcSt11char_traitsIcESaIcEEEEESaIS9_EE11_M_get_nodeEv
0000000000574770 W _ZNSt7__cxx1110_List_baseIN2ft4pairIKiNS_12basic_stringIcSt11char_traitsIcESaIcEEEEESaIS9_EE11_M_inc_sizeEm
000000000054e910 W _ZNSt7__cxx1110_List_baseIN2ft4pairIKiNS_12basic_stringIcSt11char_traitsIcESaIcEEEEESaIS9_EE11_M_put_nodeEPSt10_List_nodeIS9_E
000000000054e8a0 W _ZNSt7__cxx1110_List_baseIN2ft4pairIKiNS_12basic_stringIcSt11char_traitsIcESaIcEEEEESaIS9_EE21_M_get_Node_allocatorEv
000000000054e5d0 W _ZNSt7__cxx1110_List_baseIN2ft4pairIKiNS_12basic_stringIcSt11char_traitsIcESaIcEEEEESaIS9_EE8_M_clearEv
0000000000574290 W _ZNSt7__cxx1110_List_baseIN2ft4pairIKiNS_12basic_stringIcSt11char_traitsIcESaIcEEEEESaIS9_EEC2Ev
000000000054e580 W _ZNSt7__cxx1110_List_baseIN2ft4pairIKiNS_12basic_stringIcSt11char_traitsIcESaIcEEEEESaIS9_EED2Ev
0000000000560470 W _ZNSt7__cxx1110_List_baseIN2ft4pairIKiiEESaIS4_EE10_List_implC2Ev
000000000054e3f0 W _ZNSt7__cxx1110_List_baseIN2ft4pairIKiiEESaIS4_EE10_List_implD2Ev
0000000000560990 W _ZNSt7__cxx1110_List_baseIN2ft4pairIKiiEESaIS4_EE11_M_get_nodeEv
0000000000560930 W _ZNSt7__cxx1110_List_baseIN2ft4pairIKiiEESaIS4_EE11_M_inc_sizeEm
000000000054e490 W _ZNSt7__cxx1110_List_baseIN2ft4pairIKiiEESaIS4_EE11_M_put_nodeEPSt10_List_nodeIS4_E
000000000054e430 W _ZNSt7__cxx1110_List_baseIN2ft4pairIKiiEESaIS4_EE21_M_get_Node_allocatorEv
000000000054e160 W _ZNSt7__cxx1110_List_baseIN2ft4pairIKiiEESaIS4_EE8_M_clearEv
0000000000560450 W _ZNSt7__cxx1110_List_baseIN2ft4pairIKiiEESaIS4_EEC2Ev
000000000054e110 W _ZNSt7__cxx1110_List_baseIN2ft4pairIKiiEESaIS4_EED2Ev
0000000000525940 W _ZNSt7__cxx1110_List_baseINS_12basic_stringIcSt11char_traitsIcESaIcEEESaIS5_EE10_List_implC2Ev
000000000050b730 W _ZNSt7__cxx1110_List_baseINS_12basic_stringIcSt11char_traitsIcESaIcEEESaIS5_EE10_List_implD2Ev
0000000000525e60 W _ZNSt7__cxx1110_List_baseINS_12basic_stringIcSt11char_traitsIcESaIcEEESaIS5_EE11_M_get_nodeEv
0000000000525e00 W _ZNSt7__cxx1110_List_baseINS_12basic_stringIcSt11char_traitsIcESaIcEEESaIS5_EE11_M_inc_sizeEm
000000000050b7a0 W _ZNSt7__cxx1110_List_baseINS_12basic_stringIcSt11char_traitsIcESaIcEEESaIS5_EE11_M_put_nodeEPSt10_List_nodeIS5_E
000000000050b770 W _ZNSt7__cxx1110_List_baseINS_12basic_stringIcSt11char_traitsIcESaIcEEESaIS5_EE21_M_get_Node_allocatorEv
000000000050b4a0 W _ZNSt7__cxx1110_List_baseINS_12basic_stringIcSt11char_traitsIcESaIcEEESaIS5_EE8_M_clearEv
0000000000525920 W _ZNSt7__cxx1110_List_baseINS_12basic_stringIcSt11char_traitsIcESaIcEEESaIS5_EEC2Ev
000000000050b450 W _ZNSt7__cxx1110_List_baseINS_12basic_stringIcSt11char_traitsIcESaIcEEESaIS5_EED2Ev
000000000053c8b0 W _ZNSt7__cxx1110_List_baseIcSaIcEE10_List_implC2Ev
00000000005390f0 W _ZNSt7__cxx1110_List_baseIcSaIcEE10_List_implD2Ev
000000000053cdd0 W _ZNSt7__cxx1110_List_baseIcSaIcEE11_M_get_nodeEv
000000000053cd70 W _ZNSt7__cxx1110_List_baseIcSaIcEE11_M_inc_sizeEm
0000000000539160 W _ZNSt7__cxx1110_List_baseIcSaIcEE11_M_put_nodeEPSt10_List_nodeIcE
0000000000539130 W _ZNSt7__cxx1110_List_baseIcSaIcEE21_M_get_Node_allocatorEv
0000000000538e60 W _ZNSt7__cxx1110_List_baseIcSaIcEE8_M_clearEv
000000000053c890 W _ZNSt7__cxx1110_List_baseIcSaIcEEC2Ev
0000000000538e10 W _ZNSt7__cxx1110_List_baseIcSaIcEED2Ev
000000000051b620 W _ZNSt7__cxx1110_List_baseIiSaIiEE10_List_implC2Ev
000000000050b310 W _ZNSt7__cxx1110_List_baseIiSaIiEE10_List_implD2Ev
000000000051bc10 W _ZNSt7__cxx1110_List_baseIiSaIiEE11_M_get_nodeEv
000000000051bbb0 W _ZNSt7__cxx1110_List_baseIiSaIiEE11_M_inc_sizeEm
000000000050b380 W _ZNSt7__cxx1110_List_baseIiSaIiEE11_M_put_nodeEPSt10_List_nodeIiE
000000000050b350 W _ZNSt7__cxx1110_List_baseIiSaIiEE21_M_get_Node_allocatorEv
000000000050b080 W _ZNSt7__cxx1110_List_baseIiSaIiEE8_M_clearEv
000000000051b600 W _ZNSt7__cxx1110_List_baseIiSaIiEEC2Ev
000000000050b030 W _ZNSt7__cxx1110_List_baseIiSaIiEED2Ev
                 U _ZNSt7__cxx1112basic_stringIcSt11char_traitsIcESaIcEEC1EPKcRKS3_@GLIBCXX_3.4.21
                 U _ZNSt7__cxx1112basic_stringIcSt11char_traitsIcESaIcEEC1ERKS4_@GLIBCXX_3.4.21
                 U _ZNSt7__cxx1112basic_stringIcSt11char_traitsIcESaIcEEC1Ev@GLIBCXX_3.4.21
                 U _ZNSt7__cxx1112basic_stringIcSt11char_traitsIcESaIcEED1Ev@GLIBCXX_3.4.21
                 U _ZNSt7__cxx1112basic_stringIcSt11char_traitsIcESaIcEEaSEPKc@GLIBCXX_3.4.21
00000000005744e0 W _ZNSt7__cxx114listIN2ft4pairIKiNS_12basic_stringIcSt11char_traitsIcESaIcEEEEESaIS9_EE14_M_create_nodeERKS9_
000000000054d4f0 W _ZNSt7__cxx114listIN2ft4pairIKiNS_12basic_stringIcSt11char_traitsIcESaIcEEEEESaIS9_EE3endEv
000000000054d380 W _ZNSt7__cxx114listIN2ft4pairIKiNS_12basic_stringIcSt11char_traitsIcESaIcEEEEESaIS9_EE5beginEv
0000000000574330 W _ZNSt7__cxx114listIN2ft4pairIKiNS_12basic_stringIcSt11char_traitsIcESaIcEEEEESaIS9_EE9_M_insertESt14_List_iteratorIS9_ERKS9_
000000000054cf60 W _ZNSt7__cxx114listIN2ft4pairIKiNS_12basic_stringIcSt11char_traitsIcESaIcEEEEESaIS9_EE9push_backERKS9_
000000000054cf40 W _ZNSt7__cxx114listIN2ft4pairIKiNS_12basic_stringIcSt11char_traitsIcESaIcEEEEESaIS9_EEC2Ev
000000000054dee0 W _ZNSt7__cxx114listIN2ft4pairIKiNS_12basic_stringIcSt11char_traitsIcESaIcEEEEESaIS9_EED2Ev
00000000005606a0 W _ZNSt7__cxx114listIN2ft4pairIKiiEESaIS4_EE14_M_create_nodeERKS4_
000000000054aa90 W _ZNSt7__cxx114listIN2ft4pairIKiiEESaIS4_EE3endEv
000000000054a920 W _ZNSt7__cxx114listIN2ft4pairIKiiEESaIS4_EE5beginEv
00000000005604f0 W _ZNSt7__cxx114listIN2ft4pairIKiiEESaIS4_EE9_M_insertESt14_List_iteratorIS4_ERKS4_
000000000054a790 W _ZNSt7__cxx114listIN2ft4pairIKiiEESaIS4_EE9push_backERKS4_
000000000054a770 W _ZNSt7__cxx114listIN2ft4pairIKiiEESaIS4_EEC2Ev
000000000054b670 W _ZNSt7__cxx114listIN2ft4pairIKiiEESaIS4_EED2Ev
0000000000525b70 W _ZNSt7__cxx114listINS_12basic_stringIcSt11char_traitsIcESaIcEEESaIS5_EE14_M_create_nodeERKS5_
000000000050a610 W _ZNSt7__cxx114listINS_12basic_stringIcSt11char_traitsIcESaIcEEESaIS5_EE3endEv
000000000050a4a0 W _ZNSt7__cxx114listINS_12basic_stringIcSt11char_traitsIcESaIcEEESaIS5_EE5beginEv
00000000005259c0 W _ZNSt7__cxx114listINS_12basic_stringIcSt11char_traitsIcESaIcEEESaIS5_EE9_M_insertESt14_List_iteratorIS5_ERKS5_
000000000050a080 W _ZNSt7__cxx114listINS_12basic_stringIcSt11char_traitsIcESaIcEEESaIS5_EE9push_backERKS5_
000000000050a060 W _ZNSt7__cxx114listINS_12basic_stringIcSt11char_traitsIcESaIcEEESaIS5_EEC2Ev
000000000050adc0 W _ZNSt7__cxx114listINS_12basic_stringIcSt11char_traitsIcESaIcEEESaIS5_EED2Ev
000000000053cae0 W _ZNSt7__cxx114listIcSaIcEE14_M_create_nodeERKc
0000000000535f10 W _ZNSt7__cxx114listIcSaIcEE3endEv
0000000000535da0 W _ZNSt7__cxx114listIcSaIcEE5beginEv
000000000053c930 W _ZNSt7__cxx114listIcSaIcEE9_M_insertESt14_List_iteratorIcERKc
00000000005359b0 W _ZNSt7__cxx114listIcSaIcEE9push_backERKc
0000000000535990 W _ZNSt7__cxx114listIcSaIcEEC2Ev
0000000000537d30 W _ZNSt7__cxx114listIcSaIcEED2Ev
000000000051b920 W _ZNSt7__cxx114listIiSaIiEE14_M_create_nodeERKi
0000000000508c90 W _ZNSt7__cxx114listIiSaIiEE3endEv
0000000000508b20 W _ZNSt7__cxx114listIiSaIiEE5beginEv
000000000051b770 W _ZNSt7__cxx114listIiSaIiEE9_M_insertESt14_List_iteratorIiERKi
0000000000508990 W _ZNSt7__cxx114listIiSaIiEE9push_backERKi
0000000000508970 W _ZNSt7__cxx114listIiSaIiEEC2Ev
0000000000509870 W _ZNSt7__cxx114listIiSaIiEED2Ev
                 U _ZNSt8__detail15_List_node_base7_M_hookEPS0_@GLIBCXX_3.4.15
000000000051b6c0 W _ZNSt8__detail17_List_node_header7_M_initEv
000000000051b690 W _ZNSt8__detail17_List_node_headerC2Ev
                 U _ZNSt8ios_base4InitC1Ev@GLIBCXX_3.4
                 U _ZNSt8ios_base4InitD1Ev@GLIBCXX_3.4
000000000054e940 W _ZSt11__addressofIN2ft4pairIKiNSt7__cxx1112basic_stringIcSt11char_traitsIcESaIcEEEEEEPT_RSA_
000000000054e4c0 W _ZSt11__addressofIN2ft4pairIKiiEEEPT_RS4_
000000000050b7d0 W _ZSt11__addressofINSt7__cxx1112basic_stringIcSt11char_traitsIcESaIcEEEEPT_RS6_
0000000000539190 W _ZSt11__addressofIcEPT_RS0_
000000000050b3b0 W _ZSt11__addressofIiEPT_RS0_
00000000004f1cb0 W _ZSt12__miter_baseISt15_Deque_iteratorI6BufferRKS1_PS2_EET_S6_
00000000004f2210 W _ZSt12__niter_baseISt15_Deque_iteratorI6BufferRKS1_PS2_EET_S6_
00000000004f2370 W _ZSt12__niter_baseISt15_Deque_iteratorI6BufferRS1_PS1_EET_S5_
00000000004f1e10 W _ZSt12__niter_wrapISt15_Deque_iteratorI6BufferRS1_PS1_EET_RKS5_S5_
00000000004f16a0 W _ZSt13__copy_move_aILb0ESt15_Deque_iteratorI6BufferRKS1_PS2_ES0_IS1_RS1_PS1_EET1_T0_SA_S9_
00000000004f1e50 W _ZSt14__copy_move_a1ILb0E6BufferRKS0_PS1_S0_ESt15_Deque_iteratorIT3_RS5_PS5_ES4_IT0_T1_T2_ESC_S8_
00000000004f2a80 W _ZSt14__copy_move_a1ILb0EP6BufferS0_EN9__gnu_cxx11__enable_ifIXsr23__is_random_access_iterIT0_EE7__valueESt15_Deque_iteratorIT1_RS6_PS6_EE6__typeES4_S4_S9_
00000000004f2ee0 W _ZSt14__copy_move_a1ILb0EP6BufferS1_ET1_T0_S3_S2_
00000000004f3160 W _ZSt14__copy_move_a2ILb0EP6BufferS1_ET1_T0_S3_S2_
00000000004f23a0 W _ZSt15__copy_move_ditILb0E6BufferRKS0_PS1_St15_Deque_iteratorIS0_RS0_PS0_EET3_S4_IT0_T1_T2_ESC_S8_
00000000004ef1b0 W _ZSt16__deque_buf_sizem
                 U _ZSt17__throw_bad_allocv@GLIBCXX_3.4
00000000004f0970 W _ZSt18uninitialized_copyISt15_Deque_iteratorI6BufferRKS1_PS2_ES0_IS1_RS1_PS1_EET0_T_SA_S9_
00000000004f0300 W _ZSt22__uninitialized_copy_aISt15_Deque_iteratorI6BufferRKS1_PS2_ES0_IS1_RS1_PS1_ES1_ET0_T_SA_S9_RSaIT1_E
                 U _ZSt28__throw_bad_array_new_lengthv@GLIBCXX_3.4.29
00000000004ef1f0 W _ZSt3maxImERKT_S2_S2_
00000000004f2e50 W _ZSt3minIlERKT_S2_S2_
00000000005c9be0 B _ZSt4cerr@GLIBCXX_3.4
00000000004f10f0 W _ZSt4copyISt15_Deque_iteratorI6BufferRKS1_PS2_ES0_IS1_RS1_PS1_EET0_T_SA_S9_
00000000005c9ac0 B _ZSt4cout@GLIBCXX_3.4
                 U _ZSt4endlIcSt11char_traitsIcEERSt13basic_ostreamIT_T0_ES6_@GLIBCXX_3.4
                 U _ZSt9terminatev@GLIBCXX_3.4
0000000000ef0040 b _ZStL8__ioinit
0000000000ef0080 b _ZStL8__ioinit
0000000000ef00c0 b _ZStL8__ioinit
0000000000ef0100 b _ZStL8__ioinit
0000000000ef0140 b _ZStL8__ioinit
0000000000ef0180 b _ZStL8__ioinit
0000000000ef01c0 b _ZStL8__ioinit
0000000000ef0200 b _ZStL8__ioinit
                 U _ZStlsISt11char_traitsIcEERSt13basic_ostreamIcT_ES5_PKc@GLIBCXX_3.4
                 U _ZStlsISt11char_traitsIcEERSt13basic_ostreamIcT_ES5_c@GLIBCXX_3.4
                 U _ZStlsIcSt11char_traitsIcESaIcEERSt13basic_ostreamIT_T0_ES7_RKNSt7__cxx1112basic_stringIS4_S5_T1_EE@GLIBCXX_3.4.21
0000000000520910 W _ZStltIcSt11char_traitsIcESaIcEEbRKNSt7__cxx1112basic_stringIT_T0_T1_EESA_
00000000004f0740 W _ZStmiRKSt15_Deque_iteratorI6BufferRS0_PS0_ES5_
0000000000574930 W _ZStneRKSt14_List_iteratorIN2ft4pairIKiNSt7__cxx1112basic_stringIcSt11char_traitsIcESaIcEEEEEESC_
0000000000560d80 W _ZStneRKSt14_List_iteratorIN2ft4pairIKiiEEES6_
0000000000525f90 W _ZStneRKSt14_List_iteratorINSt7__cxx1112basic_stringIcSt11char_traitsIcESaIcEEEES8_
000000000053cf00 W _ZStneRKSt14_List_iteratorIcES2_
000000000051bfd0 W _ZStneRKSt14_List_iteratorIiES2_
000000000058a5f0 V _ZTI8LeakTestIiE
                 U _ZTIN10__cxxabiv117__class_type_infoE@CXXABI_1.3
                 U _ZTIN10__cxxabiv120__si_class_type_infoE@CXXABI_1.3
                 U _ZTIN10__cxxabiv121__vmi_class_type_infoE@CXXABI_1.3
000000000058c6c0 V _ZTIN2ft12RBT_iteratorINS_7RB_nodeIKNSt7__cxx1112basic_stringIcSt11char_traitsIcESaIcEEES7_S7_EES8_EE
000000000058c4a8 V _ZTIN2ft12RBT_iteratorINS_7RB_nodeIKiiiEES2_EE
00000000005902a8 V _ZTIN2ft12RBT_iteratorINS_7RB_nodeINS_4pairIKNSt7__cxx1112basic_stringIcSt11char_traitsIcESaIcEEEiEES9_iEESA_EE
0000000000590480 V _ZTIN2ft12RBT_iteratorINS_7RB_nodeINS_4pairIKi8LeakTestIiEEES3_S5_EES6_EE
0000000000590710 V _ZTIN2ft12RBT_iteratorINS_7RB_nodeINS_4pairIKiNSt7__cxx1112basic_stringIcSt11char_traitsIcESaIcEEEEES3_S9_EEKSA_EE
0000000000590668 V _ZTIN2ft12RBT_iteratorINS_7RB_nodeINS_4pairIKiNSt7__cxx1112basic_stringIcSt11char_traitsIcESaIcEEEEES3_S9_EESA_EE
00000000005900c8 V _ZTIN2ft12RBT_iteratorINS_7RB_nodeINS_4pairIKiiEES3_iEEKS4_EE
0000000000589840 V _ZTIN2ft12RBT_iteratorINS_7RB_nodeINS_4pairIKiiEES3_iEES4_EE
000000000058b1e0 V _ZTIN2ft12RBT_iteratorINS_7RB_nodeINS_4pairIKiiEEiiEEKS4_EE
000000000058b170 V _ZTIN2ft12RBT_iteratorINS_7RB_nodeINS_4pairIKiiEEiiEES4_EE
000000000058a768 V _ZTIN2ft22random_access_iteratorI8LeakTestIiEEE
000000000058a6a8 V _ZTIN2ft22random_access_iteratorIK8LeakTestIiEEE
000000000058e1e8 V _ZTIN2ft22random_access_iteratorIKNS_6vectorI8LeakTestIiESaIS3_EEEEE
000000000058a8f8 V _ZTIN2ft22random_access_iteratorIKNSt7__cxx1112basic_stringIcSt11char_traitsIcESaIcEEEEE
000000000058b2d0 V _ZTIN2ft22random_access_iteratorIKcEE
000000000058af40 V _ZTIN2ft22random_access_iteratorIKiEE
00000000005896f8 V _ZTIN2ft22random_access_iteratorIKlEE
000000000058e2d0 V _ZTIN2ft22random_access_iteratorINS_6vectorI8LeakTestIiESaIS3_EEEEE
000000000058aa08 V _ZTIN2ft22random_access_iteratorINSt7__cxx1112basic_stringIcSt11char_traitsIcESaIcEEEEE
000000000058b370 V _ZTIN2ft22random_access_iteratorIcEE
000000000058afe0 V _ZTIN2ft22random_access_iteratorIiEE
0000000000589650 V _ZTIN2ft22random_access_iteratorIlEE
000000000058b038 V _ZTIN2ft6vectorI6BufferSaIS1_EEE
000000000058a5b0 V _ZTIN2ft6vectorI8LeakTestIiESaIS2_EEE
000000000058e108 V _ZTIN2ft6vectorINS0_I8LeakTestIiESaIS2_EEESaIS4_EEE
000000000058a7f0 V _ZTIN2ft6vectorINSt7__cxx1112basic_stringIcSt11char_traitsIcESaIcEEESaIS6_EEE
000000000058b230 V _ZTIN2ft6vectorIcSaIcEEE
000000000058aea0 V _ZTIN2ft6vectorIiSaIiEEE
0000000000589390 V _ZTIN2ft6vectorIlSaIlEEE
0000000000590168 V _ZTIN2ft7RB_treeIKNSt7__cxx1112basic_stringIcSt11char_traitsIcESaIcEEEiNS_4pairIS7_iEESt4lessIS7_ESaIS9_EEE
0000000000590390 V _ZTIN2ft7RB_treeIKi8LeakTestIiENS_4pairIS1_S3_EESt4lessIS1_ESaIS5_EEE
0000000000590528 V _ZTIN2ft7RB_treeIKiNSt7__cxx1112basic_stringIcSt11char_traitsIcESaIcEEENS_4pairIS1_S7_EESt4lessIS1_ESaIS9_EEE
0000000000589768 V _ZTIN2ft7RB_treeIKiiNS_4pairIS1_iEESt4lessIS1_ESaIS3_EEE
0000000000590318 V _ZTIN2ft7RB_treeIKiiNS_4pairIS1_iEESt7greaterIS1_ESaIS3_EEE
000000000058c598 V _ZTIN2ft7RB_treeINSt7__cxx1112basic_stringIcSt11char_traitsIcESaIcEEES6_KS6_St4lessIS6_ESaIS6_EEE
000000000058c3f0 V _ZTIN2ft7RB_treeIiiKiSt4lessIiESaIiEEE
000000000058c508 V _ZTIN2ft7RB_treeIiiKiSt7greaterIiESaIiEEE
000000000058b0a0 V _ZTIN2ft7RB_treeIiiNS_4pairIKiiEESt4lessIiESaIS3_EEE
000000000058c6b0 V _ZTIN2ft8iteratorINS_26bidirectional_iterator_tagENS_7RB_nodeIKNSt7__cxx1112basic_stringIcSt11char_traitsIcESaIcEEES8_S8_EElPSA_RSA_EE
000000000058c498 V _ZTIN2ft8iteratorINS_26bidirectional_iterator_tagENS_7RB_nodeIKiiiEElPS4_RS4_EE
0000000000590298 V _ZTIN2ft8iteratorINS_26bidirectional_iterator_tagENS_7RB_nodeINS_4pairIKNSt7__cxx1112basic_stringIcSt11char_traitsIcESaIcEEEiEESA_iEElPSC_RSC_EE
0000000000590470 V _ZTIN2ft8iteratorINS_26bidirectional_iterator_tagENS_7RB_nodeINS_4pairIKi8LeakTestIiEEES4_S6_EElPS8_RS8_EE
0000000000590658 V _ZTIN2ft8iteratorINS_26bidirectional_iterator_tagENS_7RB_nodeINS_4pairIKiNSt7__cxx1112basic_stringIcSt11char_traitsIcESaIcEEEEES4_SA_EElPSC_RSC_EE
0000000000589830 V _ZTIN2ft8iteratorINS_26bidirectional_iterator_tagENS_7RB_nodeINS_4pairIKiiEES4_iEElPS6_RS6_EE
000000000058b160 V _ZTIN2ft8iteratorINS_26bidirectional_iterator_tagENS_7RB_nodeINS_4pairIKiiEEiiEElPS6_RS6_EE
000000000058a758 V _ZTIN2ft8iteratorINS_26random_access_iterator_tagE8LeakTestIiElPS3_RS3_EE
000000000058a698 V _ZTIN2ft8iteratorINS_26random_access_iterator_tagEK8LeakTestIiElPS4_RS4_EE
000000000058e1d8 V _ZTIN2ft8iteratorINS_26random_access_iterator_tagEKNS_6vectorI8LeakTestIiESaIS4_EEElPS7_RS7_EE
000000000058a8e8 V _ZTIN2ft8iteratorINS_26random_access_iterator_tagEKNSt7__cxx1112basic_stringIcSt11char_traitsIcESaIcEEElPS8_RS8_EE
000000000058b2c0 V _ZTIN2ft8iteratorINS_26random_access_iterator_tagEKclPS2_RS2_EE
000000000058af30 V _ZTIN2ft8iteratorINS_26random_access_iterator_tagEKilPS2_RS2_EE
00000000005896e8 V _ZTIN2ft8iteratorINS_26random_access_iterator_tagEKllPS2_RS2_EE
000000000058e2c0 V _ZTIN2ft8iteratorINS_26random_access_iterator_tagENS_6vectorI8LeakTestIiESaIS4_EEElPS6_RS6_EE
000000000058a9f8 V _ZTIN2ft8iteratorINS_26random_access_iterator_tagENSt7__cxx1112basic_stringIcSt11char_traitsIcESaIcEEElPS7_RS7_EE
000000000058b360 V _ZTIN2ft8iteratorINS_26random_access_iterator_tagEclPcRcEE
000000000058afd0 V _ZTIN2ft8iteratorINS_26random_access_iterator_tagEilPiRiEE
0000000000589640 V _ZTIN2ft8iteratorINS_26random_access_iterator_tagEllPlRlEE
00000000005c45c0 V _ZTISt12length_error@GLIBCXX_3.4
00000000005c45d8 V _ZTISt12out_of_range@GLIBCXX_3.4
00000000005c45f0 V _ZTISt9exception@GLIBCXX_3.4
                 U _ZTISt9type_info@GLIBCXX_3.4
000000000058a5e0 V _ZTS8LeakTestIiE
000000000058c5c8 V _ZTSN2ft12RBT_iteratorINS_7RB_nodeIKNSt7__cxx1112basic_stringIcSt11char_traitsIcESaIcEEES7_S7_EES8_EE
000000000058c420 V _ZTSN2ft12RBT_iteratorINS_7RB_nodeIKiiiEES2_EE
0000000000590198 V _ZTSN2ft12RBT_iteratorINS_7RB_nodeINS_4pairIKNSt7__cxx1112basic_stringIcSt11char_traitsIcESaIcEEEiEES9_iEESA_EE
00000000005903c0 V _ZTSN2ft12RBT_iteratorINS_7RB_nodeINS_4pairIKi8LeakTestIiEEES3_S5_EES6_EE
00000000005906a0 V _ZTSN2ft12RBT_iteratorINS_7RB_nodeINS_4pairIKiNSt7__cxx1112basic_stringIcSt11char_traitsIcESaIcEEEEES3_S9_EEKSA_EE
0000000000590558 V _ZTSN2ft12RBT_iteratorINS_7RB_nodeINS_4pairIKiNSt7__cxx1112basic_stringIcSt11char_traitsIcESaIcEEEEES3_S9_EESA_EE
0000000000590088 V _ZTSN2ft12RBT_iteratorINS_7RB_nodeINS_4pairIKiiEES3_iEEKS4_EE
0000000000589798 V _ZTSN2ft12RBT_iteratorINS_7RB_nodeINS_4pairIKiiEES3_iEES4_EE
000000000058b1a8 V _ZTSN2ft12RBT_iteratorINS_7RB_nodeINS_4pairIKiiEEiiEEKS4_EE
000000000058b0d0 V _ZTSN2ft12RBT_iteratorINS_7RB_nodeINS_4pairIKiiEEiiEES4_EE
000000000058a6e0 V _ZTSN2ft22random_access_iteratorI8LeakTestIiEEE
000000000058a620 V _ZTSN2ft22random_access_iteratorIK8LeakTestIiEEE
000000000058e138 V _ZTSN2ft22random_access_iteratorIKNS_6vectorI8LeakTestIiESaIS3_EEEEE
000000000058a820 V _ZTSN2ft22random_access_iteratorIKNSt7__cxx1112basic_stringIcSt11char_traitsIcESaIcEEEEE
000000000058b260 V _ZTSN2ft22random_access_iteratorIKcEE
000000000058aed0 V _ZTSN2ft22random_access_iteratorIKiEE
0000000000589688 V _ZTSN2ft22random_access_iteratorIKlEE
000000000058e220 V _ZTSN2ft22random_access_iteratorINS_6vectorI8LeakTestIiESaIS3_EEEEE
000000000058a930 V _ZTSN2ft22random_access_iteratorINSt7__cxx1112basic_stringIcSt11char_traitsIcESaIcEEEEE
000000000058b308 V _ZTSN2ft22random_access_iteratorIcEE
000000000058af78 V _ZTSN2ft22random_access_iteratorIiEE
00000000005895e8 V _ZTSN2ft22random_access_iteratorIlEE
000000000058b018 V _ZTSN2ft6vectorI6BufferSaIS1_EEE
000000000058a588 V _ZTSN2ft6vectorI8LeakTestIiESaIS2_EEE
000000000058e0d8 V _ZTSN2ft6vectorINS0_I8LeakTestIiESaIS2_EEESaIS4_EEE
000000000058a7a0 V _ZTSN2ft6vectorINSt7__cxx1112basic_stringIcSt11char_traitsIcESaIcEEESaIS6_EEE
000000000058b218 V _ZTSN2ft6vectorIcSaIcEEE
000000000058ae88 V _ZTSN2ft6vectorIiSaIiEEE
0000000000589378 V _ZTSN2ft6vectorIlSaIlEEE
0000000000590100 V _ZTSN2ft7RB_treeIKNSt7__cxx1112basic_stringIcSt11char_traitsIcESaIcEEEiNS_4pairIS7_iEESt4lessIS7_ESaIS9_EEE
0000000000590348 V _ZTSN2ft7RB_treeIKi8LeakTestIiENS_4pairIS1_S3_EESt4lessIS1_ESaIS5_EEE
00000000005904b8 V _ZTSN2ft7RB_treeIKiNSt7__cxx1112basic_stringIcSt11char_traitsIcESaIcEEENS_4pairIS1_S7_EESt4lessIS1_ESaIS9_EEE
0000000000589730 V _ZTSN2ft7RB_treeIKiiNS_4pairIS1_iEESt4lessIS1_ESaIS3_EEE
00000000005902e0 V _ZTSN2ft7RB_treeIKiiNS_4pairIS1_iEESt7greaterIS1_ESaIS3_EEE
000000000058c538 V _ZTSN2ft7RB_treeINSt7__cxx1112basic_stringIcSt11char_traitsIcESaIcEEES6_KS6_St4lessIS6_ESaIS6_EEE
000000000058c3c8 V _ZTSN2ft7RB_treeIiiKiSt4lessIiESaIiEEE
000000000058c4e0 V _ZTSN2ft7RB_treeIiiKiSt7greaterIiESaIiEEE
000000000058b068 V _ZTSN2ft7RB_treeIiiNS_4pairIKiiEESt4lessIiESaIS3_EEE
000000000058c62a V _ZTSN2ft8iteratorINS_26bidirectional_iterator_tagENS_7RB_nodeIKNSt7__cxx1112basic_stringIcSt11char_traitsIcESaIcEEES8_S8_EElPSA_RSA_EE
000000000058c44b V _ZTSN2ft8iteratorINS_26bidirectional_iterator_tagENS_7RB_nodeIKiiiEElPS4_RS4_EE
0000000000590204 V _ZTSN2ft8iteratorINS_26bidirectional_iterator_tagENS_7RB_nodeINS_4pairIKNSt7__cxx1112basic_stringIcSt11char_traitsIcESaIcEEEiEESA_iEElPSC_RSC_EE
0000000000590406 V _ZTSN2ft8iteratorINS_26bidirectional_iterator_tagENS_7RB_nodeINS_4pairIKi8LeakTestIiEEES4_S6_EElPS8_RS8_EE
00000000005905c6 V _ZTSN2ft8iteratorINS_26bidirectional_iterator_tagENS_7RB_nodeINS_4pairIKiNSt7__cxx1112basic_stringIcSt11char_traitsIcESaIcEEEEES4_SA_EElPSC_RSC_EE
00000000005897d1 V _ZTSN2ft8iteratorINS_26bidirectional_iterator_tagENS_7RB_nodeINS_4pairIKiiEES4_iEElPS6_RS6_EE
000000000058b107 V _ZTSN2ft8iteratorINS_26bidirectional_iterator_tagENS_7RB_nodeINS_4pairIKiiEEiiEElPS6_RS6_EE
000000000058a70c V _ZTSN2ft8iteratorINS_26random_access_iterator_tagE8LeakTestIiElPS3_RS3_EE
000000000058a64d V _ZTSN2ft8iteratorINS_26random_access_iterator_tagEK8LeakTestIiElPS4_RS4_EE
000000000058e179 V _ZTSN2ft8iteratorINS_26random_access_iterator_tagEKNS_6vectorI8LeakTestIiESaIS4_EEElPS7_RS7_EE
000000000058a875 V _ZTSN2ft8iteratorINS_26random_access_iterator_tagEKNSt7__cxx1112basic_stringIcSt11char_traitsIcESaIcEEElPS8_RS8_EE
000000000058b282 V _ZTSN2ft8iteratorINS_26random_access_iterator_tagEKclPS2_RS2_EE
000000000058aef2 V _ZTSN2ft8iteratorINS_26random_access_iterator_tagEKilPS2_RS2_EE
00000000005896aa V _ZTSN2ft8iteratorINS_26random_access_iterator_tagEKllPS2_RS2_EE
000000000058e260 V _ZTSN2ft8iteratorINS_26random_access_iterator_tagENS_6vectorI8LeakTestIiESaIS4_EEElPS6_RS6_EE
000000000058a984 V _ZTSN2ft8iteratorINS_26random_access_iterator_tagENSt7__cxx1112basic_stringIcSt11char_traitsIcESaIcEEElPS7_RS7_EE
000000000058b329 V _ZTSN2ft8iteratorINS_26random_access_iterator_tagEclPcRcEE
000000000058af99 V _ZTSN2ft8iteratorINS_26random_access_iterator_tagEilPiRiEE
0000000000589609 V _ZTSN2ft8iteratorINS_26random_access_iterator_tagEllPlRlEE
000000000058a5c0 V _ZTV8LeakTestIiE
00000000005c4500 V _ZTVN10__cxxabiv117__class_type_infoE@CXXABI_1.3
00000000005c4560 V _ZTVN10__cxxabiv120__si_class_type_infoE@CXXABI_1.3
00000000005c47f0 V _ZTVN11__sanitizer11FlagHandlerINS_16HandleSignalModeEEE
00000000005c4640 V _ZTVN11__sanitizer11FlagHandlerIPKcEE
00000000005c4620 V _ZTVN11__sanitizer11FlagHandlerIbEE
00000000005c4600 V _ZTVN11__sanitizer11FlagHandlerIiEE
00000000005c4810 V _ZTVN11__sanitizer11FlagHandlerImEE
00000000005c4a88 V _ZTVN11__sanitizer13Addr2LinePoolE
00000000005c4960 D _ZTVN11__sanitizer14LLVMSymbolizerE
00000000005c4a10 D _ZTVN11__sanitizer16Addr2LineProcessE
00000000005c49d8 D _ZTVN11__sanitizer17SymbolizerProcessE
00000000005c48b0 V _ZTVN11__sanitizer17ThreadContextBaseE
00000000005c47d0 V _ZTVN11__sanitizer18FlagHandlerIncludeE
00000000005c4a48 V _ZTVN11__sanitizer18InternalSymbolizerE
00000000005c49a0 V _ZTVN11__sanitizer21LLVMSymbolizerProcessE
00000000005c4920 D _ZTVN11__sanitizer22LibbacktraceSymbolizerE
00000000005c48f8 D _ZTVN11__sanitizer25SuspendedThreadsListLinuxE
00000000005c4770 D _ZTVN11__sanitizer2DDE
000000000058c5a8 V _ZTVN2ft12RBT_iteratorINS_7RB_nodeIKNSt7__cxx1112basic_stringIcSt11char_traitsIcESaIcEEES7_S7_EES8_EE
000000000058c400 V _ZTVN2ft12RBT_iteratorINS_7RB_nodeIKiiiEES2_EE
0000000000590178 V _ZTVN2ft12RBT_iteratorINS_7RB_nodeINS_4pairIKNSt7__cxx1112basic_stringIcSt11char_traitsIcESaIcEEEiEES9_iEESA_EE
00000000005903a0 V _ZTVN2ft12RBT_iteratorINS_7RB_nodeINS_4pairIKi8LeakTestIiEEES3_S5_EES6_EE
0000000000590680 V _ZTVN2ft12RBT_iteratorINS_7RB_nodeINS_4pairIKiNSt7__cxx1112basic_stringIcSt11char_traitsIcESaIcEEEEES3_S9_EEKSA_EE
0000000000590538 V _ZTVN2ft12RBT_iteratorINS_7RB_nodeINS_4pairIKiNSt7__cxx1112basic_stringIcSt11char_traitsIcESaIcEEEEES3_S9_EESA_EE
0000000000590068 V _ZTVN2ft12RBT_iteratorINS_7RB_nodeINS_4pairIKiiEES3_iEEKS4_EE
0000000000589778 V _ZTVN2ft12RBT_iteratorINS_7RB_nodeINS_4pairIKiiEES3_iEES4_EE
000000000058b188 V _ZTVN2ft12RBT_iteratorINS_7RB_nodeINS_4pairIKiiEEiiEEKS4_EE
000000000058b0b0 V _ZTVN2ft12RBT_iteratorINS_7RB_nodeINS_4pairIKiiEEiiEES4_EE
000000000058a6c0 V _ZTVN2ft22random_access_iteratorI8LeakTestIiEEE
000000000058a600 V _ZTVN2ft22random_access_iteratorIK8LeakTestIiEEE
000000000058e118 V _ZTVN2ft22random_access_iteratorIKNS_6vectorI8LeakTestIiESaIS3_EEEEE
000000000058a800 V _ZTVN2ft22random_access_iteratorIKNSt7__cxx1112basic_stringIcSt11char_traitsIcESaIcEEEEE
000000000058b240 V _ZTVN2ft22random_access_iteratorIKcEE
000000000058aeb0 V _ZTVN2ft22random_access_iteratorIKiEE
0000000000589668 V _ZTVN2ft22random_access_iteratorIKlEE
000000000058e200 V _ZTVN2ft22random_access_iteratorINS_6vectorI8LeakTestIiESaIS3_EEEEE
000000000058a910 V _ZTVN2ft22random_access_iteratorINSt7__cxx1112basic_stringIcSt11char_traitsIcESaIcEEEEE
000000000058b2e8 V _ZTVN2ft22random_access_iteratorIcEE
000000000058af58 V _ZTVN2ft22random_access_iteratorIiEE
00000000005895c8 V _ZTVN2ft22random_access_iteratorIlEE
000000000058aff8 V _ZTVN2ft6vectorI6BufferSaIS1_EEE
000000000058a568 V _ZTVN2ft6vectorI8LeakTestIiESaIS2_EEE
000000000058e0b8 V _ZTVN2ft6vectorINS0_I8LeakTestIiESaIS2_EEESaIS4_EEE
000000000058a780 V _ZTVN2ft6vectorINSt7__cxx1112basic_stringIcSt11char_traitsIcESaIcEEESaIS6_EEE
000000000058b1f8 V _ZTVN2ft6vectorIcSaIcEEE
000000000058ae68 V _ZTVN2ft6vectorIiSaIiEEE
0000000000589358 V _ZTVN2ft6vectorIlSaIlEEE
00000000005900e0 V _ZTVN2ft7RB_treeIKNSt7__cxx1112basic_stringIcSt11char_traitsIcESaIcEEEiNS_4pairIS7_iEESt4lessIS7_ESaIS9_EEE
0000000000590328 V _ZTVN2ft7RB_treeIKi8LeakTestIiENS_4pairIS1_S3_EESt4lessIS1_ESaIS5_EEE
0000000000590498 V _ZTVN2ft7RB_treeIKiNSt7__cxx1112basic_stringIcSt11char_traitsIcESaIcEEENS_4pairIS1_S7_EESt4lessIS1_ESaIS9_EEE
0000000000589710 V _ZTVN2ft7RB_treeIKiiNS_4pairIS1_iEESt4lessIS1_ESaIS3_EEE
00000000005902c0 V _ZTVN2ft7RB_treeIKiiNS_4pairIS1_iEESt7greaterIS1_ESaIS3_EEE
000000000058c518 V _ZTVN2ft7RB_treeINSt7__cxx1112basic_stringIcSt11char_traitsIcESaIcEEES6_KS6_St4lessIS6_ESaIS6_EEE
000000000058c3a8 V _ZTVN2ft7RB_treeIiiKiSt4lessIiESaIiEEE
000000000058c4c0 V _ZTVN2ft7RB_treeIiiKiSt7greaterIiESaIiEEE
000000000058b048 V _ZTVN2ft7RB_treeIiiNS_4pairIKiiEESt4lessIiESaIS3_EEE
00000000005c4728 D _ZTVN6__asan17AsanThreadContextE
00000000004bbf10 W _ZTW21__sancov_lowest_stack
00000000005d8b58 b _ZZ25__interceptor_swapcontextE16reported_warning
000000000066f140 b _ZZ31__sanitizer_acquire_crash_stateE14in_crash_state
00000000005d8c0c b _ZZL13printf_commonPvPKcP13__va_list_tagE12ReportedOnce
00000000005dab68 b _ZZL18MlockIsUnsupportedvE7printed
0000000000e70020 b _ZZL27getTypeCacheHashTableBucketmE21__ubsan_vptr_hash_set
00000000005dab70 b _ZZL28InitializeCommonInterceptorsvE12metadata_mem
00000000005dab80 b _ZZL28InitializeCommonInterceptorsvE15xdrrec_wrap_mem
00000000005dab90 b _ZZL28InitializeSignalInterceptorsvE15was_called_once
000000000066f3a8 b _ZZN11__sanitizer11CheckFailedEPKciS1_yyE9num_calls
0000000000583bd6 r _ZZN11__sanitizer12ThreadLister7IsAliveEiE7kPrefix
000000000066f4da b _ZZN11__sanitizer18InitializeCoverageEbPKcE16coverage_enabled
00000000005869e0 r _ZZN11__sanitizer21ScopedErrorReportLockC1EvE3msg
000000000066d0e0 b _ZZN11__sanitizer23ReportMmapFailureAndDieEmPKcS1_ibE15recursion_count
00000000005869c3 r _ZZN11__sanitizer23StartReportDeadlySignalEvE13kDeadlySignal
000000000066f308 b _ZZN11__sanitizer6GetEnvEPKcE3len
000000000066f310 b _ZZN11__sanitizer6GetEnvEPKcE6inited
000000000066f300 b _ZZN11__sanitizer6GetEnvEPKcE7environ
000000000066f311 b _ZZN11__sanitizer9GetRandomEPvmbE22skip_getrandom_syscall
0000000000584eaa r _ZZN11__sanitizerL14GetLibcVersionEPiS0_S0_E6kGLibC
0000000000586a0c r _ZZN11__sanitizerL23ReportStackOverflowImplERKNS_13SignalContextEjPFvS2_PKvPNS_18BufferedStackTraceEES4_E12kDescription
00000000005de148 b _ZZN6__asan13UnpoisonStackEmmPKcE16reported_warning
00000000005de6f0 b _ZZN6__asan18asanThreadRegistryEvE11initialized
00000000005c46a0 d _ZZN6__asan22ErrorAllocTypeMismatch5PrintEvE11alloc_names
00000000005c46c0 d _ZZN6__asan22ErrorAllocTypeMismatch5PrintEvE13dealloc_names
00000000005d8c08 b _ZZN6__asan26InitializeAsanInterceptorsEvE15was_called_once
00000000005de150 b _ZZN6__asanL15AsanCheckFailedEPKciS1_yyE9num_calls
00000000005de14c b _ZZN6__asanL7AsanDieEvE9num_calls
0000000000e6fad9 b _ZZN6__lsan11DoLeakCheckEvE12already_done
0000000000e6fac0 b _ZZN6__lsan21InitializeRootRegionsEvE11placeholder
00000000004bb190 t _ZZNK11__sanitizer25SuspendedThreadsListLinux17GetRegistersAndSPEmPNS_18InternalMmapVectorImEEPmENK3$_0clEm
00000000004cd0a0 T _ZdaPv
00000000004cd2a0 T _ZdaPvRKSt9nothrow_t
00000000004cd6a0 T _ZdaPvSt11align_val_t
00000000004cd8a0 T _ZdaPvSt11align_val_tRKSt9nothrow_t
00000000004cd4a0 T _ZdaPvm
00000000004cdab0 T _ZdaPvmSt11align_val_t
00000000004ccfa0 T _ZdlPv
00000000004cd1a0 T _ZdlPvRKSt9nothrow_t
00000000004cd5a0 T _ZdlPvSt11align_val_t
00000000004cd7a0 T _ZdlPvSt11align_val_tRKSt9nothrow_t
00000000004cd3a0 T _ZdlPvm
00000000004cd9a0 T _ZdlPvmSt11align_val_t
00000000005353a0 W _ZlsRSoRK8LeakTestIiE
00000000004cc850 T _Znam
00000000004cca60 T _ZnamRKSt9nothrow_t
00000000004ccc80 T _ZnamSt11align_val_t
00000000004ccea0 T _ZnamSt11align_val_tRKSt9nothrow_t
00000000004cc740 T _Znwm
00000000004cc960 T _ZnwmRKSt9nothrow_t
00000000004ccb60 T _ZnwmSt11align_val_t
00000000004ccda0 T _ZnwmSt11align_val_tRKSt9nothrow_t
00000000005bd93c r __FRAME_END__
0000000000591b70 r __GNU_EH_FRAME_HDR
00000000005c9ab0 D __TMC_END__
00000000004003b4 r __abi_tag
000000000042f790 T __asan_addr_is_in_fake_stack
000000000049d8d0 T __asan_address_is_poisoned
00000000004321b0 T __asan_after_dynamic_init
000000000042f8b0 T __asan_alloca_poison
000000000042f9d0 T __asan_allocas_unpoison
0000000000431fa0 T __asan_before_dynamic_init
0000000000430920 W __asan_default_options
00000000004a57d0 W __asan_default_suppressions
00000000004a1250 T __asan_describe_address
00000000004a2080 T __asan_exp_load1
00000000004a25a0 T __asan_exp_load16
00000000004a21d0 T __asan_exp_load2
00000000004a2320 T __asan_exp_load4
00000000004a2460 T __asan_exp_load8
00000000004a2dc0 T __asan_exp_loadN
00000000004a26f0 T __asan_exp_store1
00000000004a2c90 T __asan_exp_store16
00000000004a2850 T __asan_exp_store2
00000000004a29d0 T __asan_exp_store4
00000000004a2b40 T __asan_exp_store8
00000000004a2eb0 T __asan_exp_storeN
00000000004a3740 t __asan_extra_spill_area
0000000000427d10 T __asan_get_alloc_stack
000000000042f730 T __asan_get_current_fake_stack
0000000000427f60 T __asan_get_free_stack
00000000004a1370 T __asan_get_report_access_size
00000000004a1350 T __asan_get_report_access_type
00000000004a1300 T __asan_get_report_address
00000000004a12c0 T __asan_get_report_bp
00000000004a1390 T __asan_get_report_description
00000000004a12a0 T __asan_get_report_pc
00000000004a12e0 T __asan_get_report_sp
0000000000427f70 T __asan_get_shadow_mapping
00000000004a35f0 T __asan_handle_no_return
00000000004a3770 T __asan_handle_vfork
00000000004a37d0 T __asan_init
00000000004a2010 T __asan_load1
00000000004a2530 T __asan_load16
00000000004a2610 T __asan_load16_noabort
00000000004a20f0 T __asan_load1_noabort
00000000004a2160 T __asan_load2
00000000004a2240 T __asan_load2_noabort
00000000004a22b0 T __asan_load4
00000000004a2390 T __asan_load4_noabort
00000000004a2400 T __asan_load8
00000000004a24d0 T __asan_load8_noabort
00000000004a2d70 T __asan_loadN
00000000004a2e10 T __asan_loadN_noabort
000000000049e190 T __asan_load_cxx_array_cookie
0000000000427ac0 T __asan_locate_address
000000000049a8e0 T __asan_memcpy
000000000049ae10 T __asan_memmove
000000000049aca0 T __asan_memset
00000000004a15c0 W __asan_on_error
00000000005dd410 B __asan_option_detect_stack_use_after_return
000000000049e170 T __asan_poison_cxx_array_cookie
000000000049eac0 T __asan_poison_intra_object_redzone
000000000049d4e0 T __asan_poison_memory_region
000000000049e290 T __asan_poison_stack_memory
00000000004a5350 T __asan_print_accumulated_stats
000000000049d900 T __asan_region_is_poisoned
0000000000431de0 T __asan_register_elf_globals
0000000000430fd0 T __asan_register_globals
0000000000430fa0 T __asan_register_image_globals
00000000004a11e0 T __asan_report_error
00000000004a1890 T __asan_report_exp_load1
00000000004a1ad0 T __asan_report_exp_load16
00000000004a1920 T __asan_report_exp_load2
00000000004a19b0 T __asan_report_exp_load4
00000000004a1a40 T __asan_report_exp_load8
00000000004a1f20 T __asan_report_exp_load_n
00000000004a1b70 T __asan_report_exp_store1
00000000004a1e70 T __asan_report_exp_store16
00000000004a1c30 T __asan_report_exp_store2
00000000004a1cf0 T __asan_report_exp_store4
00000000004a1db0 T __asan_report_exp_store8
00000000004a1fb0 T __asan_report_exp_store_n
00000000004a1860 T __asan_report_load1
00000000004a1aa0 T __asan_report_load16
00000000004a1b00 T __asan_report_load16_noabort
00000000004a18c0 T __asan_report_load1_noabort
00000000004a18f0 T __asan_report_load2
00000000004a1950 T __asan_report_load2_noabort
00000000004a1980 T __asan_report_load4
00000000004a19e0 T __asan_report_load4_noabort
00000000004a1a10 T __asan_report_load8
00000000004a1a70 T __asan_report_load8_noabort
00000000004a1ef0 T __asan_report_load_n
00000000004a1f50 T __asan_report_load_n_noabort
00000000004a1290 T __asan_report_present
00000000004a1b30 T __asan_report_store1
00000000004a1e30 T __asan_report_store16
00000000004a1eb0 T __asan_report_store16_noabort
00000000004a1bb0 T __asan_report_store1_noabort
00000000004a1bf0 T __asan_report_store2
00000000004a1c70 T __asan_report_store2_noabort
00000000004a1cb0 T __asan_report_store4
00000000004a1d30 T __asan_report_store4_noabort
00000000004a1d70 T __asan_report_store8
00000000004a1df0 T __asan_report_store8_noabort
00000000004a1f80 T __asan_report_store_n
00000000004a1fe0 T __asan_report_store_n_noabort
00000000005dab94 B __asan_rt_version
00000000004a37c0 T __asan_set_death_callback
00000000004a1220 T __asan_set_error_report_callback
000000000049e1d0 T __asan_set_shadow_00
000000000049e1f0 T __asan_set_shadow_f1
000000000049e210 T __asan_set_shadow_f2
000000000049e230 T __asan_set_shadow_f3
000000000049e250 T __asan_set_shadow_f5
000000000049e270 T __asan_set_shadow_f8
00000000005dd408 B __asan_shadow_memory_dynamic_address
000000000042d010 T __asan_stack_free_0
000000000042d380 T __asan_stack_free_1
000000000042f630 T __asan_stack_free_10
000000000042d700 T __asan_stack_free_2
000000000042dad0 T __asan_stack_free_3
000000000042df20 T __asan_stack_free_4
000000000042e460 T __asan_stack_free_5
000000000042e8d0 T __asan_stack_free_6
000000000042ec40 T __asan_stack_free_7
000000000042ef90 T __asan_stack_free_8
000000000042f2e0 T __asan_stack_free_9
000000000042cdf0 T __asan_stack_malloc_0
000000000042d120 T __asan_stack_malloc_1
000000000042f3e0 T __asan_stack_malloc_10
000000000042d490 T __asan_stack_malloc_2
000000000042d830 T __asan_stack_malloc_3
000000000042dc20 T __asan_stack_malloc_4
000000000042e0b0 T __asan_stack_malloc_5
000000000042e660 T __asan_stack_malloc_6
000000000042e9f0 T __asan_stack_malloc_7
000000000042ed40 T __asan_stack_malloc_8
000000000042f090 T __asan_stack_malloc_9
00000000004a2680 T __asan_store1
00000000004a2c20 T __asan_store16
00000000004a2d00 T __asan_store16_noabort
00000000004a2760 T __asan_store1_noabort
00000000004a27d0 T __asan_store2
00000000004a28d0 T __asan_store2_noabort
00000000004a2950 T __asan_store4
00000000004a2a50 T __asan_store4_noabort
00000000004a2ad0 T __asan_store8
00000000004a2bb0 T __asan_store8_noabort
00000000004a2e60 T __asan_storeN
00000000004a2f00 T __asan_storeN_noabort
00000000005dd418 B __asan_test_only_reported_buggy_pointer
000000000049ead0 T __asan_unpoison_intra_object_redzone
000000000049d770 T __asan_unpoison_memory_region
000000000049e400 T __asan_unpoison_stack_memory
0000000000431e30 T __asan_unregister_elf_globals
00000000004319f0 T __asan_unregister_globals
00000000004319c0 T __asan_unregister_image_globals
0000000000423120 T __asan_update_allocation_context
00000000004a37e0 T __asan_version_mismatch_check_v8
00000000005c9ab0 B __bss_start
0000000000466910 W __bzero
00000000004cf980 W __clang_call_terminate
                 U __cxa_allocate_exception@CXXABI_1.3
00000000004884e0 W __cxa_atexit
                 U __cxa_begin_catch@CXXABI_1.3
                 w __cxa_demangle@CXXABI_1.3
                 U __cxa_end_catch@CXXABI_1.3
                 U __cxa_free_exception@CXXABI_1.3
                 U __cxa_rethrow@CXXABI_1.3
00000000004861f0 W __cxa_rethrow_primary_exception
0000000000486190 W __cxa_throw
0000000000420500 t __cxx_global_var_init
0000000000420560 t __cxx_global_var_init
00000000004205c0 t __cxx_global_var_init
0000000000420620 t __cxx_global_var_init
0000000000420680 t __cxx_global_var_init
00000000004206e0 t __cxx_global_var_init
0000000000420740 t __cxx_global_var_init
00000000004207a0 t __cxx_global_var_init
00000000005c5250 D __data_start
00000000004208b0 t __do_global_dtors_aux
00000000005c44f8 d __do_global_dtors_aux_fini_array_entry
00000000005c5258 D __dso_handle
                 U __dynamic_cast@CXXABI_1.3
                 U __errno_location@GLIBC_2.2.5
000000000043fad0 W __fprintf_chk
00000000005c4468 d __frame_dummy_init_array_entry
00000000004623e0 W __getdelim
                 w __gmon_start__
                 U __gxx_personality_v0@CXXABI_1.3
0000000000486230 T __interceptor__Unwind_RaiseException
0000000000466910 T __interceptor___bzero
00000000004884e0 T __interceptor___cxa_atexit
00000000004861f0 T __interceptor___cxa_rethrow_primary_exception
0000000000486190 T __interceptor___cxa_throw
000000000043fad0 T __interceptor___fprintf_chk
00000000004623e0 T __interceptor___getdelim
0000000000440190 T __interceptor___isoc99_fprintf
000000000043d9d0 T __interceptor___isoc99_fscanf
0000000000440050 T __interceptor___isoc99_printf
000000000043d880 T __interceptor___isoc99_scanf
00000000004403b0 T __interceptor___isoc99_snprintf
00000000004402d0 T __interceptor___isoc99_sprintf
000000000043db30 T __interceptor___isoc99_sscanf
000000000043f3a0 T __interceptor___isoc99_vfprintf
000000000043d3d0 T __interceptor___isoc99_vfscanf
000000000043f320 T __interceptor___isoc99_vprintf
000000000043d2a0 T __interceptor___isoc99_vscanf
000000000043f430 T __interceptor___isoc99_vsnprintf
000000000043f650 T __interceptor___isoc99_vsprintf
000000000043d330 T __interceptor___isoc99_vsscanf
000000000049bea0 T __interceptor___libc_memalign
0000000000486130 T __interceptor___longjmp_chk
00000000004737c0 T __interceptor___lxstat
0000000000473b40 T __interceptor___lxstat64
000000000046f160 T __interceptor___overflow
0000000000458330 T __interceptor___pthread_mutex_lock
0000000000458370 T __interceptor___pthread_mutex_unlock
000000000043fea0 T __interceptor___snprintf_chk
000000000043fcf0 T __interceptor___sprintf_chk
0000000000487450 T __interceptor___strdup
0000000000432ee0 T __interceptor___strndup
0000000000475bb0 T __interceptor___strxfrm_l
0000000000463630 T __interceptor___tls_get_addr
000000000046f0e0 T __interceptor___uflow
000000000046f120 T __interceptor___underflow
000000000043e970 T __interceptor___vsnprintf_chk
000000000043ed90 T __interceptor___vsprintf_chk
0000000000476580 T __interceptor___wcsxfrm_l
000000000046f220 T __interceptor___woverflow
000000000046f1a0 T __interceptor___wuflow
000000000046f1e0 T __interceptor___wunderflow
00000000004538b0 T __interceptor___xpg_strerror_r
00000000004730c0 T __interceptor___xstat
0000000000473440 T __interceptor___xstat64
0000000000458230 T __interceptor__exit
0000000000486100 T __interceptor__longjmp
0000000000470a50 T __interceptor__obstack_begin
00000000004709f0 T __interceptor__obstack_begin_1
0000000000470ab0 T __interceptor__obstack_newchunk
000000000044aad0 T __interceptor_accept
000000000044ae70 T __interceptor_accept4
000000000049bfb0 T __interceptor_aligned_alloc
000000000043afb0 T __interceptor_asctime
000000000043b360 T __interceptor_asctime_r
000000000043ff70 T __interceptor_asprintf
0000000000487c00 T __interceptor_atoi
0000000000487eb0 T __interceptor_atol
0000000000488230 T __interceptor_atoll
0000000000457b70 T __interceptor_backtrace
0000000000457d50 T __interceptor_backtrace_symbols
0000000000437270 T __interceptor_bcmp
0000000000466b00 T __interceptor_bzero
000000000049b7c0 T __interceptor_calloc
0000000000452da0 T __interceptor_canonicalize_file_name
00000000004662a0 T __interceptor_capget
00000000004665e0 T __interceptor_capset
000000000049b530 T __interceptor_cfree
0000000000444160 T __interceptor_clock_getcpuclockid
0000000000443ba0 T __interceptor_clock_getres
0000000000443d90 T __interceptor_clock_gettime
0000000000443f90 T __interceptor_clock_settime
00000000004530d0 T __interceptor_confstr
000000000047ace0 T __interceptor_crypt
000000000047b000 T __interceptor_crypt_r
0000000000472620 T __interceptor_ctermid
000000000043a8d0 T __interceptor_ctime
000000000043ac40 T __interceptor_ctime_r
0000000000470f10 T __interceptor_dlclose
0000000000470cf0 T __interceptor_dlopen
0000000000461890 T __interceptor_drand48_r
0000000000443b60 T __interceptor_endgrent
0000000000443ae0 T __interceptor_endpwent
000000000045a490 T __interceptor_ether_aton
000000000045b600 T __interceptor_ether_aton_r
000000000045a9f0 T __interceptor_ether_hostton
000000000045ad80 T __interceptor_ether_line
000000000045a280 T __interceptor_ether_ntoa
000000000045b280 T __interceptor_ether_ntoa_r
000000000045a660 T __interceptor_ether_ntohost
0000000000472e60 T __interceptor_eventfd_read
0000000000473080 T __interceptor_eventfd_write
0000000000470bc0 T __interceptor_fclose
000000000046f590 T __interceptor_fdopen
0000000000470af0 T __interceptor_fflush
0000000000443110 T __interceptor_fgetgrent
0000000000443850 T __interceptor_fgetgrent_r
00000000004430a0 T __interceptor_fgetpwent
0000000000443600 T __interceptor_fgetpwent_r
00000000004395c0 T __interceptor_fgets
00000000004648d0 T __interceptor_fgetxattr
0000000000463d60 T __interceptor_flistxattr
00000000004709a0 T __interceptor_fmemopen
000000000046f260 T __interceptor_fopen
000000000046fab0 T __interceptor_fopen64
0000000000471760 T __interceptor_fopencookie
000000000043f990 T __interceptor_fprintf
00000000004397b0 T __interceptor_fputs
0000000000437e80 T __interceptor_fread
000000000049b3e0 T __interceptor_free
000000000046f760 T __interceptor_freopen
000000000046fdd0 T __interceptor_freopen64
0000000000437680 T __interceptor_frexp
0000000000437890 T __interceptor_frexpf
0000000000437aa0 T __interceptor_frexpl
000000000043d5c0 T __interceptor_fscanf
0000000000458f60 T __interceptor_fstatfs
0000000000459480 T __interceptor_fstatfs64
00000000004599a0 T __interceptor_fstatvfs
0000000000459ec0 T __interceptor_fstatvfs64
0000000000466cf0 T __interceptor_ftime
0000000000438a70 T __interceptor_fwrite
0000000000450100 T __interceptor_get_current_dir_name
00000000004474d0 T __interceptor_getaddrinfo
000000000044ff20 T __interceptor_getcwd
00000000004628f0 T __interceptor_getdelim
0000000000443030 T __interceptor_getgrent
00000000004433c0 T __interceptor_getgrent_r
0000000000442350 T __interceptor_getgrgid
0000000000442d70 T __interceptor_getgrgid_r
0000000000441920 T __interceptor_getgrnam
00000000004429c0 T __interceptor_getgrnam_r
00000000004548c0 T __interceptor_getgroups
00000000004492b0 T __interceptor_gethostbyaddr
0000000000449da0 T __interceptor_gethostbyaddr_r
0000000000448780 T __interceptor_gethostbyname
0000000000449540 T __interceptor_gethostbyname2
000000000044a300 T __interceptor_gethostbyname2_r
00000000004495b0 T __interceptor_gethostbyname_r
00000000004494b0 T __interceptor_gethostent
00000000004499b0 T __interceptor_gethostent_r
0000000000465590 T __interceptor_getifaddrs
0000000000444390 T __interceptor_getitimer
0000000000461ed0 T __interceptor_getline
0000000000474370 T __interceptor_getloadavg
00000000004583b0 T __interceptor_getmntent
0000000000458b90 T __interceptor_getmntent_r
0000000000448040 T __interceptor_getnameinfo
0000000000470f60 T __interceptor_getpass
000000000044dea0 T __interceptor_getpeername
00000000004786f0 T __interceptor_getprotobyname
0000000000478bb0 T __interceptor_getprotobyname_r
00000000004788e0 T __interceptor_getprotobynumber
0000000000478f60 T __interceptor_getprotobynumber_r
0000000000477f70 T __interceptor_getprotoent
0000000000478970 T __interceptor_getprotoent_r
0000000000442fc0 T __interceptor_getpwent
0000000000443180 T __interceptor_getpwent_r
0000000000440e10 T __interceptor_getpwnam
00000000004423c0 T __interceptor_getpwnam_r
00000000004418b0 T __interceptor_getpwuid
0000000000442770 T __interceptor_getpwuid_r
000000000047ab10 T __interceptor_getrandom
00000000004650e0 T __interceptor_getresgid
0000000000464c30 T __interceptor_getresuid
00000000004483f0 T __interceptor_getsockname
000000000044a710 T __interceptor_getsockopt
000000000047a930 T __interceptor_getusershell
0000000000473ec0 T __interceptor_getutent
0000000000473f00 T __interceptor_getutid
0000000000473f40 T __interceptor_getutline
0000000000473f80 T __interceptor_getutxent
0000000000473fc0 T __interceptor_getutxid
0000000000474000 T __interceptor_getutxline
0000000000463f50 T __interceptor_getxattr
0000000000444dd0 T __interceptor_glob
0000000000445650 T __interceptor_glob64
000000000043a470 T __interceptor_gmtime
000000000043a6a0 T __interceptor_gmtime_r
0000000000462e00 T __interceptor_iconv
0000000000465ef0 T __interceptor_if_indextoname
00000000004660d0 T __interceptor_if_nametoindex
0000000000435320 T __interceptor_index
0000000000446da0 T __interceptor_inet_aton
00000000004466d0 T __interceptor_inet_ntop
0000000000446a30 T __interceptor_inet_pton
000000000045a0a0 T __interceptor_initgroups
0000000000440490 T __interceptor_ioctl
0000000000460be0 T __interceptor_lgamma
0000000000461240 T __interceptor_lgamma_r
0000000000460e00 T __interceptor_lgammaf
0000000000461460 T __interceptor_lgammaf_r
0000000000461020 T __interceptor_lgammal
0000000000461680 T __interceptor_lgammal_r
0000000000464410 T __interceptor_lgetxattr
00000000004636a0 T __interceptor_listxattr
0000000000463a00 T __interceptor_llistxattr
0000000000439e20 T __interceptor_localtime
000000000043a240 T __interceptor_localtime_r
00000000004860d0 T __interceptor_longjmp
0000000000461ab0 T __interceptor_lrand48_r
000000000049c0e0 T __interceptor_mallinfo
000000000049b650 T __interceptor_malloc
000000000049c4a0 T __interceptor_malloc_stats
000000000049c0b0 T __interceptor_malloc_usable_size
000000000049c100 T __interceptor_mallopt
0000000000450eb0 T __interceptor_mbsnrtowcs
00000000004509a0 T __interceptor_mbsrtowcs
00000000004507b0 T __interceptor_mbstowcs
0000000000474540 T __interceptor_mcheck
0000000000474550 T __interceptor_mcheck_pedantic
000000000049bda0 T __interceptor_memalign
00000000004372d0 T __interceptor_memchr
0000000000437210 T __interceptor_memcmp
0000000000436820 T __interceptor_memcpy
0000000000434fe0 T __interceptor_memmem
00000000004364f0 T __interceptor_memmove
00000000004374a0 T __interceptor_memrchr
0000000000436300 T __interceptor_memset
0000000000472280 T __interceptor_mincore
000000000043b710 T __interceptor_mktime
0000000000471660 T __interceptor_mlock
00000000004716e0 T __interceptor_mlockall
0000000000477de0 T __interceptor_mmap
0000000000477ee0 T __interceptor_mmap64
000000000044b220 T __interceptor_modf
000000000044b440 T __interceptor_modff
000000000044b660 T __interceptor_modfl
0000000000474560 T __interceptor_mprobe
0000000000477e70 T __interceptor_mprotect
000000000044dca0 T __interceptor_msgrcv
000000000044dab0 T __interceptor_msgsnd
00000000004716a0 T __interceptor_munlock
0000000000471720 T __interceptor_munlockall
0000000000476f40 T __interceptor_name_to_handle_at
00000000004778e0 T __interceptor_open_by_handle_at
0000000000470120 T __interceptor_open_memstream
0000000000470560 T __interceptor_open_wmemstream
000000000044e290 T __interceptor_opendir
000000000047a800 T __interceptor_pclose
0000000000454aa0 T __interceptor_poll
000000000047a4c0 T __interceptor_popen
000000000049c110 T __interceptor_posix_memalign
0000000000455210 T __interceptor_ppoll
0000000000439b40 T __interceptor_prctl
0000000000438060 T __interceptor_pread
0000000000438240 T __interceptor_pread64
0000000000438780 T __interceptor_preadv
0000000000438810 T __interceptor_preadv64
000000000043f850 T __interceptor_printf
00000000004724c0 T __interceptor_process_vm_readv
0000000000472570 T __interceptor_process_vm_writev
000000000045d0f0 T __interceptor_pthread_attr_getaffinity_np
000000000045bdf0 T __interceptor_pthread_attr_getdetachstate
000000000045c020 T __interceptor_pthread_attr_getguardsize
000000000045cec0 T __interceptor_pthread_attr_getinheritsched
000000000045caa0 T __interceptor_pthread_attr_getschedparam
000000000045cc90 T __interceptor_pthread_attr_getschedpolicy
000000000045c250 T __interceptor_pthread_attr_getscope
000000000045c6b0 T __interceptor_pthread_attr_getstack
000000000045c480 T __interceptor_pthread_attr_getstacksize
000000000045e8c0 T __interceptor_pthread_barrierattr_getpshared
000000000045e690 T __interceptor_pthread_condattr_getclock
000000000045e460 T __interceptor_pthread_condattr_getpshared
0000000000485d90 T __interceptor_pthread_create
000000000045f840 T __interceptor_pthread_getname_np
00000000004470f0 T __interceptor_pthread_getschedparam
0000000000485ec0 T __interceptor_pthread_join
00000000004582b0 T __interceptor_pthread_mutex_lock
00000000004582f0 T __interceptor_pthread_mutex_unlock
000000000045d970 T __interceptor_pthread_mutexattr_getprioceiling
000000000045d740 T __interceptor_pthread_mutexattr_getprotocol
000000000045d2e0 T __interceptor_pthread_mutexattr_getpshared
000000000045dba0 T __interceptor_pthread_mutexattr_getrobust
000000000045ddd0 T __interceptor_pthread_mutexattr_getrobust_np
000000000045d510 T __interceptor_pthread_mutexattr_gettype
000000000045e230 T __interceptor_pthread_rwlockattr_getkind_np
000000000045e000 T __interceptor_pthread_rwlockattr_getpshared
0000000000471e20 T __interceptor_pthread_setcancelstate
0000000000472050 T __interceptor_pthread_setcanceltype
000000000045f650 T __interceptor_pthread_setname_np
0000000000457850 T __interceptor_pthread_sigmask
000000000044ef10 T __interceptor_ptrace
000000000045eeb0 T __interceptor_ptsname
000000000045eef0 T __interceptor_ptsname_r
0000000000439980 T __interceptor_puts
0000000000474040 T __interceptor_pututxline
000000000049c3b0 T __interceptor_pvalloc
0000000000438c50 T __interceptor_pwrite
0000000000438e30 T __interceptor_pwrite64
00000000004394a0 T __interceptor_pwritev
0000000000439530 T __interceptor_pwritev64
000000000047b4c0 T __interceptor_qsort
000000000047b800 T __interceptor_qsort_r
0000000000461cd0 T __interceptor_rand_r
000000000045bbc0 T __interceptor_random_r
0000000000437cb0 T __interceptor_read
000000000044e450 T __interceptor_readdir
000000000044e9b0 T __interceptor_readdir64
000000000044eb80 T __interceptor_readdir64_r
000000000044e620 T __interceptor_readdir_r
00000000004768d0 T __interceptor_readlink
0000000000476c00 T __interceptor_readlinkat
0000000000438420 T __interceptor_readv
000000000049b940 T __interceptor_realloc
000000000049bc50 T __interceptor_reallocarray
0000000000452a20 T __interceptor_realpath
0000000000472660 T __interceptor_recv
0000000000472840 T __interceptor_recvfrom
000000000044bf10 T __interceptor_recvmmsg
000000000044b870 T __interceptor_recvmsg
0000000000479770 T __interceptor_regcomp
0000000000479f90 T __interceptor_regerror
0000000000479ac0 T __interceptor_regexec
000000000047a2f0 T __interceptor_regfree
0000000000460570 T __interceptor_remquo
0000000000460790 T __interceptor_remquof
00000000004609b0 T __interceptor_remquol
0000000000453aa0 T __interceptor_scandir
00000000004541b0 T __interceptor_scandir64
000000000043d470 T __interceptor_scanf
00000000004532b0 T __interceptor_sched_getaffinity
00000000004534a0 T __interceptor_sched_getparam
0000000000471920 T __interceptor_sem_destroy
0000000000471bf0 T __interceptor_sem_getvalue
00000000004718d0 T __interceptor_sem_init
0000000000471bb0 T __interceptor_sem_post
00000000004719e0 T __interceptor_sem_timedwait
00000000004719a0 T __interceptor_sem_trywait
0000000000471960 T __interceptor_sem_wait
0000000000472a60 T __interceptor_send
000000000044d800 T __interceptor_sendmmsg
000000000044c300 T __interceptor_sendmsg
0000000000472c50 T __interceptor_sendto
0000000000479390 T __interceptor_setbuf
0000000000479560 T __interceptor_setbuffer
0000000000443b20 T __interceptor_setgrent
0000000000444580 T __interceptor_setitimer
0000000000479730 T __interceptor_setlinebuf
000000000044fbe0 T __interceptor_setlocale
0000000000443aa0 T __interceptor_setpwent
00000000004791b0 T __interceptor_setvbuf
000000000045b990 T __interceptor_shmctl
000000000047bf20 T __interceptor_sigaction
000000000047bb20 T __interceptor_sigaltstack
0000000000456ab0 T __interceptor_sigandset
0000000000456730 T __interceptor_sigemptyset
00000000004568f0 T __interceptor_sigfillset
0000000000486160 T __interceptor_siglongjmp
000000000047bef0 T __interceptor_signal
0000000000456f10 T __interceptor_sigorset
0000000000457370 T __interceptor_sigpending
0000000000457530 T __interceptor_sigprocmask
00000000004562a0 T __interceptor_sigtimedwait
0000000000455c10 T __interceptor_sigwait
0000000000455f80 T __interceptor_sigwaitinfo
000000000045fa30 T __interceptor_sincos
000000000045fdf0 T __interceptor_sincosf
00000000004601b0 T __interceptor_sincosl
000000000043fdc0 T __interceptor_snprintf
000000000043fc10 T __interceptor_sprintf
000000000043d720 T __interceptor_sscanf
0000000000458c20 T __interceptor_statfs
0000000000459140 T __interceptor_statfs64
0000000000459660 T __interceptor_statvfs
0000000000459b80 T __interceptor_statvfs64
0000000000433ad0 T __interceptor_strcasecmp
0000000000434690 T __interceptor_strcasestr
0000000000486270 T __interceptor_strcat
0000000000435320 T __interceptor_strchr
0000000000435520 T __interceptor_strchrnul
0000000000433310 T __interceptor_strcmp
0000000000486d90 T __interceptor_strcpy
0000000000435c50 T __interceptor_strcspn
0000000000487180 T __interceptor_strdup
0000000000453680 T __interceptor_strerror
00000000004536d0 T __interceptor_strerror_r
0000000000432810 T __interceptor_strlen
0000000000433e70 T __interceptor_strncasecmp
00000000004867e0 T __interceptor_strncat
00000000004336d0 T __interceptor_strncmp
0000000000487720 T __interceptor_strncpy
0000000000432ca0 T __interceptor_strndup
0000000000432ac0 T __interceptor_strnlen
0000000000435f90 T __interceptor_strpbrk
000000000043c290 T __interceptor_strptime
0000000000435720 T __interceptor_strrchr
0000000000435910 T __interceptor_strspn
00000000004342c0 T __interceptor_strstr
00000000004502e0 T __interceptor_strtoimax
0000000000434730 T __interceptor_strtok
0000000000487b30 T __interceptor_strtol
0000000000488160 T __interceptor_strtoll
0000000000450720 T __interceptor_strtoumax
0000000000475530 T __interceptor_strxfrm
0000000000475870 T __interceptor_strxfrm_l
0000000000485ef0 T __interceptor_swapcontext
000000000044e0b0 T __interceptor_sysinfo
0000000000452830 T __interceptor_tcgetattr
000000000045f310 T __interceptor_tempnam
0000000000433120 T __interceptor_textdomain
0000000000439c00 T __interceptor_time
0000000000471480 T __interceptor_timerfd_gettime
0000000000471130 T __interceptor_timerfd_settime
0000000000463450 T __interceptor_times
000000000045eaf0 T __interceptor_tmpnam
000000000045ecd0 T __interceptor_tmpnam_r
000000000046ee90 T __interceptor_tsearch
000000000045f0e0 T __interceptor_ttyname
000000000045f120 T __interceptor_ttyname_r
000000000047bd10 T __interceptor_uname
000000000049c2c0 T __interceptor_valloc
000000000043ef90 T __interceptor_vasprintf
00000000004a79f4 T __interceptor_vfork
000000000043e6c0 T __interceptor_vfprintf
000000000043d200 T __interceptor_vfscanf
000000000043dc90 T __interceptor_vprintf
000000000043c7f0 T __interceptor_vscanf
000000000043e750 T __interceptor_vsnprintf
000000000043eb90 T __interceptor_vsprintf
000000000043d160 T __interceptor_vsscanf
0000000000445970 T __interceptor_wait
0000000000445fa0 T __interceptor_wait3
0000000000446330 T __interceptor_wait4
0000000000445b80 T __interceptor_waitid
0000000000445d70 T __interceptor_waitpid
0000000000452260 T __interceptor_wcrtomb
0000000000474900 T __interceptor_wcscat
0000000000475220 T __interceptor_wcsdup
0000000000474570 T __interceptor_wcslen
0000000000474d80 T __interceptor_wcsncat
0000000000474730 T __interceptor_wcsnlen
0000000000451c00 T __interceptor_wcsnrtombs
0000000000451700 T __interceptor_wcsrtombs
0000000000451510 T __interceptor_wcstombs
0000000000475ef0 T __interceptor_wcsxfrm
0000000000476230 T __interceptor_wcsxfrm_l
0000000000452600 T __interceptor_wctomb
0000000000455580 T __interceptor_wordexp
00000000004388a0 T __interceptor_write
0000000000439010 T __interceptor_writev
000000000046c240 T __interceptor_xdr_bool
000000000046d8c0 T __interceptor_xdr_bytes
000000000046c9c0 T __interceptor_xdr_char
000000000046ee00 T __interceptor_xdr_destroy
000000000046d4d0 T __interceptor_xdr_double
000000000046c5d0 T __interceptor_xdr_enum
000000000046d0e0 T __interceptor_xdr_float
0000000000468c40 T __interceptor_xdr_hyper
0000000000467c80 T __interceptor_xdr_int
000000000046a320 T __interceptor_xdr_int16_t
000000000046aaa0 T __interceptor_xdr_int32_t
000000000046b280 T __interceptor_xdr_int64_t
0000000000469c00 T __interceptor_xdr_int8_t
0000000000468460 T __interceptor_xdr_long
0000000000469420 T __interceptor_xdr_longlong_t
000000000046ba60 T __interceptor_xdr_quad_t
0000000000467500 T __interceptor_xdr_short
000000000046e2a0 T __interceptor_xdr_string
000000000046cd50 T __interceptor_xdr_u_char
0000000000469030 T __interceptor_xdr_u_hyper
0000000000468070 T __interceptor_xdr_u_int
0000000000468850 T __interceptor_xdr_u_long
0000000000469810 T __interceptor_xdr_u_longlong_t
000000000046be50 T __interceptor_xdr_u_quad_t
00000000004678c0 T __interceptor_xdr_u_short
000000000046a6e0 T __interceptor_xdr_uint16_t
000000000046ae90 T __interceptor_xdr_uint32_t
000000000046b670 T __interceptor_xdr_uint64_t
0000000000469f90 T __interceptor_xdr_uint8_t
0000000000466f00 T __interceptor_xdrmem_create
000000000046e940 T __interceptor_xdrrec_create
00000000004672b0 T __interceptor_xdrstdio_create
0000000000440190 W __isoc99_fprintf
000000000043d9d0 W __isoc99_fscanf
0000000000440050 W __isoc99_printf
000000000043d880 W __isoc99_scanf
00000000004403b0 W __isoc99_snprintf
00000000004402d0 W __isoc99_sprintf
000000000043db30 W __isoc99_sscanf
000000000043f3a0 W __isoc99_vfprintf
000000000043d3d0 W __isoc99_vfscanf
000000000043f320 W __isoc99_vprintf
000000000043d2a0 W __isoc99_vscanf
000000000043f430 W __isoc99_vsnprintf
000000000043f650 W __isoc99_vsprintf
000000000043d330 W __isoc99_vsscanf
000000000049bea0 W __libc_memalign
                 v __libc_stack_end@GLIBC_2.2.5
                 U __libc_start_main@GLIBC_2.34
00000000005c4420 D __local_asan_preinit
0000000000486130 W __longjmp_chk
00000000004c4930 W __lsan_default_options
                 w __lsan_default_suppressions
00000000004c4880 T __lsan_disable
00000000004c48a0 T __lsan_do_leak_check
00000000004c48f0 T __lsan_do_recoverable_leak_check
00000000004c4890 T __lsan_enable
00000000004c4540 T __lsan_ignore_object
                 w __lsan_is_turned_off
00000000004c45d0 T __lsan_register_root_region
00000000004c4770 T __lsan_unregister_root_region
00000000004737c0 W __lxstat
0000000000473b40 W __lxstat64
000000000046f160 W __overflow
                 v __progname@GLIBC_2.2.5
0000000000458330 W __pthread_mutex_lock
0000000000458370 W __pthread_mutex_unlock
00000000004bb590 W __sancov_default_options
0000000000000068 W __sancov_lowest_stack
00000000004aa360 T __sanitizer_acquire_crash_state
000000000049e570 T __sanitizer_annotate_contiguous_container
000000000049e930 T __sanitizer_contiguous_container_find_bad_address
00000000004bbdd0 W __sanitizer_cov_8bit_counters_init
00000000004bbde0 W __sanitizer_cov_bool_flag_init
00000000004bb6c0 T __sanitizer_cov_dump
00000000004bbdf0 W __sanitizer_cov_pcs_init
00000000004bbcb0 T __sanitizer_cov_reset
00000000004bbcf0 W __sanitizer_cov_trace_cmp
00000000004bbd00 W __sanitizer_cov_trace_cmp1
00000000004bbd10 W __sanitizer_cov_trace_cmp2
00000000004bbd20 W __sanitizer_cov_trace_cmp4
00000000004bbd30 W __sanitizer_cov_trace_cmp8
00000000004bbd40 W __sanitizer_cov_trace_const_cmp1
00000000004bbd50 W __sanitizer_cov_trace_const_cmp2
00000000004bbd60 W __sanitizer_cov_trace_const_cmp4
00000000004bbd70 W __sanitizer_cov_trace_const_cmp8
00000000004bbd90 W __sanitizer_cov_trace_div4
00000000004bbda0 W __sanitizer_cov_trace_div8
00000000004bbdb0 W __sanitizer_cov_trace_gep
00000000004bb990 W __sanitizer_cov_trace_pc_guard
00000000004bb9e0 W __sanitizer_cov_trace_pc_guard_init
00000000004bbdc0 W __sanitizer_cov_trace_pc_indir
00000000004bbd80 W __sanitizer_cov_trace_switch
00000000004bb6f0 T __sanitizer_dump_coverage
00000000004bbc80 T __sanitizer_dump_trace_pc_guard_coverage
00000000004a78f0 T __sanitizer_finish_switch_fiber
                 w __sanitizer_free_hook
0000000000422ea0 T __sanitizer_get_allocated_size
00000000004a51f0 T __sanitizer_get_current_allocated_bytes
0000000000422e40 T __sanitizer_get_estimated_allocated_size
00000000004a52c0 T __sanitizer_get_free_bytes
00000000004a5260 T __sanitizer_get_heap_size
00000000004bdd50 T __sanitizer_get_module_and_offset_for_pc
0000000000422e50 T __sanitizer_get_ownership
00000000004acc90 T __sanitizer_get_report_path
00000000004a5340 T __sanitizer_get_unmapped_bytes
00000000004aa370 T __sanitizer_install_malloc_and_free_hooks
                 w __sanitizer_malloc_hook
00000000004b4830 W __sanitizer_on_print
000000000049c4c0 T __sanitizer_print_memory_profile
00000000004a4110 T __sanitizer_print_stack_trace
00000000004a15b0 T __sanitizer_ptr_cmp
00000000004a13b0 T __sanitizer_ptr_sub
0000000000422f70 W __sanitizer_purge_allocator
00000000004a9ae0 W __sanitizer_report_error_summary
00000000004b8990 W __sanitizer_sandbox_on_notify
00000000004b8130 T __sanitizer_set_death_callback
00000000004acc70 T __sanitizer_set_report_fd
00000000004acc60 T __sanitizer_set_report_path
00000000004a7830 T __sanitizer_start_switch_fiber
                 w __sanitizer_symbolize_code
                 w __sanitizer_symbolize_data
                 w __sanitizer_symbolize_demangle
                 w __sanitizer_symbolize_flush
00000000004bdc00 T __sanitizer_symbolize_global
00000000004bd900 T __sanitizer_symbolize_pc
00000000004818d0 T __sanitizer_syscall_post_impl_accept
00000000004818f0 T __sanitizer_syscall_post_impl_accept4
0000000000480df0 T __sanitizer_syscall_post_impl_access
000000000047c7c0 T __sanitizer_syscall_post_impl_acct
00000000004832e0 T __sanitizer_syscall_post_impl_add_key
000000000047c360 T __sanitizer_syscall_post_impl_adjtimex
000000000047c3e0 T __sanitizer_syscall_post_impl_alarm
000000000047d940 T __sanitizer_syscall_post_impl_bdflush
0000000000481890 T __sanitizer_syscall_post_impl_bind
000000000047f670 T __sanitizer_syscall_post_impl_brk
000000000047c8c0 T __sanitizer_syscall_post_impl_capget
000000000047ca90 T __sanitizer_syscall_post_impl_capset
0000000000481580 T __sanitizer_syscall_post_impl_chdir
0000000000480340 T __sanitizer_syscall_post_impl_chmod
0000000000480f10 T __sanitizer_syscall_post_impl_chown
000000000047fad0 T __sanitizer_syscall_post_impl_chroot
000000000047cdf0 T __sanitizer_syscall_post_impl_clock_adjtime
000000000047ce10 T __sanitizer_syscall_post_impl_clock_getres
000000000047cdd0 T __sanitizer_syscall_post_impl_clock_gettime
000000000047cf10 T __sanitizer_syscall_post_impl_clock_nanosleep
000000000047cdb0 T __sanitizer_syscall_post_impl_clock_settime
0000000000480cf0 T __sanitizer_syscall_post_impl_close
00000000004818b0 T __sanitizer_syscall_post_impl_connect
0000000000480bd0 T __sanitizer_syscall_post_impl_creat
000000000047d5a0 T __sanitizer_syscall_post_impl_delete_module
0000000000480400 T __sanitizer_syscall_post_impl_dup
0000000000480420 T __sanitizer_syscall_post_impl_dup2
0000000000480440 T __sanitizer_syscall_post_impl_dup3
0000000000481af0 T __sanitizer_syscall_post_impl_epoll_create
0000000000481b10 T __sanitizer_syscall_post_impl_epoll_create1
0000000000481b30 T __sanitizer_syscall_post_impl_epoll_ctl
0000000000481c40 T __sanitizer_syscall_post_impl_epoll_pwait
0000000000481b50 T __sanitizer_syscall_post_impl_epoll_wait
00000000004850e0 T __sanitizer_syscall_post_impl_eventfd
0000000000485100 T __sanitizer_syscall_post_impl_eventfd2
000000000047d300 T __sanitizer_syscall_post_impl_exit
000000000047d320 T __sanitizer_syscall_post_impl_exit_group
0000000000484750 T __sanitizer_syscall_post_impl_faccessat
00000000004815a0 T __sanitizer_syscall_post_impl_fchdir
0000000000480360 T __sanitizer_syscall_post_impl_fchmod
0000000000484850 T __sanitizer_syscall_post_impl_fchmodat
0000000000481030 T __sanitizer_syscall_post_impl_fchown
0000000000484950 T __sanitizer_syscall_post_impl_fchownat
0000000000480380 T __sanitizer_syscall_post_impl_fcntl
00000000004803a0 T __sanitizer_syscall_post_impl_fcntl64
000000000047d920 T __sanitizer_syscall_post_impl_fdatasync
000000000047ef90 T __sanitizer_syscall_post_impl_fgetxattr
000000000047f1b0 T __sanitizer_syscall_post_impl_flistxattr
00000000004804a0 T __sanitizer_syscall_post_impl_flock
0000000000485450 T __sanitizer_syscall_post_impl_fork
000000000047f650 T __sanitizer_syscall_post_impl_fremovexattr
000000000047eaf0 T __sanitizer_syscall_post_impl_fsetxattr
000000000047df80 T __sanitizer_syscall_post_impl_fstat
000000000047e2e0 T __sanitizer_syscall_post_impl_fstat64
0000000000484c50 T __sanitizer_syscall_post_impl_fstatat64
000000000047de40 T __sanitizer_syscall_post_impl_fstatfs
000000000047de60 T __sanitizer_syscall_post_impl_fstatfs64
000000000047d900 T __sanitizer_syscall_post_impl_fsync
000000000047db20 T __sanitizer_syscall_post_impl_ftruncate
0000000000484650 T __sanitizer_syscall_post_impl_futimesat
0000000000483a60 T __sanitizer_syscall_post_impl_get_mempolicy
0000000000484f00 T __sanitizer_syscall_post_impl_get_robust_list
0000000000484f40 T __sanitizer_syscall_post_impl_getcpu
0000000000481370 T __sanitizer_syscall_post_impl_getcwd
00000000004817f0 T __sanitizer_syscall_post_impl_getdents
0000000000481810 T __sanitizer_syscall_post_impl_getdents64
000000000047c4a0 T __sanitizer_syscall_post_impl_getegid
000000000047c460 T __sanitizer_syscall_post_impl_geteuid
000000000047c480 T __sanitizer_syscall_post_impl_getgid
000000000047c560 T __sanitizer_syscall_post_impl_getgroups
0000000000481c60 T __sanitizer_syscall_post_impl_gethostname
000000000047cb10 T __sanitizer_syscall_post_impl_getitimer
0000000000481930 T __sanitizer_syscall_post_impl_getpeername
000000000047c500 T __sanitizer_syscall_post_impl_getpgid
000000000047c520 T __sanitizer_syscall_post_impl_getpgrp
000000000047c400 T __sanitizer_syscall_post_impl_getpid
000000000047c420 T __sanitizer_syscall_post_impl_getppid
000000000047d260 T __sanitizer_syscall_post_impl_getpriority
0000000000485bb0 T __sanitizer_syscall_post_impl_getrandom
000000000047c4e0 T __sanitizer_syscall_post_impl_getresgid
000000000047c4c0 T __sanitizer_syscall_post_impl_getresuid
0000000000481d50 T __sanitizer_syscall_post_impl_getrlimit
0000000000481eb0 T __sanitizer_syscall_post_impl_getrusage
000000000047c540 T __sanitizer_syscall_post_impl_getsid
0000000000481910 T __sanitizer_syscall_post_impl_getsockname
0000000000481860 T __sanitizer_syscall_post_impl_getsockopt
000000000047c3a0 T __sanitizer_syscall_post_impl_gettid
000000000047c320 T __sanitizer_syscall_post_impl_gettimeofday
000000000047c440 T __sanitizer_syscall_post_impl_getuid
000000000047ecc0 T __sanitizer_syscall_post_impl_getxattr
000000000047d4a0 T __sanitizer_syscall_post_impl_init_module
0000000000483ba0 T __sanitizer_syscall_post_impl_inotify_add_watch
0000000000483a80 T __sanitizer_syscall_post_impl_inotify_init
0000000000483aa0 T __sanitizer_syscall_post_impl_inotify_init1
0000000000483bc0 T __sanitizer_syscall_post_impl_inotify_rm_watch
0000000000480980 T __sanitizer_syscall_post_impl_io_cancel
0000000000480600 T __sanitizer_syscall_post_impl_io_destroy
0000000000480700 T __sanitizer_syscall_post_impl_io_getevents
00000000004805e0 T __sanitizer_syscall_post_impl_io_setup
0000000000480960 T __sanitizer_syscall_post_impl_io_submit
0000000000480480 T __sanitizer_syscall_post_impl_ioctl
0000000000480460 T __sanitizer_syscall_post_impl_ioperm
00000000004835e0 T __sanitizer_syscall_post_impl_ioprio_get
00000000004835c0 T __sanitizer_syscall_post_impl_ioprio_set
0000000000482220 T __sanitizer_syscall_post_impl_ipc
000000000047d2e0 T __sanitizer_syscall_post_impl_kexec_load
00000000004835a0 T __sanitizer_syscall_post_impl_keyctl
000000000047d7e0 T __sanitizer_syscall_post_impl_kill
0000000000481010 T __sanitizer_syscall_post_impl_lchown
000000000047ee90 T __sanitizer_syscall_post_impl_lgetxattr
000000000047fda0 T __sanitizer_syscall_post_impl_link
0000000000484380 T __sanitizer_syscall_post_impl_linkat
0000000000481a70 T __sanitizer_syscall_post_impl_listen
000000000047f090 T __sanitizer_syscall_post_impl_listxattr
000000000047f190 T __sanitizer_syscall_post_impl_llistxattr
00000000004810d0 T __sanitizer_syscall_post_impl_llseek
00000000004816c0 T __sanitizer_syscall_post_impl_lookup_dcookie
000000000047f550 T __sanitizer_syscall_post_impl_lremovexattr
00000000004810b0 T __sanitizer_syscall_post_impl_lseek
000000000047e920 T __sanitizer_syscall_post_impl_lsetxattr
000000000047df60 T __sanitizer_syscall_post_impl_lstat
000000000047e3e0 T __sanitizer_syscall_post_impl_lstat64
000000000047f7b0 T __sanitizer_syscall_post_impl_madvise
0000000000483a40 T __sanitizer_syscall_post_impl_mbind
0000000000483850 T __sanitizer_syscall_post_impl_migrate_pages
000000000047f7d0 T __sanitizer_syscall_post_impl_mincore
0000000000481480 T __sanitizer_syscall_post_impl_mkdir
0000000000483ee0 T __sanitizer_syscall_post_impl_mkdirat
000000000047fbd0 T __sanitizer_syscall_post_impl_mknod
0000000000483de0 T __sanitizer_syscall_post_impl_mknodat
000000000047f730 T __sanitizer_syscall_post_impl_mlock
000000000047f770 T __sanitizer_syscall_post_impl_mlockall
0000000000485370 T __sanitizer_syscall_post_impl_mmap_pgoff
000000000047d960 T __sanitizer_syscall_post_impl_mount
0000000000483a20 T __sanitizer_syscall_post_impl_move_pages
000000000047f690 T __sanitizer_syscall_post_impl_mprotect
0000000000482900 T __sanitizer_syscall_post_impl_mq_getsetattr
0000000000482800 T __sanitizer_syscall_post_impl_mq_notify
0000000000482340 T __sanitizer_syscall_post_impl_mq_open
0000000000482700 T __sanitizer_syscall_post_impl_mq_timedreceive
0000000000482600 T __sanitizer_syscall_post_impl_mq_timedsend
0000000000482440 T __sanitizer_syscall_post_impl_mq_unlink
000000000047f6b0 T __sanitizer_syscall_post_impl_mremap
0000000000482020 T __sanitizer_syscall_post_impl_msgctl
0000000000481ef0 T __sanitizer_syscall_post_impl_msgget
0000000000482000 T __sanitizer_syscall_post_impl_msgrcv
0000000000481fe0 T __sanitizer_syscall_post_impl_msgsnd
000000000047f6f0 T __sanitizer_syscall_post_impl_msync
000000000047f750 T __sanitizer_syscall_post_impl_munlock
000000000047f790 T __sanitizer_syscall_post_impl_munlockall
000000000047f710 T __sanitizer_syscall_post_impl_munmap
00000000004853b0 T __sanitizer_syscall_post_impl_name_to_handle_at
000000000047c3c0 T __sanitizer_syscall_post_impl_nanosleep
000000000047e1a0 T __sanitizer_syscall_post_impl_newfstat
0000000000484b50 T __sanitizer_syscall_post_impl_newfstatat
000000000047e180 T __sanitizer_syscall_post_impl_newlstat
000000000047e080 T __sanitizer_syscall_post_impl_newstat
0000000000481cf0 T __sanitizer_syscall_post_impl_newuname
0000000000482ec0 T __sanitizer_syscall_post_impl_ni_syscall
000000000047cf30 T __sanitizer_syscall_post_impl_nice
0000000000481d70 T __sanitizer_syscall_post_impl_old_getrlimit
0000000000485390 T __sanitizer_syscall_post_impl_old_mmap
0000000000485120 T __sanitizer_syscall_post_impl_old_readdir
0000000000481ad0 T __sanitizer_syscall_post_impl_old_select
000000000047d9f0 T __sanitizer_syscall_post_impl_oldumount
0000000000481d30 T __sanitizer_syscall_post_impl_olduname
0000000000480cd0 T __sanitizer_syscall_post_impl_open
00000000004853d0 T __sanitizer_syscall_post_impl_open_by_handle_at
0000000000484a50 T __sanitizer_syscall_post_impl_openat
000000000047d8c0 T __sanitizer_syscall_post_impl_pause
0000000000482920 T __sanitizer_syscall_post_impl_pciconfig_iobase
0000000000482940 T __sanitizer_syscall_post_impl_pciconfig_read
0000000000482960 T __sanitizer_syscall_post_impl_pciconfig_write
0000000000485350 T __sanitizer_syscall_post_impl_perf_event_open
000000000047cab0 T __sanitizer_syscall_post_impl_personality
00000000004803c0 T __sanitizer_syscall_post_impl_pipe
00000000004803e0 T __sanitizer_syscall_post_impl_pipe2
000000000047f9d0 T __sanitizer_syscall_post_impl_pivot_root
0000000000481a90 T __sanitizer_syscall_post_impl_poll
0000000000485230 T __sanitizer_syscall_post_impl_ppoll
0000000000481220 T __sanitizer_syscall_post_impl_pread64
0000000000481330 T __sanitizer_syscall_post_impl_preadv
0000000000481e90 T __sanitizer_syscall_post_impl_prlimit64
0000000000485410 T __sanitizer_syscall_post_impl_process_vm_readv
0000000000485430 T __sanitizer_syscall_post_impl_process_vm_writev
0000000000485140 T __sanitizer_syscall_post_impl_pselect6
0000000000483110 T __sanitizer_syscall_post_impl_ptrace
0000000000481310 T __sanitizer_syscall_post_impl_pwrite64
0000000000481350 T __sanitizer_syscall_post_impl_pwritev
00000000004817d0 T __sanitizer_syscall_post_impl_quotactl
000000000047c2c0 T __sanitizer_syscall_post_impl_read
0000000000480ac0 T __sanitizer_syscall_post_impl_readlink
0000000000484d50 T __sanitizer_syscall_post_impl_readlinkat
00000000004810f0 T __sanitizer_syscall_post_impl_readv
000000000047d2a0 T __sanitizer_syscall_post_impl_reboot
00000000004819d0 T __sanitizer_syscall_post_impl_recv
00000000004819f0 T __sanitizer_syscall_post_impl_recvfrom
000000000047c1c0 T __sanitizer_syscall_post_impl_recvmmsg
000000000047c0d0 T __sanitizer_syscall_post_impl_recvmsg
000000000047f6d0 T __sanitizer_syscall_post_impl_remap_file_pages
000000000047f380 T __sanitizer_syscall_post_impl_removexattr
0000000000480240 T __sanitizer_syscall_post_impl_rename
0000000000484550 T __sanitizer_syscall_post_impl_renameat
0000000000483580 T __sanitizer_syscall_post_impl_request_key
000000000047d2c0 T __sanitizer_syscall_post_impl_restart_syscall
00000000004816a0 T __sanitizer_syscall_post_impl_rmdir
0000000000485ab0 T __sanitizer_syscall_post_impl_rt_sigaction
000000000047d5e0 T __sanitizer_syscall_post_impl_rt_sigpending
000000000047d5c0 T __sanitizer_syscall_post_impl_rt_sigprocmask
000000000047d840 T __sanitizer_syscall_post_impl_rt_sigqueueinfo
000000000047d7a0 T __sanitizer_syscall_post_impl_rt_sigtimedwait
000000000047d7c0 T __sanitizer_syscall_post_impl_rt_tgsigqueueinfo
000000000047d1e0 T __sanitizer_syscall_post_impl_sched_get_priority_max
000000000047d200 T __sanitizer_syscall_post_impl_sched_get_priority_min
000000000047d1a0 T __sanitizer_syscall_post_impl_sched_getaffinity
000000000047d090 T __sanitizer_syscall_post_impl_sched_getparam
000000000047d070 T __sanitizer_syscall_post_impl_sched_getscheduler
000000000047d220 T __sanitizer_syscall_post_impl_sched_rr_get_interval
000000000047d180 T __sanitizer_syscall_post_impl_sched_setaffinity
000000000047d050 T __sanitizer_syscall_post_impl_sched_setparam
000000000047cf50 T __sanitizer_syscall_post_impl_sched_setscheduler
000000000047d1c0 T __sanitizer_syscall_post_impl_sched_yield
0000000000481ab0 T __sanitizer_syscall_post_impl_select
0000000000482080 T __sanitizer_syscall_post_impl_semctl
0000000000482040 T __sanitizer_syscall_post_impl_semget
0000000000482060 T __sanitizer_syscall_post_impl_semop
0000000000482180 T __sanitizer_syscall_post_impl_semtimedop
0000000000481950 T __sanitizer_syscall_post_impl_send
00000000004809a0 T __sanitizer_syscall_post_impl_sendfile
00000000004809c0 T __sanitizer_syscall_post_impl_sendfile64
00000000004819b0 T __sanitizer_syscall_post_impl_sendmmsg
0000000000481990 T __sanitizer_syscall_post_impl_sendmsg
0000000000481970 T __sanitizer_syscall_post_impl_sendto
0000000000483600 T __sanitizer_syscall_post_impl_set_mempolicy
0000000000484f20 T __sanitizer_syscall_post_impl_set_robust_list
000000000047d3a0 T __sanitizer_syscall_post_impl_set_tid_address
0000000000481cc0 T __sanitizer_syscall_post_impl_setdomainname
000000000047c660 T __sanitizer_syscall_post_impl_setfsgid
000000000047c640 T __sanitizer_syscall_post_impl_setfsuid
000000000047c5a0 T __sanitizer_syscall_post_impl_setgid
000000000047c6c0 T __sanitizer_syscall_post_impl_setgroups
0000000000481c90 T __sanitizer_syscall_post_impl_sethostname
000000000047cb30 T __sanitizer_syscall_post_impl_setitimer
00000000004853f0 T __sanitizer_syscall_post_impl_setns
000000000047c680 T __sanitizer_syscall_post_impl_setpgid
000000000047d240 T __sanitizer_syscall_post_impl_setpriority
000000000047c580 T __sanitizer_syscall_post_impl_setregid
000000000047c620 T __sanitizer_syscall_post_impl_setresgid
000000000047c600 T __sanitizer_syscall_post_impl_setresuid
000000000047c5c0 T __sanitizer_syscall_post_impl_setreuid
0000000000481d90 T __sanitizer_syscall_post_impl_setrlimit
000000000047c6a0 T __sanitizer_syscall_post_impl_setsid
0000000000481830 T __sanitizer_syscall_post_impl_setsockopt
000000000047c340 T __sanitizer_syscall_post_impl_settimeofday
000000000047c5e0 T __sanitizer_syscall_post_impl_setuid
000000000047e680 T __sanitizer_syscall_post_impl_setxattr
000000000047d860 T __sanitizer_syscall_post_impl_sgetmask
00000000004821a0 T __sanitizer_syscall_post_impl_shmat
0000000000482240 T __sanitizer_syscall_post_impl_shmctl
00000000004821f0 T __sanitizer_syscall_post_impl_shmdt
00000000004821d0 T __sanitizer_syscall_post_impl_shmget
000000000047d280 T __sanitizer_syscall_post_impl_shutdown
00000000004857b0 T __sanitizer_syscall_post_impl_sigaction
0000000000485d80 T __sanitizer_syscall_post_impl_sigaltstack
000000000047d8a0 T __sanitizer_syscall_post_impl_signal
0000000000484f60 T __sanitizer_syscall_post_impl_signalfd
0000000000484f80 T __sanitizer_syscall_post_impl_signalfd4
000000000047cad0 T __sanitizer_syscall_post_impl_sigpending
000000000047caf0 T __sanitizer_syscall_post_impl_sigprocmask
0000000000481a10 T __sanitizer_syscall_post_impl_socket
0000000000481a50 T __sanitizer_syscall_post_impl_socketcall
0000000000481a30 T __sanitizer_syscall_post_impl_socketpair
0000000000484ea0 T __sanitizer_syscall_post_impl_splice
0000000000483ce0 T __sanitizer_syscall_post_impl_spu_create
0000000000483be0 T __sanitizer_syscall_post_impl_spu_run
000000000047d880 T __sanitizer_syscall_post_impl_ssetmask
000000000047dc20 T __sanitizer_syscall_post_impl_stat
000000000047e2c0 T __sanitizer_syscall_post_impl_stat64
000000000047dd20 T __sanitizer_syscall_post_impl_statfs
000000000047de20 T __sanitizer_syscall_post_impl_statfs64
000000000047c300 T __sanitizer_syscall_post_impl_stime
0000000000482b60 T __sanitizer_syscall_post_impl_swapoff
0000000000482a60 T __sanitizer_syscall_post_impl_swapon
000000000047ff70 T __sanitizer_syscall_post_impl_symlink
00000000004841b0 T __sanitizer_syscall_post_impl_symlinkat
000000000047d8e0 T __sanitizer_syscall_post_impl_sync
0000000000485250 T __sanitizer_syscall_post_impl_syncfs
0000000000482d30 T __sanitizer_syscall_post_impl_sysctl
0000000000482d70 T __sanitizer_syscall_post_impl_sysfs
0000000000482d50 T __sanitizer_syscall_post_impl_sysinfo
0000000000482d90 T __sanitizer_syscall_post_impl_syslog
0000000000484ee0 T __sanitizer_syscall_post_impl_tee
000000000047d800 T __sanitizer_syscall_post_impl_tgkill
000000000047c2e0 T __sanitizer_syscall_post_impl_time
000000000047cb50 T __sanitizer_syscall_post_impl_timer_create
000000000047ccb0 T __sanitizer_syscall_post_impl_timer_delete
000000000047cb90 T __sanitizer_syscall_post_impl_timer_getoverrun
000000000047cb70 T __sanitizer_syscall_post_impl_timer_gettime
000000000047cc90 T __sanitizer_syscall_post_impl_timer_settime
0000000000484fa0 T __sanitizer_syscall_post_impl_timerfd_create
00000000004850c0 T __sanitizer_syscall_post_impl_timerfd_gettime
00000000004850a0 T __sanitizer_syscall_post_impl_timerfd_settime
000000000047c380 T __sanitizer_syscall_post_impl_times
000000000047d820 T __sanitizer_syscall_post_impl_tkill
000000000047db00 T __sanitizer_syscall_post_impl_truncate
0000000000481ed0 T __sanitizer_syscall_post_impl_umask
000000000047d9c0 T __sanitizer_syscall_post_impl_umount
0000000000481d10 T __sanitizer_syscall_post_impl_uname
0000000000480070 T __sanitizer_syscall_post_impl_unlink
0000000000483fe0 T __sanitizer_syscall_post_impl_unlinkat
0000000000484e80 T __sanitizer_syscall_post_impl_unshare
0000000000482ea0 T __sanitizer_syscall_post_impl_uselib
000000000047e1c0 T __sanitizer_syscall_post_impl_ustat
0000000000481050 T __sanitizer_syscall_post_impl_utime
0000000000484e60 T __sanitizer_syscall_post_impl_utimensat
0000000000481080 T __sanitizer_syscall_post_impl_utimes
0000000000485470 T __sanitizer_syscall_post_impl_vfork
0000000000480e10 T __sanitizer_syscall_post_impl_vhangup
0000000000484ec0 T __sanitizer_syscall_post_impl_vmsplice
000000000047d340 T __sanitizer_syscall_post_impl_wait4
000000000047d360 T __sanitizer_syscall_post_impl_waitid
000000000047d380 T __sanitizer_syscall_post_impl_waitpid
00000000004811e0 T __sanitizer_syscall_post_impl_write
0000000000481200 T __sanitizer_syscall_post_impl_writev
00000000004818c0 T __sanitizer_syscall_pre_impl_accept
00000000004818e0 T __sanitizer_syscall_pre_impl_accept4
0000000000480d00 T __sanitizer_syscall_pre_impl_access
000000000047c6d0 T __sanitizer_syscall_pre_impl_acct
0000000000483120 T __sanitizer_syscall_pre_impl_add_key
000000000047c350 T __sanitizer_syscall_pre_impl_adjtimex
000000000047c3d0 T __sanitizer_syscall_pre_impl_alarm
000000000047d930 T __sanitizer_syscall_pre_impl_bdflush
0000000000481880 T __sanitizer_syscall_pre_impl_bind
000000000047f660 T __sanitizer_syscall_pre_impl_brk
000000000047c7d0 T __sanitizer_syscall_pre_impl_capget
000000000047c8d0 T __sanitizer_syscall_pre_impl_capset
0000000000481490 T __sanitizer_syscall_pre_impl_chdir
0000000000480250 T __sanitizer_syscall_pre_impl_chmod
0000000000480e20 T __sanitizer_syscall_pre_impl_chown
000000000047f9e0 T __sanitizer_syscall_pre_impl_chroot
000000000047cde0 T __sanitizer_syscall_pre_impl_clock_adjtime
000000000047ce00 T __sanitizer_syscall_pre_impl_clock_getres
000000000047cdc0 T __sanitizer_syscall_pre_impl_clock_gettime
000000000047ce20 T __sanitizer_syscall_pre_impl_clock_nanosleep
000000000047ccc0 T __sanitizer_syscall_pre_impl_clock_settime
0000000000480ce0 T __sanitizer_syscall_pre_impl_close
00000000004818a0 T __sanitizer_syscall_pre_impl_connect
0000000000480ae0 T __sanitizer_syscall_pre_impl_creat
000000000047d4b0 T __sanitizer_syscall_pre_impl_delete_module
00000000004803f0 T __sanitizer_syscall_pre_impl_dup
0000000000480410 T __sanitizer_syscall_pre_impl_dup2
0000000000480430 T __sanitizer_syscall_pre_impl_dup3
0000000000481ae0 T __sanitizer_syscall_pre_impl_epoll_create
0000000000481b00 T __sanitizer_syscall_pre_impl_epoll_create1
0000000000481b20 T __sanitizer_syscall_pre_impl_epoll_ctl
0000000000481b60 T __sanitizer_syscall_pre_impl_epoll_pwait
0000000000481b40 T __sanitizer_syscall_pre_impl_epoll_wait
00000000004850d0 T __sanitizer_syscall_pre_impl_eventfd
00000000004850f0 T __sanitizer_syscall_pre_impl_eventfd2
000000000047d2f0 T __sanitizer_syscall_pre_impl_exit
000000000047d310 T __sanitizer_syscall_pre_impl_exit_group
0000000000484660 T __sanitizer_syscall_pre_impl_faccessat
0000000000481590 T __sanitizer_syscall_pre_impl_fchdir
0000000000480350 T __sanitizer_syscall_pre_impl_fchmod
0000000000484760 T __sanitizer_syscall_pre_impl_fchmodat
0000000000481020 T __sanitizer_syscall_pre_impl_fchown
0000000000484860 T __sanitizer_syscall_pre_impl_fchownat
0000000000480370 T __sanitizer_syscall_pre_impl_fcntl
0000000000480390 T __sanitizer_syscall_pre_impl_fcntl64
000000000047d910 T __sanitizer_syscall_pre_impl_fdatasync
000000000047eea0 T __sanitizer_syscall_pre_impl_fgetxattr
000000000047f1a0 T __sanitizer_syscall_pre_impl_flistxattr
0000000000480490 T __sanitizer_syscall_pre_impl_flock
0000000000485440 T __sanitizer_syscall_pre_impl_fork
000000000047f560 T __sanitizer_syscall_pre_impl_fremovexattr
000000000047e930 T __sanitizer_syscall_pre_impl_fsetxattr
000000000047df70 T __sanitizer_syscall_pre_impl_fstat
000000000047e2d0 T __sanitizer_syscall_pre_impl_fstat64
0000000000484b60 T __sanitizer_syscall_pre_impl_fstatat64
000000000047de30 T __sanitizer_syscall_pre_impl_fstatfs
000000000047de50 T __sanitizer_syscall_pre_impl_fstatfs64
000000000047d8f0 T __sanitizer_syscall_pre_impl_fsync
000000000047db10 T __sanitizer_syscall_pre_impl_ftruncate
0000000000484560 T __sanitizer_syscall_pre_impl_futimesat
0000000000483a50 T __sanitizer_syscall_pre_impl_get_mempolicy
0000000000484ef0 T __sanitizer_syscall_pre_impl_get_robust_list
0000000000484f30 T __sanitizer_syscall_pre_impl_getcpu
0000000000481360 T __sanitizer_syscall_pre_impl_getcwd
00000000004817e0 T __sanitizer_syscall_pre_impl_getdents
0000000000481800 T __sanitizer_syscall_pre_impl_getdents64
000000000047c490 T __sanitizer_syscall_pre_impl_getegid
000000000047c450 T __sanitizer_syscall_pre_impl_geteuid
000000000047c470 T __sanitizer_syscall_pre_impl_getgid
000000000047c550 T __sanitizer_syscall_pre_impl_getgroups
0000000000481c50 T __sanitizer_syscall_pre_impl_gethostname
000000000047cb00 T __sanitizer_syscall_pre_impl_getitimer
0000000000481920 T __sanitizer_syscall_pre_impl_getpeername
000000000047c4f0 T __sanitizer_syscall_pre_impl_getpgid
000000000047c510 T __sanitizer_syscall_pre_impl_getpgrp
000000000047c3f0 T __sanitizer_syscall_pre_impl_getpid
000000000047c410 T __sanitizer_syscall_pre_impl_getppid
000000000047d250 T __sanitizer_syscall_pre_impl_getpriority
0000000000485ac0 T __sanitizer_syscall_pre_impl_getrandom
000000000047c4d0 T __sanitizer_syscall_pre_impl_getresgid
000000000047c4b0 T __sanitizer_syscall_pre_impl_getresuid
0000000000481d40 T __sanitizer_syscall_pre_impl_getrlimit
0000000000481ea0 T __sanitizer_syscall_pre_impl_getrusage
000000000047c530 T __sanitizer_syscall_pre_impl_getsid
0000000000481900 T __sanitizer_syscall_pre_impl_getsockname
0000000000481850 T __sanitizer_syscall_pre_impl_getsockopt
000000000047c390 T __sanitizer_syscall_pre_impl_gettid
000000000047c310 T __sanitizer_syscall_pre_impl_gettimeofday
000000000047c430 T __sanitizer_syscall_pre_impl_getuid
000000000047eb00 T __sanitizer_syscall_pre_impl_getxattr
000000000047d3b0 T __sanitizer_syscall_pre_impl_init_module
0000000000483ab0 T __sanitizer_syscall_pre_impl_inotify_add_watch
0000000000483a70 T __sanitizer_syscall_pre_impl_inotify_init
0000000000483a90 T __sanitizer_syscall_pre_impl_inotify_init1
0000000000483bb0 T __sanitizer_syscall_pre_impl_inotify_rm_watch
0000000000480970 T __sanitizer_syscall_pre_impl_io_cancel
00000000004805f0 T __sanitizer_syscall_pre_impl_io_destroy
0000000000480610 T __sanitizer_syscall_pre_impl_io_getevents
00000000004804b0 T __sanitizer_syscall_pre_impl_io_setup
0000000000480710 T __sanitizer_syscall_pre_impl_io_submit
0000000000480470 T __sanitizer_syscall_pre_impl_ioctl
0000000000480450 T __sanitizer_syscall_pre_impl_ioperm
00000000004835d0 T __sanitizer_syscall_pre_impl_ioprio_get
00000000004835b0 T __sanitizer_syscall_pre_impl_ioprio_set
0000000000482210 T __sanitizer_syscall_pre_impl_ipc
000000000047d2d0 T __sanitizer_syscall_pre_impl_kexec_load
0000000000483590 T __sanitizer_syscall_pre_impl_keyctl
000000000047d7d0 T __sanitizer_syscall_pre_impl_kill
0000000000480f20 T __sanitizer_syscall_pre_impl_lchown
000000000047ecd0 T __sanitizer_syscall_pre_impl_lgetxattr
000000000047fbe0 T __sanitizer_syscall_pre_impl_link
00000000004841c0 T __sanitizer_syscall_pre_impl_linkat
0000000000481a60 T __sanitizer_syscall_pre_impl_listen
000000000047efa0 T __sanitizer_syscall_pre_impl_listxattr
000000000047f0a0 T __sanitizer_syscall_pre_impl_llistxattr
00000000004810c0 T __sanitizer_syscall_pre_impl_llseek
00000000004816b0 T __sanitizer_syscall_pre_impl_lookup_dcookie
000000000047f390 T __sanitizer_syscall_pre_impl_lremovexattr
00000000004810a0 T __sanitizer_syscall_pre_impl_lseek
000000000047e690 T __sanitizer_syscall_pre_impl_lsetxattr
000000000047de70 T __sanitizer_syscall_pre_impl_lstat
000000000047e2f0 T __sanitizer_syscall_pre_impl_lstat64
000000000047f7a0 T __sanitizer_syscall_pre_impl_madvise
0000000000483a30 T __sanitizer_syscall_pre_impl_mbind
0000000000483610 T __sanitizer_syscall_pre_impl_migrate_pages
000000000047f7c0 T __sanitizer_syscall_pre_impl_mincore
0000000000481390 T __sanitizer_syscall_pre_impl_mkdir
0000000000483df0 T __sanitizer_syscall_pre_impl_mkdirat
000000000047fae0 T __sanitizer_syscall_pre_impl_mknod
0000000000483cf0 T __sanitizer_syscall_pre_impl_mknodat
000000000047f720 T __sanitizer_syscall_pre_impl_mlock
000000000047f760 T __sanitizer_syscall_pre_impl_mlockall
0000000000485360 T __sanitizer_syscall_pre_impl_mmap_pgoff
000000000047d950 T __sanitizer_syscall_pre_impl_mount
0000000000483860 T __sanitizer_syscall_pre_impl_move_pages
000000000047f680 T __sanitizer_syscall_pre_impl_mprotect
0000000000482810 T __sanitizer_syscall_pre_impl_mq_getsetattr
0000000000482710 T __sanitizer_syscall_pre_impl_mq_notify
0000000000482250 T __sanitizer_syscall_pre_impl_mq_open
0000000000482610 T __sanitizer_syscall_pre_impl_mq_timedreceive
0000000000482450 T __sanitizer_syscall_pre_impl_mq_timedsend
0000000000482350 T __sanitizer_syscall_pre_impl_mq_unlink
000000000047f6a0 T __sanitizer_syscall_pre_impl_mremap
0000000000482010 T __sanitizer_syscall_pre_impl_msgctl
0000000000481ee0 T __sanitizer_syscall_pre_impl_msgget
0000000000481ff0 T __sanitizer_syscall_pre_impl_msgrcv
0000000000481f00 T __sanitizer_syscall_pre_impl_msgsnd
000000000047f6e0 T __sanitizer_syscall_pre_impl_msync
000000000047f740 T __sanitizer_syscall_pre_impl_munlock
000000000047f780 T __sanitizer_syscall_pre_impl_munlockall
000000000047f700 T __sanitizer_syscall_pre_impl_munmap
00000000004853a0 T __sanitizer_syscall_pre_impl_name_to_handle_at
000000000047c3b0 T __sanitizer_syscall_pre_impl_nanosleep
000000000047e190 T __sanitizer_syscall_pre_impl_newfstat
0000000000484a60 T __sanitizer_syscall_pre_impl_newfstatat
000000000047e090 T __sanitizer_syscall_pre_impl_newlstat
000000000047df90 T __sanitizer_syscall_pre_impl_newstat
0000000000481ce0 T __sanitizer_syscall_pre_impl_newuname
0000000000482eb0 T __sanitizer_syscall_pre_impl_ni_syscall
000000000047cf20 T __sanitizer_syscall_pre_impl_nice
0000000000481d60 T __sanitizer_syscall_pre_impl_old_getrlimit
0000000000485380 T __sanitizer_syscall_pre_impl_old_mmap
0000000000485110 T __sanitizer_syscall_pre_impl_old_readdir
0000000000481ac0 T __sanitizer_syscall_pre_impl_old_select
000000000047d9e0 T __sanitizer_syscall_pre_impl_oldumount
0000000000481d20 T __sanitizer_syscall_pre_impl_olduname
0000000000480be0 T __sanitizer_syscall_pre_impl_open
00000000004853c0 T __sanitizer_syscall_pre_impl_open_by_handle_at
0000000000484960 T __sanitizer_syscall_pre_impl_openat
000000000047d8b0 T __sanitizer_syscall_pre_impl_pause
0000000000482910 T __sanitizer_syscall_pre_impl_pciconfig_iobase
0000000000482930 T __sanitizer_syscall_pre_impl_pciconfig_read
0000000000482950 T __sanitizer_syscall_pre_impl_pciconfig_write
0000000000485260 T __sanitizer_syscall_pre_impl_perf_event_open
000000000047caa0 T __sanitizer_syscall_pre_impl_personality
00000000004803b0 T __sanitizer_syscall_pre_impl_pipe
00000000004803d0 T __sanitizer_syscall_pre_impl_pipe2
000000000047f810 T __sanitizer_syscall_pre_impl_pivot_root
0000000000481a80 T __sanitizer_syscall_pre_impl_poll
0000000000485150 T __sanitizer_syscall_pre_impl_ppoll
0000000000481210 T __sanitizer_syscall_pre_impl_pread64
0000000000481320 T __sanitizer_syscall_pre_impl_preadv
0000000000481da0 T __sanitizer_syscall_pre_impl_prlimit64
0000000000485400 T __sanitizer_syscall_pre_impl_process_vm_readv
0000000000485420 T __sanitizer_syscall_pre_impl_process_vm_writev
0000000000485130 T __sanitizer_syscall_pre_impl_pselect6
0000000000482ed0 T __sanitizer_syscall_pre_impl_ptrace
0000000000481230 T __sanitizer_syscall_pre_impl_pwrite64
0000000000481340 T __sanitizer_syscall_pre_impl_pwritev
00000000004816e0 T __sanitizer_syscall_pre_impl_quotactl
000000000047c1d0 T __sanitizer_syscall_pre_impl_read
00000000004809d0 T __sanitizer_syscall_pre_impl_readlink
0000000000484c60 T __sanitizer_syscall_pre_impl_readlinkat
00000000004810e0 T __sanitizer_syscall_pre_impl_readv
000000000047d290 T __sanitizer_syscall_pre_impl_reboot
00000000004819c0 T __sanitizer_syscall_pre_impl_recv
00000000004819e0 T __sanitizer_syscall_pre_impl_recvfrom
000000000047c0e0 T __sanitizer_syscall_pre_impl_recvmmsg
000000000047bf70 T __sanitizer_syscall_pre_impl_recvmsg
000000000047f6c0 T __sanitizer_syscall_pre_impl_remap_file_pages
000000000047f1c0 T __sanitizer_syscall_pre_impl_removexattr
0000000000480080 T __sanitizer_syscall_pre_impl_rename
0000000000484390 T __sanitizer_syscall_pre_impl_renameat
00000000004832f0 T __sanitizer_syscall_pre_impl_request_key
000000000047d2b0 T __sanitizer_syscall_pre_impl_restart_syscall
00000000004815b0 T __sanitizer_syscall_pre_impl_rmdir
00000000004857c0 T __sanitizer_syscall_pre_impl_rt_sigaction
000000000047d5d0 T __sanitizer_syscall_pre_impl_rt_sigpending
000000000047d5b0 T __sanitizer_syscall_pre_impl_rt_sigprocmask
000000000047d830 T __sanitizer_syscall_pre_impl_rt_sigqueueinfo
000000000047d5f0 T __sanitizer_syscall_pre_impl_rt_sigtimedwait
000000000047d7b0 T __sanitizer_syscall_pre_impl_rt_tgsigqueueinfo
000000000047d1d0 T __sanitizer_syscall_pre_impl_sched_get_priority_max
000000000047d1f0 T __sanitizer_syscall_pre_impl_sched_get_priority_min
000000000047d190 T __sanitizer_syscall_pre_impl_sched_getaffinity
000000000047d080 T __sanitizer_syscall_pre_impl_sched_getparam
000000000047d060 T __sanitizer_syscall_pre_impl_sched_getscheduler
000000000047d210 T __sanitizer_syscall_pre_impl_sched_rr_get_interval
000000000047d0a0 T __sanitizer_syscall_pre_impl_sched_setaffinity
000000000047cf60 T __sanitizer_syscall_pre_impl_sched_setparam
000000000047cf40 T __sanitizer_syscall_pre_impl_sched_setscheduler
000000000047d1b0 T __sanitizer_syscall_pre_impl_sched_yield
0000000000481aa0 T __sanitizer_syscall_pre_impl_select
0000000000482070 T __sanitizer_syscall_pre_impl_semctl
0000000000482030 T __sanitizer_syscall_pre_impl_semget
0000000000482050 T __sanitizer_syscall_pre_impl_semop
0000000000482090 T __sanitizer_syscall_pre_impl_semtimedop
0000000000481940 T __sanitizer_syscall_pre_impl_send
0000000000480990 T __sanitizer_syscall_pre_impl_sendfile
00000000004809b0 T __sanitizer_syscall_pre_impl_sendfile64
00000000004819a0 T __sanitizer_syscall_pre_impl_sendmmsg
0000000000481980 T __sanitizer_syscall_pre_impl_sendmsg
0000000000481960 T __sanitizer_syscall_pre_impl_sendto
00000000004835f0 T __sanitizer_syscall_pre_impl_set_mempolicy
0000000000484f10 T __sanitizer_syscall_pre_impl_set_robust_list
000000000047d390 T __sanitizer_syscall_pre_impl_set_tid_address
0000000000481cb0 T __sanitizer_syscall_pre_impl_setdomainname
000000000047c650 T __sanitizer_syscall_pre_impl_setfsgid
000000000047c630 T __sanitizer_syscall_pre_impl_setfsuid
000000000047c590 T __sanitizer_syscall_pre_impl_setgid
000000000047c6b0 T __sanitizer_syscall_pre_impl_setgroups
0000000000481c80 T __sanitizer_syscall_pre_impl_sethostname
000000000047cb20 T __sanitizer_syscall_pre_impl_setitimer
00000000004853e0 T __sanitizer_syscall_pre_impl_setns
000000000047c670 T __sanitizer_syscall_pre_impl_setpgid
000000000047d230 T __sanitizer_syscall_pre_impl_setpriority
000000000047c570 T __sanitizer_syscall_pre_impl_setregid
000000000047c610 T __sanitizer_syscall_pre_impl_setresgid
000000000047c5f0 T __sanitizer_syscall_pre_impl_setresuid
000000000047c5b0 T __sanitizer_syscall_pre_impl_setreuid
0000000000481d80 T __sanitizer_syscall_pre_impl_setrlimit
000000000047c690 T __sanitizer_syscall_pre_impl_setsid
0000000000481820 T __sanitizer_syscall_pre_impl_setsockopt
000000000047c330 T __sanitizer_syscall_pre_impl_settimeofday
000000000047c5d0 T __sanitizer_syscall_pre_impl_setuid
000000000047e3f0 T __sanitizer_syscall_pre_impl_setxattr
000000000047d850 T __sanitizer_syscall_pre_impl_sgetmask
0000000000482190 T __sanitizer_syscall_pre_impl_shmat
0000000000482230 T __sanitizer_syscall_pre_impl_shmctl
00000000004821e0 T __sanitizer_syscall_pre_impl_shmdt
00000000004821c0 T __sanitizer_syscall_pre_impl_shmget
000000000047d270 T __sanitizer_syscall_pre_impl_shutdown
0000000000485480 T __sanitizer_syscall_pre_impl_sigaction
0000000000485bc0 T __sanitizer_syscall_pre_impl_sigaltstack
000000000047d890 T __sanitizer_syscall_pre_impl_signal
0000000000484f50 T __sanitizer_syscall_pre_impl_signalfd
0000000000484f70 T __sanitizer_syscall_pre_impl_signalfd4
000000000047cac0 T __sanitizer_syscall_pre_impl_sigpending
000000000047cae0 T __sanitizer_syscall_pre_impl_sigprocmask
0000000000481a00 T __sanitizer_syscall_pre_impl_socket
0000000000481a40 T __sanitizer_syscall_pre_impl_socketcall
0000000000481a20 T __sanitizer_syscall_pre_impl_socketpair
0000000000484e90 T __sanitizer_syscall_pre_impl_splice
0000000000483bf0 T __sanitizer_syscall_pre_impl_spu_create
0000000000483bd0 T __sanitizer_syscall_pre_impl_spu_run
000000000047d870 T __sanitizer_syscall_pre_impl_ssetmask
000000000047db30 T __sanitizer_syscall_pre_impl_stat
000000000047e1d0 T __sanitizer_syscall_pre_impl_stat64
000000000047dc30 T __sanitizer_syscall_pre_impl_statfs
000000000047dd30 T __sanitizer_syscall_pre_impl_statfs64
000000000047c2f0 T __sanitizer_syscall_pre_impl_stime
0000000000482a70 T __sanitizer_syscall_pre_impl_swapoff
0000000000482970 T __sanitizer_syscall_pre_impl_swapon
000000000047fdb0 T __sanitizer_syscall_pre_impl_symlink
0000000000483ff0 T __sanitizer_syscall_pre_impl_symlinkat
000000000047d8d0 T __sanitizer_syscall_pre_impl_sync
0000000000485240 T __sanitizer_syscall_pre_impl_syncfs
0000000000482b70 T __sanitizer_syscall_pre_impl_sysctl
0000000000482d60 T __sanitizer_syscall_pre_impl_sysfs
0000000000482d40 T __sanitizer_syscall_pre_impl_sysinfo
0000000000482d80 T __sanitizer_syscall_pre_impl_syslog
0000000000484ed0 T __sanitizer_syscall_pre_impl_tee
000000000047d7f0 T __sanitizer_syscall_pre_impl_tgkill
000000000047c2d0 T __sanitizer_syscall_pre_impl_time
000000000047cb40 T __sanitizer_syscall_pre_impl_timer_create
000000000047cca0 T __sanitizer_syscall_pre_impl_timer_delete
000000000047cb80 T __sanitizer_syscall_pre_impl_timer_getoverrun
000000000047cb60 T __sanitizer_syscall_pre_impl_timer_gettime
000000000047cba0 T __sanitizer_syscall_pre_impl_timer_settime
0000000000484f90 T __sanitizer_syscall_pre_impl_timerfd_create
00000000004850b0 T __sanitizer_syscall_pre_impl_timerfd_gettime
0000000000484fb0 T __sanitizer_syscall_pre_impl_timerfd_settime
000000000047c370 T __sanitizer_syscall_pre_impl_times
000000000047d810 T __sanitizer_syscall_pre_impl_tkill
000000000047da10 T __sanitizer_syscall_pre_impl_truncate
0000000000481ec0 T __sanitizer_syscall_pre_impl_umask
000000000047d9b0 T __sanitizer_syscall_pre_impl_umount
0000000000481d00 T __sanitizer_syscall_pre_impl_uname
000000000047ff80 T __sanitizer_syscall_pre_impl_unlink
0000000000483ef0 T __sanitizer_syscall_pre_impl_unlinkat
0000000000484e70 T __sanitizer_syscall_pre_impl_unshare
0000000000482db0 T __sanitizer_syscall_pre_impl_uselib
000000000047e1b0 T __sanitizer_syscall_pre_impl_ustat
0000000000481040 T __sanitizer_syscall_pre_impl_utime
0000000000484d70 T __sanitizer_syscall_pre_impl_utimensat
0000000000481070 T __sanitizer_syscall_pre_impl_utimes
0000000000485460 T __sanitizer_syscall_pre_impl_vfork
0000000000480e00 T __sanitizer_syscall_pre_impl_vhangup
0000000000484eb0 T __sanitizer_syscall_pre_impl_vmsplice
000000000047d330 T __sanitizer_syscall_pre_impl_wait4
000000000047d350 T __sanitizer_syscall_pre_impl_waitid
000000000047d370 T __sanitizer_syscall_pre_impl_waitpid
0000000000481100 T __sanitizer_syscall_pre_impl_write
00000000004811f0 T __sanitizer_syscall_pre_impl_writev
000000000049dde0 T __sanitizer_unaligned_load16
000000000049de70 T __sanitizer_unaligned_load32
000000000049df00 T __sanitizer_unaligned_load64
000000000049df90 T __sanitizer_unaligned_store16
000000000049e030 T __sanitizer_unaligned_store32
000000000049e0d0 T __sanitizer_unaligned_store64
000000000049eaa0 T __sanitizer_verify_contiguous_container
0000000000436c10 W __sanitizer_weak_hook_memcmp
0000000000434fd0 W __sanitizer_weak_hook_memmem
0000000000433ac0 W __sanitizer_weak_hook_strcasecmp
0000000000434680 W __sanitizer_weak_hook_strcasestr
0000000000433300 W __sanitizer_weak_hook_strcmp
0000000000433e60 W __sanitizer_weak_hook_strncasecmp
00000000004336c0 W __sanitizer_weak_hook_strncmp
00000000004342b0 W __sanitizer_weak_hook_strstr
                 U __sched_cpucount@GLIBC_2.6
                 U __signgam@GLIBC_2.23
000000000043fea0 W __snprintf_chk
000000000043fcf0 W __sprintf_chk
0000000000487450 W __strdup
0000000000432ee0 W __strndup
0000000000475bb0 W __strxfrm_l
0000000000463630 W __tls_get_addr
00000000004c77d0 W __ubsan_default_options
00000000004cc2a0 T __ubsan_get_current_report_data
00000000004c8530 T __ubsan_handle_add_overflow
00000000004c88b0 T __ubsan_handle_add_overflow_abort
00000000004c7eb0 T __ubsan_handle_alignment_assumption
00000000004c84e0 T __ubsan_handle_alignment_assumption_abort
00000000004c9900 T __ubsan_handle_builtin_unreachable
00000000004ce290 T __ubsan_handle_cfi_bad_type
00000000004cbbd0 T __ubsan_handle_cfi_check_fail
00000000004cc110 T __ubsan_handle_cfi_check_fail_abort
00000000004c8d40 T __ubsan_handle_divrem_overflow
00000000004c9070 T __ubsan_handle_divrem_overflow_abort
00000000004cdbc0 T __ubsan_handle_dynamic_type_cache_miss
00000000004ce240 T __ubsan_handle_dynamic_type_cache_miss_abort
00000000004c9e20 T __ubsan_handle_float_cast_overflow
00000000004ca0f0 T __ubsan_handle_float_cast_overflow_abort
00000000004ce8b0 T __ubsan_handle_function_type_mismatch_v1
00000000004cec10 T __ubsan_handle_function_type_mismatch_v1_abort
00000000004ca3d0 T __ubsan_handle_implicit_conversion
00000000004ca870 T __ubsan_handle_implicit_conversion_abort
00000000004ca8b0 T __ubsan_handle_invalid_builtin
00000000004caad0 T __ubsan_handle_invalid_builtin_abort
00000000004cab10 T __ubsan_handle_invalid_objc_cast
00000000004cad50 T __ubsan_handle_invalid_objc_cast_abort
00000000004ca130 T __ubsan_handle_load_invalid_value
00000000004ca390 T __ubsan_handle_load_invalid_value_abort
00000000004c9a70 T __ubsan_handle_missing_return
00000000004c89a0 T __ubsan_handle_mul_overflow
00000000004c89f0 T __ubsan_handle_mul_overflow_abort
00000000004c8a40 T __ubsan_handle_negate_overflow
00000000004c8d00 T __ubsan_handle_negate_overflow_abort
00000000004cb1a0 T __ubsan_handle_nonnull_arg
00000000004cb4d0 T __ubsan_handle_nonnull_arg_abort
00000000004cad90 T __ubsan_handle_nonnull_return_v1
00000000004cb0b0 T __ubsan_handle_nonnull_return_v1_abort
00000000004cb520 T __ubsan_handle_nullability_arg
00000000004cb570 T __ubsan_handle_nullability_arg_abort
00000000004cb100 T __ubsan_handle_nullability_return_v1
00000000004cb150 T __ubsan_handle_nullability_return_v1_abort
00000000004c96b0 T __ubsan_handle_out_of_bounds
00000000004c98c0 T __ubsan_handle_out_of_bounds_abort
00000000004cb5c0 T __ubsan_handle_pointer_overflow
00000000004cbb90 T __ubsan_handle_pointer_overflow_abort
00000000004c90b0 T __ubsan_handle_shift_out_of_bounds
00000000004c9670 T __ubsan_handle_shift_out_of_bounds_abort
00000000004c8900 T __ubsan_handle_sub_overflow
00000000004c8950 T __ubsan_handle_sub_overflow_abort
00000000004c7820 T __ubsan_handle_type_mismatch_v1
00000000004c7e70 T __ubsan_handle_type_mismatch_v1_abort
00000000004c9be0 T __ubsan_handle_vla_bound_not_positive
00000000004c9de0 T __ubsan_handle_vla_bound_not_positive_abort
00000000004cc290 W __ubsan_on_report
0000000000e6fc20 B __ubsan_vptr_type_cache
000000000046f0e0 W __uflow
000000000046f120 W __underflow
00000000005c7cb0 d __unnamed_1
00000000005c8030 d __unnamed_1
00000000005c81f0 d __unnamed_1
00000000005c83b0 d __unnamed_1
00000000005c83f0 d __unnamed_1
00000000005c85b0 d __unnamed_1
00000000005c8cf0 d __unnamed_1
00000000005c91f0 d __unnamed_1
000000000043e970 W __vsnprintf_chk
000000000043ed90 W __vsprintf_chk
0000000000476580 W __wcsxfrm_l
000000000046f220 W __woverflow
000000000046f1a0 W __wuflow
000000000046f1e0 W __wunderflow
00000000004538b0 W __xpg_strerror_r
00000000004730c0 W __xstat
0000000000473440 W __xstat64
0000000000420830 T _dl_relocate_static_pie
00000000005c9ab0 D _edata
0000000000ef0240 B _end
0000000000458230 W _exit
0000000000576694 T _fini
0000000000420000 T _init
0000000000486100 W _longjmp
0000000000470a50 W _obstack_begin
00000000004709f0 W _obstack_begin_1
0000000000470ab0 W _obstack_newchunk
0000000000420800 T _start
                 U abort@GLIBC_2.2.5
000000000044aad0 W accept
000000000044ae70 W accept4
0000000000e6f948 B acquire_my_map_info_list
000000000049bfb0 W aligned_alloc
00000000004cf930 t asan.module_ctor
00000000004d2b80 t asan.module_ctor
00000000004e1fc0 t asan.module_ctor
00000000004e8630 t asan.module_ctor
00000000004e9e50 t asan.module_ctor
0000000000506600 t asan.module_ctor
00000000005329d0 t asan.module_ctor
00000000005467e0 t asan.module_ctor
00000000004cf960 t asan.module_dtor
00000000004d2bb0 t asan.module_dtor
00000000004e1ff0 t asan.module_dtor
00000000004e8660 t asan.module_dtor
00000000004e9e80 t asan.module_dtor
0000000000506630 t asan.module_dtor
0000000000532a00 t asan.module_dtor
0000000000546810 t asan.module_dtor
000000000043afb0 W asctime
000000000043b360 W asctime_r
000000000043ff70 W asprintf
0000000000576680 T atexit
0000000000487c00 W atoi
0000000000487eb0 W atol
0000000000488230 W atoll
0000000000457b70 W backtrace
0000000000457d50 W backtrace_symbols
0000000000437270 W bcmp
0000000000466b00 W bzero
000000000049b7c0 W calloc
0000000000452da0 W canonicalize_file_name
00000000004662a0 W capget
00000000004665e0 W capset
000000000049b530 W cfree
0000000000444160 W clock_getcpuclockid
0000000000443ba0 W clock_getres
0000000000443d90 W clock_gettime
0000000000443f90 W clock_settime
00000000005c9cf0 b completed.0
00000000004530d0 W confstr
000000000047ace0 W crypt
000000000047b000 W crypt_r
0000000000472620 W ctermid
000000000043a8d0 W ctime
000000000043ac40 W ctime_r
00000000005c5250 W data_start
0000000000420840 t deregister_tm_clones
                 U dl_iterate_phdr@GLIBC_2.2.5
0000000000470f10 W dlclose
                 U dlerror@GLIBC_2.34
0000000000470cf0 W dlopen
                 U dlsym@GLIBC_2.34
                 U dlvsym@GLIBC_2.34
0000000000461890 W drand48_r
0000000000443b60 W endgrent
0000000000443ae0 W endpwent
000000000045a490 W ether_aton
000000000045b600 W ether_aton_r
000000000045a9f0 W ether_hostton
000000000045ad80 W ether_line
000000000045a280 W ether_ntoa
000000000045b280 W ether_ntoa_r
000000000045a660 W ether_ntohost
0000000000472e60 W eventfd_read
0000000000473080 W eventfd_write
0000000000470bc0 W fclose
000000000046f590 W fdopen
0000000000470af0 W fflush
0000000000443110 W fgetgrent
0000000000443850 W fgetgrent_r
00000000004430a0 W fgetpwent
0000000000443600 W fgetpwent_r
00000000004395c0 W fgets
00000000004648d0 W fgetxattr
0000000000463d60 W flistxattr
00000000004709a0 W fmemopen
000000000046f260 W fopen
000000000046fab0 W fopen64
0000000000471760 W fopencookie
000000000043f990 W fprintf
00000000004397b0 W fputs
00000000004208e0 t frame_dummy
0000000000437e80 W fread
000000000049b3e0 W free
000000000046f760 W freopen
000000000046fdd0 W freopen64
0000000000437680 W frexp
0000000000437890 W frexpf
0000000000437aa0 W frexpl
000000000043d5c0 W fscanf
0000000000458f60 W fstatfs
0000000000459480 W fstatfs64
00000000004599a0 W fstatvfs
0000000000459ec0 W fstatvfs64
0000000000466cf0 W ftime
0000000000438a70 W fwrite
0000000000450100 W get_current_dir_name
00000000004474d0 W getaddrinfo
                 U getauxval@GLIBC_2.16
000000000044ff20 W getcwd
00000000004628f0 W getdelim
0000000000443030 W getgrent
00000000004433c0 W getgrent_r
0000000000442350 W getgrgid
0000000000442d70 W getgrgid_r
0000000000441920 W getgrnam
00000000004429c0 W getgrnam_r
00000000004548c0 W getgroups
00000000004492b0 W gethostbyaddr
0000000000449da0 W gethostbyaddr_r
0000000000448780 W gethostbyname
0000000000449540 W gethostbyname2
000000000044a300 W gethostbyname2_r
00000000004495b0 W gethostbyname_r
00000000004494b0 W gethostent
00000000004499b0 W gethostent_r
0000000000465590 W getifaddrs
0000000000444390 W getitimer
0000000000461ed0 W getline
0000000000474370 W getloadavg
00000000004583b0 W getmntent
0000000000458b90 W getmntent_r
0000000000448040 W getnameinfo
0000000000470f60 W getpass
000000000044dea0 W getpeername
00000000004786f0 W getprotobyname
0000000000478bb0 W getprotobyname_r
00000000004788e0 W getprotobynumber
0000000000478f60 W getprotobynumber_r
0000000000477f70 W getprotoent
0000000000478970 W getprotoent_r
0000000000442fc0 W getpwent
0000000000443180 W getpwent_r
0000000000440e10 W getpwnam
00000000004423c0 W getpwnam_r
00000000004418b0 W getpwuid
0000000000442770 W getpwuid_r
000000000047ab10 W getrandom
00000000004650e0 W getresgid
0000000000464c30 W getresuid
                 U getrlimit@GLIBC_2.2.5
                 U getrusage@GLIBC_2.2.5
00000000004483f0 W getsockname
000000000044a710 W getsockopt
                 U gettimeofday@GLIBC_2.2.5
                 U getuid@GLIBC_2.2.5
000000000047a930 W getusershell
0000000000473ec0 W getutent
0000000000473f00 W getutid
0000000000473f40 W getutline
0000000000473f80 W getutxent
0000000000473fc0 W getutxid
0000000000474000 W getutxline
0000000000463f50 W getxattr
0000000000444dd0 W glob
0000000000445650 W glob64
000000000043a470 W gmtime
000000000043a6a0 W gmtime_r
0000000000462e00 W iconv
0000000000465ef0 W if_indextoname
00000000004660d0 W if_nametoindex
0000000000435320 W index
0000000000446da0 W inet_aton
00000000004466d0 W inet_ntop
0000000000446a30 W inet_pton
000000000045a0a0 W initgroups
0000000000440490 W ioctl
                 U isatty@GLIBC_2.2.5
0000000000460be0 W lgamma
0000000000461240 W lgamma_r
0000000000460e00 W lgammaf
0000000000461460 W lgammaf_r
0000000000461020 W lgammal
0000000000461680 W lgammal_r
0000000000464410 W lgetxattr
00000000004636a0 W listxattr
0000000000463a00 W llistxattr
0000000000439e20 W localtime
000000000043a240 W localtime_r
00000000004860d0 W longjmp
0000000000461ab0 W lrand48_r
00000000004cf0c0 T main
000000000049c0e0 W mallinfo
000000000049b650 W malloc
000000000049c4a0 W malloc_stats
000000000049c0b0 W malloc_usable_size
000000000049c100 W mallopt
0000000000450eb0 W mbsnrtowcs
00000000004509a0 W mbsrtowcs
00000000004507b0 W mbstowcs
0000000000474540 W mcheck
0000000000474550 W mcheck_pedantic
000000000049bda0 W memalign
00000000004372d0 W memchr
0000000000437210 W memcmp
0000000000436820 W memcpy
0000000000434fe0 W memmem
00000000004364f0 W memmove
00000000004374a0 W memrchr
0000000000436300 W memset
0000000000472280 W mincore
000000000043b710 W mktime
0000000000471660 W mlock
00000000004716e0 W mlockall
0000000000477de0 W mmap
0000000000477ee0 W mmap64
000000000044b220 W modf
000000000044b440 W modff
000000000044b660 W modfl
0000000000474560 W mprobe
0000000000477e70 W mprotect
000000000044dca0 W msgrcv
000000000044dab0 W msgsnd
00000000004716a0 W munlock
0000000000471720 W munlockall
0000000000476f40 W name_to_handle_at
00000000004778e0 W open_by_handle_at
0000000000470120 W open_memstream
0000000000470560 W open_wmemstream
000000000044e290 W opendir
000000000047a800 W pclose
                 U pipe@GLIBC_2.2.5
0000000000454aa0 W poll
000000000047a4c0 W popen
000000000049c110 W posix_memalign
0000000000455210 W ppoll
0000000000439b40 W prctl
0000000000438060 W pread
0000000000438240 W pread64
0000000000438780 W preadv
0000000000438810 W preadv64
000000000043f850 W printf
00000000004724c0 W process_vm_readv
0000000000472570 W process_vm_writev
                 U pthread_attr_destroy@GLIBC_2.2.5
000000000045d0f0 W pthread_attr_getaffinity_np
000000000045bdf0 W pthread_attr_getdetachstate
000000000045c020 W pthread_attr_getguardsize
000000000045cec0 W pthread_attr_getinheritsched
000000000045caa0 W pthread_attr_getschedparam
000000000045cc90 W pthread_attr_getschedpolicy
000000000045c250 W pthread_attr_getscope
000000000045c6b0 W pthread_attr_getstack
000000000045c480 W pthread_attr_getstacksize
                 U pthread_attr_init@GLIBC_2.2.5
                 U pthread_attr_setstacksize@GLIBC_2.34
000000000045e8c0 W pthread_barrierattr_getpshared
000000000045e690 W pthread_condattr_getclock
000000000045e460 W pthread_condattr_getpshared
0000000000485d90 W pthread_create
                 U pthread_getattr_np@GLIBC_2.32
000000000045f840 W pthread_getname_np
00000000004470f0 W pthread_getschedparam
                 U pthread_getspecific@GLIBC_2.34
0000000000485ec0 W pthread_join
                 U pthread_key_create@GLIBC_2.34
00000000004582b0 W pthread_mutex_lock
00000000004582f0 W pthread_mutex_unlock
000000000045d970 W pthread_mutexattr_getprioceiling
000000000045d740 W pthread_mutexattr_getprotocol
000000000045d2e0 W pthread_mutexattr_getpshared
000000000045dba0 W pthread_mutexattr_getrobust
000000000045ddd0 W pthread_mutexattr_getrobust_np
000000000045d510 W pthread_mutexattr_gettype
000000000045e230 W pthread_rwlockattr_getkind_np
000000000045e000 W pthread_rwlockattr_getpshared
                 U pthread_self@GLIBC_2.2.5
0000000000471e20 W pthread_setcancelstate
0000000000472050 W pthread_setcanceltype
000000000045f650 W pthread_setname_np
                 U pthread_setspecific@GLIBC_2.34
0000000000457850 W pthread_sigmask
000000000044ef10 W ptrace
000000000045eeb0 W ptsname
000000000045eef0 W ptsname_r
0000000000439980 W puts
0000000000474040 W pututxline
000000000049c3b0 W pvalloc
0000000000438c50 W pwrite
0000000000438e30 W pwrite64
00000000004394a0 W pwritev
0000000000439530 W pwritev64
000000000047b4c0 W qsort
000000000047b800 W qsort_r
                 U rand@GLIBC_2.2.5
0000000000461cd0 W rand_r
000000000045bbc0 W random_r
0000000000437cb0 W read
000000000044e450 W readdir
000000000044e9b0 W readdir64
000000000044eb80 W readdir64_r
000000000044e620 W readdir_r
00000000004768d0 W readlink
0000000000476c00 W readlinkat
0000000000438420 W readv
0000000000443f70 T real_clock_gettime
000000000045ca90 T real_pthread_attr_getstack
000000000049b940 W realloc
000000000049bc50 W reallocarray
0000000000452a20 W realpath
0000000000472660 W recv
0000000000472840 W recvfrom
000000000044bf10 W recvmmsg
000000000044b870 W recvmsg
0000000000479770 W regcomp
0000000000479f90 W regerror
0000000000479ac0 W regexec
000000000047a2f0 W regfree
0000000000420870 t register_tm_clones
0000000000e6f950 B release_my_map_info_list
0000000000460570 W remquo
0000000000460790 W remquof
00000000004609b0 W remquol
0000000000453aa0 W scandir
00000000004541b0 W scandir64
000000000043d470 W scanf
00000000004532b0 W sched_getaffinity
00000000004534a0 W sched_getparam
                 U sched_yield@GLIBC_2.2.5
0000000000471920 W sem_destroy
0000000000471bf0 W sem_getvalue
00000000004718d0 W sem_init
0000000000471bb0 W sem_post
00000000004719e0 W sem_timedwait
00000000004719a0 W sem_trywait
0000000000471960 W sem_wait
0000000000472a60 W send
000000000044d800 W sendmmsg
000000000044c300 W sendmsg
0000000000472c50 W sendto
0000000000479390 W setbuf
0000000000479560 W setbuffer
0000000000443b20 W setgrent
0000000000444580 W setitimer
0000000000479730 W setlinebuf
000000000044fbe0 W setlocale
0000000000443aa0 W setpwent
                 U setrlimit@GLIBC_2.2.5
00000000004791b0 W setvbuf
000000000045b990 W shmctl
000000000047bf20 W sigaction
000000000047bb20 W sigaltstack
0000000000456ab0 W sigandset
0000000000456730 W sigemptyset
00000000004568f0 W sigfillset
0000000000486160 W siglongjmp
000000000047bef0 W signal
                 U signgam@GLIBC_2.2.5
0000000000456f10 W sigorset
0000000000457370 W sigpending
0000000000457530 W sigprocmask
00000000004562a0 W sigtimedwait
0000000000455c10 W sigwait
0000000000455f80 W sigwaitinfo
000000000045fa30 W sincos
000000000045fdf0 W sincosf
00000000004601b0 W sincosl
                 U sleep@GLIBC_2.2.5
000000000043fdc0 W snprintf
000000000043fc10 W sprintf
                 U srand@GLIBC_2.2.5
000000000043d720 W sscanf
0000000000458c20 W statfs
0000000000459140 W statfs64
0000000000459660 W statvfs
0000000000459b80 W statvfs64
0000000000433ad0 W strcasecmp
0000000000434690 W strcasestr
0000000000486270 W strcat
0000000000435320 W strchr
0000000000435520 W strchrnul
0000000000433310 W strcmp
0000000000486d90 W strcpy
0000000000435c50 W strcspn
0000000000487180 W strdup
0000000000453680 W strerror
00000000004536d0 W strerror_r
0000000000432810 W strlen
0000000000433e70 W strncasecmp
00000000004867e0 W strncat
00000000004336d0 W strncmp
0000000000487720 W strncpy
0000000000432ca0 W strndup
0000000000432ac0 W strnlen
0000000000435f90 W strpbrk
000000000043c290 W strptime
0000000000435720 W strrchr
0000000000435910 W strspn
00000000004342c0 W strstr
00000000004502e0 W strtoimax
0000000000434730 W strtok
0000000000487b30 W strtol
0000000000488160 W strtoll
0000000000450720 W strtoumax
0000000000475530 W strxfrm
0000000000475870 W strxfrm_l
0000000000485ef0 W swapcontext
                 U sysconf@GLIBC_2.2.5
000000000044e0b0 W sysinfo
                 U syslog@GLIBC_2.2.5
0000000000452830 W tcgetattr
000000000045f310 W tempnam
0000000000433120 W textdomain
0000000000439c00 W time
0000000000471480 W timerfd_gettime
0000000000471130 W timerfd_settime
0000000000463450 W times
000000000045eaf0 W tmpnam
000000000045ecd0 W tmpnam_r
000000000046ee90 W tsearch
000000000045f0e0 W ttyname
000000000045f120 W ttyname_r
000000000047bd10 W uname
0000000000e6f958 B unwind_backtrace_signal_arch
                 U usleep@GLIBC_2.2.5
000000000049c2c0 W valloc
000000000043ef90 W vasprintf
00000000004a79f4 W vfork
000000000043e6c0 W vfprintf
000000000043d200 W vfscanf
000000000043dc90 W vprintf
000000000043c7f0 W vscanf
000000000043e750 W vsnprintf
000000000043eb90 W vsprintf
000000000043d160 W vsscanf
0000000000445970 W wait
0000000000445fa0 W wait3
0000000000446330 W wait4
0000000000445b80 W waitid
0000000000445d70 W waitpid
0000000000452260 W wcrtomb
0000000000474900 W wcscat
0000000000475220 W wcsdup
0000000000474570 W wcslen
0000000000474d80 W wcsncat
0000000000474730 W wcsnlen
0000000000451c00 W wcsnrtombs
0000000000451700 W wcsrtombs
0000000000451510 W wcstombs
0000000000475ef0 W wcsxfrm
0000000000476230 W wcsxfrm_l
0000000000452600 W wctomb
0000000000455580 W wordexp
00000000004388a0 W write
0000000000439010 W writev
000000000046c240 W xdr_bool
000000000046d8c0 W xdr_bytes
000000000046c9c0 W xdr_char
000000000046ee00 W xdr_destroy
000000000046d4d0 W xdr_double
000000000046c5d0 W xdr_enum
000000000046d0e0 W xdr_float
0000000000468c40 W xdr_hyper
0000000000467c80 W xdr_int
000000000046a320 W xdr_int16_t
000000000046aaa0 W xdr_int32_t
000000000046b280 W xdr_int64_t
0000000000469c00 W xdr_int8_t
0000000000468460 W xdr_long
0000000000469420 W xdr_longlong_t
000000000046ba60 W xdr_quad_t
0000000000467500 W xdr_short
000000000046e2a0 W xdr_string
000000000046cd50 W xdr_u_char
0000000000469030 W xdr_u_hyper
0000000000468070 W xdr_u_int
0000000000468850 W xdr_u_long
0000000000469810 W xdr_u_longlong_t
000000000046be50 W xdr_u_quad_t
00000000004678c0 W xdr_u_short
000000000046a6e0 W xdr_uint16_t
000000000046ae90 W xdr_uint32_t
000000000046b670 W xdr_uint64_t
0000000000469f90 W xdr_uint8_t
0000000000466f00 W xdrmem_create
000000000046e940 W xdrrec_create
00000000004672b0 W xdrstdio_create

rsc/test_file/good_files/elf32:
08049f14 d _DYNAMIC
0804a000 d _GLOBAL_OFFSET_TABLE_
080484bc R _IO_stdin_used
         w _ITM_deregisterTMCloneTable
         w _ITM_registerTMCloneTable
         w _Jv_RegisterClasses
080485c4 r __FRAME_END__
080484d0 r __GNU_EH_FRAME_HDR
08049f10 d __JCR_END__
08049f10 d __JCR_LIST__
0804a01c D __TMC_END__
0804a01c B __bss_start
0804a014 D __data_start
080483c0 t __do_global_dtors_aux
08049f0c d __do_global_dtors_aux_fini_array_entry
0804a018 D __dso_handle
08049f08 d __frame_dummy_init_array_entry
         w __gmon_start__
08049f0c d __init_array_end
08049f08 d __init_array_start
080484a0 T __libc_csu_fini
08048440 T __libc_csu_init
         U __libc_start_main@@GLIBC_2.0
08048340 T __x86.get_pc_thunk.bx
0804a01c D _edata
0804a020 B _end
080484a4 T _fini
080484b8 R _fp_hw
080482a8 T _init
08048310 T _start
0804a01c b completed.7209
0804a014 W data_start
08048350 t deregister_tm_clones
080483e0 t frame_dummy
0804840b T main
         U puts@@GLIBC_2.0
08048380 t register_tm_clones

rsc/test_file/good_files/elf64:
0000000000003dc8 d _DYNAMIC
0000000000003fb8 d _GLOBAL_OFFSET_TABLE_
0000000000002000 R _IO_stdin_used
                 w _ITM_deregisterTMCloneTable
                 w _ITM_registerTMCloneTable
00000000000020f0 r __FRAME_END__
0000000000002010 r __GNU_EH_FRAME_HDR
0000000000004010 D __TMC_END__
000000000000038c r __abi_tag
0000000000004010 B __bss_start
                 w __cxa_finalize@GLIBC_2.2.5
0000000000004000 D __data_start
0000000000001100 t __do_global_dtors_aux
0000000000003dc0 d __do_global_dtors_aux_fini_array_entry
0000000000004008 D __dso_handle
0000000000003db8 d __frame_dummy_init_array_entry
                 w __gmon_start__
                 U __libc_start_main@GLIBC_2.34
0000000000004010 D _edata
0000000000004018 B _end
0000000000001168 T _fini
0000000000001000 T _init
0000000000001060 T _start
0000000000004010 b completed.0
0000000000004000 W data_start
0000000000001090 t deregister_tm_clones
0000000000001140 t frame_dummy
0000000000001149 T main
                 U puts@GLIBC_2.2.5
00000000000010c0 t register_tm_clones

rsc/test_file/good_files/elf_Haiku_GCC2_ls:
0001c2a7 r G_line
0002530c d UNKNOWN_SECURITY_CONTEXT
000258b8 D Version
00024fb8 a _DYNAMIC
00025080 a _GLOBAL_OFFSET_TABLE_
00024fac d __CTOR_END__
00024fa8 d __CTOR_LIST__
00024fb4 d __DTOR_END__
00024fb0 d __DTOR_LIST__
00021974 d __EH_FRAME_BEGIN__
00021974 d __FRAME_BEGIN__
00022ca0 d __FRAME_BEGIN__
00022cb4 d __FRAME_BEGIN__
00022cc8 d __FRAME_BEGIN__
00022d10 d __FRAME_BEGIN__
00022dfc d __FRAME_BEGIN__
00022e78 d __FRAME_BEGIN__
00022ed4 d __FRAME_BEGIN__
00022f18 d __FRAME_BEGIN__
00022f2c d __FRAME_BEGIN__
00022f58 d __FRAME_BEGIN__
00022fc8 d __FRAME_BEGIN__
00023000 d __FRAME_BEGIN__
00023050 d __FRAME_BEGIN__
000230e8 d __FRAME_BEGIN__
00023120 d __FRAME_BEGIN__
00023158 d __FRAME_BEGIN__
0002357c d __FRAME_BEGIN__
00023690 d __FRAME_BEGIN__
00023734 d __FRAME_BEGIN__
0002376c d __FRAME_BEGIN__
000237a4 d __FRAME_BEGIN__
0002386c d __FRAME_BEGIN__
000238c8 d __FRAME_BEGIN__
00023944 d __FRAME_BEGIN__
00023984 d __FRAME_BEGIN__
00023e48 d __FRAME_BEGIN__
00023f08 d __FRAME_BEGIN__
00023fe0 d __FRAME_BEGIN__
00023ff4 d __FRAME_BEGIN__
00024188 d __FRAME_BEGIN__
000241c0 d __FRAME_BEGIN__
0002422c d __FRAME_BEGIN__
000242b8 d __FRAME_BEGIN__
00024318 d __FRAME_BEGIN__
000243a8 d __FRAME_BEGIN__
000243e4 d __FRAME_BEGIN__
000244cc d __FRAME_BEGIN__
00024688 d __FRAME_BEGIN__
00024764 d __FRAME_BEGIN__
00024808 d __FRAME_BEGIN__
00024864 d __FRAME_BEGIN__
0002489c d __FRAME_BEGIN__
000248d4 d __FRAME_BEGIN__
00024a40 d __FRAME_BEGIN__
00024ba8 d __FRAME_BEGIN__
00024be4 d __FRAME_BEGIN__
00024c40 d __FRAME_BEGIN__
00024c74 d __FRAME_BEGIN__
00024cc8 d __FRAME_BEGIN__
00024d04 d __FRAME_BEGIN__
00024d60 d __FRAME_BEGIN__
00024da4 d __FRAME_BEGIN__
00024dfc d __FRAME_BEGIN__
00024e28 d __FRAME_BEGIN__
00024e60 d __FRAME_BEGIN__
00024e8c d __FRAME_BEGIN__
00024f20 d __FRAME_BEGIN__
00024f5c d __FRAME_BEGIN__
00024fa4 d __FRAME_END__
0000ce48 t __argmatch_die
         U __assert_fail
00025960 A __bss_start
         U __cmpdi2
         U __ctype_b
         U __ctype_get_mb_cur_max
         U __ctype_tolower
         U __ctype_toupper
         w __deregister_frame_info
         U __divdi3
0001bdd0 t __do_global_ctors_aux
0000482c t __do_global_dtors_aux
         U __fixunsxfdi
00019afc T __fpending
         U __freading
000252c8 D __gHaikuStartupCode
000049a8 t __haiku_init_after
00004964 t __haiku_init_before
00004a30 t __haiku_term_after
000049ec t __haiku_term_before
         U __main_thread_id
         U __moddi3
000208e0 r __mon_yday
         w __register_frame_info
         U __udivdi3
         U __umoddi3
0000d15c T __xargmatch_internal
         U _call_init_routines_
00025960 A _edata
000264e0 A _end
         U _errnop
         U _exit
0001be20 T _fini
000252d0 D _gSharedObjectHaikuABI
000252cc D _gSharedObjectHaikuVersion
0001774c t _getopt_initialize
000177e8 T _getopt_internal_r
000186ec T _getopt_long_only_r
0001866c T _getopt_long_r
0000412c T _init
         U _init_c_library_
000193e0 T _obstack_allocated_p
0001925c T _obstack_begin
000192a0 T _obstack_begin_1
000191c4 t _obstack_begin_worker
0001940c T _obstack_free
00019484 T _obstack_memory_used
000192ec T _obstack_newchunk
00004900 T _start
00025b60 b abmon
00004bf0 t abmon_init
         U abort
00025990 b active_dir_set
00007970 t add_ignore_pattern
0000ec60 t adjust_value
0000a93c t align_nstrftime
0000e5a0 t allocate_entry
0001033c T ambsalign
000259bc b any_has_acl
0000cd64 T areadlink_with_size
0000ce6c T argmatch
000258bc D argmatch_die
0000cfe8 T argmatch_invalid
0000d1c4 T argmatch_to_argument
0000d048 T argmatch_valid
         U argv_save
         U atexit
0000c668 t attach
000259d8 b author_width
0000d43c T base_len
00008a1c t basename_is_dot_or_dotdot
000145c4 t bkm_scale
00014a60 t bkm_scale
00014600 t bkm_scale_by_power
00014afc t bkm_scale_by_power
000258c4 d block_size_args
0001fe70 r block_size_opts
000259c4 b block_size_width
         U btowc
0000c84c t calculate_columns
0001914c t call_chunkfun
00019184 t call_freefun
         U calloc
00025a68 b caught_signals
000264cc b charset_aliases
00025a24 b check_symlink_color
0000e200 t check_tuning
00007af0 t clear_files
00019a84 t clear_ungetc_buffer_preserving_position
         U clock_gettime
0001093c T clone_quoting_options
0000d254 T close_stdout
0000d214 T close_stdout_set_file_name
0000d234 T close_stdout_set_ignore_EPIPE
000197bc T close_stream
         U closedir
0002577c d color_args
00025a20 b color_buf
00025470 d color_ext_list
000253b0 d color_indicator
000259a8 b color_symlink_as_referent
0001d850 r color_types
00025a7c b column_info
0002598c b column_info_alloc.602
000252c4 d completed.4
0000e2a8 t compute_bucket_size
000259b0 b current_time
00025994 b cwd_file
00025998 b cwd_n_alloc
0002599c b cwd_n_used
00005730 t decode_switches
0000f8d8 t default_block_size
00026340 b default_quoting_options
0001fd40 r default_tuning
00025a2c b dereference
00004ce4 t dev_ino_compare
00004d18 t dev_ino_free
00004cb4 t dev_ino_hash
00025b20 b dev_ino_obstack
00004ad4 t dev_ino_pop
00004a74 t dev_ino_push
0000d33c T dir_len
00025a38 b directories_first
00025a14 b dired
00004b44 t dired_dump_obstack
00025aa0 b dired_obstack
00025a84 b dired_pos
         U dirfd
00025a50 b dirname_quoting_options
000140b8 T emit_bug_reporting_address
00015c44 t end_pattern
00016d30 t end_wpattern
00007bb0 t errno_unsupported
00015050 T error
000150b8 T error_at_line
000264d0 B error_message_count
000264d8 B error_one_per_line
000264d4 B error_print_progname
00014fc8 t error_tail
00017670 t exchange
         U exit
000258c0 D exit_failure
00025a78 b exit_status
00015d18 t ext_match
00016e1c t ext_wmatch
00008a6c t extract_dirs_from_files
00026300 b failed_strcoll
         U fclose
         U fcntl
         U ferror_unlocked
         U fflush
         U fflush_unlocked
00007354 t file_failure
0000d4a0 T file_has_acl
00007c54 t file_has_acl_cache
00025a10 b file_human_output_opts
00007a00 t file_ignored
00026320 b file_name
0000d6ac T file_name_concat
0002532c d file_output_block_size
000259e4 b file_size_width
0000d67c T filemodestring
00025a4c b filename_quoting_options
         U fileno
0002588c d filetype_indicator.577
0001d4a6 r filetype_letter
0000daa4 T filevercmp
         U find_thread
00004894 t fini_dummy
000257a4 d first.281
00014f20 t flush_stdout
000252c8 d force_to_data
00025960 d force_to_data
000259e8 b format
0002572c d format_args
0000ac30 t format_group
0000ad48 t format_group_width
0000ad8c t format_inode
00025a60 b format_needs_stat
00025a64 b format_needs_type
0001d7b8 r format_types
0000abdc t format_user
0000ab00 t format_user_or_group
0000ac84 t format_user_or_group_width
0000ad04 t format_user_width
         U fprintf
         U fputc
         U fputs
         U fputs_unlocked
000048ac t frame_dummy
         U free
00007ab8 t free_ent
0000e5e0 t free_entry
00004db4 t free_pending_ent
         U fseeko
00019b88 T fseterr
         U fstat@@LIBROOT_1_ALPHA1
0000d4ac t ftypelet
         U fwrite
         U fwrite_unlocked
0001985c t get_charset_aliases
0000699c t get_funky_string
         U get_image_symbol
000088f0 t get_link_name
00010988 T get_quoting_style
0000bc04 t get_type_indicator
         U getenv
00007298 t getenv_quoting_style
00007bec t getfilecon_cache
0000fd64 T getgidbyname
         U getgrgid
         U getgrnam
0000fc84 T getgroup
000264a0 b getopt_data
         U getpwnam
         U getpwuid
00010b0c t gettext_quote
0000dc0c T gettime
         U gettimeofday
0000fb5c T getuidbyname
0000fa7c T getuser
000173f8 T gnu_fnmatch
000103bc T gnu_mbswidth
00007d4c t gobble_file
00026330 b group_alist
0000ed58 t group_number
000259d4 b group_width
00018af4 t guess_time_tm
0000dc68 T hard_locale
00007a90 t has_capability
00007cd8 t has_capability_cache
0000e408 T hash_clear
0000eb1c T hash_delete
0000e07c T hash_do_for_each
0000e5fc t hash_find_entry
0000e4b4 T hash_free
0000e034 T hash_get_entries
0000df84 T hash_get_first
0000dd54 T hash_get_max_bucket_length
0000dd24 T hash_get_n_buckets
0000dd34 T hash_get_n_buckets_used
0000dd44 T hash_get_n_entries
0000dfcc T hash_get_next
0000e320 T hash_initialize
0000ead4 T hash_insert
0000e94c T hash_insert_if_absent
0000df1c T hash_lookup
0000ddf8 T hash_print_statistics
0000e810 T hash_rehash
0000e1a8 T hash_reset_tuning
0000e0e8 T hash_string
0000dda0 T hash_table_ok
00025a44 b hide_patterns
0000fa2c T human_options
00025a04 b human_output_opts
0000ee40 T human_readable
0000f918 t humblock
00026324 b ignore_EPIPE
00025a3c b ignore_mode
00025a40 b ignore_patterns
0000fe8c T imaxtostr
00025a34 b immediate_dirs
0000c5e4 t indent
0002534c d indicator_name
00025a18 b indicator_style
00025334 d indicator_style_args
0001d500 r indicator_style_types
0000c6b8 t init_column_info
000048e8 t init_dummy
0001be08 t init_dummy
0000a6d4 t initialize_ordering_vector
000259c0 b inode_number_width
00015194 t internal_fnmatch
0001635c t internal_fnwmatch
00025a70 b interrupt_signal
         U ioctl
000162d8 t is_char_class
00004df8 t is_colored
000088d0 t is_directory
00014ef0 t is_open
0000e11c t is_prime
         U isatty
00018914 t isdst_differ
         U iswcntrl
         U iswctype
         U iswprint
00006e80 t known_term_type
0000d3fc T last_component
0001889c t leapyear
0000c11c t length_of_file_name_and_frills
00025a5c b line_length
00019888 T locale_charset
         U localeconv
         U localtime
000264c8 b localtime_offset
         U localtime_r
0002547c d long_options
0000aa60 t long_time_expected_width
00025474 d long_time_format
0000d6e8 t longest_relative_suffix
         U longjmp
000258b4 D ls_mode
         U lseek
         U lstat@@LIBROOT_1_ALPHA1
00005030 T main
000259dc b major_device_number_width
00008940 t make_link_name
         U malloc
0000d81c t match_suffix
00025a80 b max_idx
         U mbrtowc
0001004c t mbs_align_pad
00010078 T mbsalign
         U mbsinit
00010430 T mbsnwidth
         U mbsrtowcs
         U mbstowcs
0000d384 T mdir_name
         U memchr
         U memcpy
00012208 t memcpy_lowcase
0001224c t memcpy_uppcase
         U memmove
00018868 T mempcpy
         U memset
0000d700 T mfile_name_concat
000259e0 b minor_device_number_width
00018c50 T mktime_internal
00010864 T mpsort
00010628 t mpsort_into_tmp
00010720 t mpsort_with_tmp
0000e15c t next_prime
         U nl_langinfo
000259c8 b nlink_width
00026334 b nogroup_alist
0002632c b nouser_alist
00025904 d nslots
00013d44 T nstrftime
000259fc b numeric_ids
00025960 b object.11
0002595c D obstack_alloc_failed_handler
00026480 b old_file_name.18
00026484 b old_line_number.19
         U opendir
0000d8bc t order
0001872c t orig_lstat
00019590 t orig_stat
00025a08 b output_block_size
000259d0 b owner_width
000252c0 d p.3
00006f64 t parse_ls_color
000079b0 t patterns_match
000259ac b pending_dirs
0001db47 r posix_prefix.256
00026488 b posixly_correct
0001fe00 r power_letter
0000ba54 t prep_non_filename_text
000194a8 t print_and_abort
000259f8 b print_author
00025a00 b print_block_size
0000bd54 t print_color_indicator
0000a854 t print_current_files
00007428 t print_dir
00025a58 b print_dir_name
00014f5c t print_errno_message
0000babc t print_file_name_and_frills
00025328 d print_group
0000c420 t print_horizontal
00025a28 b print_inode
0000adfc t print_long_format
0000c330 t print_many_per_line
0000b8ec t print_name_with_quoting
00025324 d print_owner
000259b8 b print_scontext
0000bcfc t print_type_indicator
00025a1c b print_with_color
0000c52c t print_with_commas
         U printf
0001b144 T printf_fetchargs
0001b27c T printf_parse
00004f68 t process_signals
000258d0 D program_name
0000c0cc t put_indicator
         U putc_unlocked
         U putchar_unlocked
00025a48 b qmark_funny_chars
000073a4 t queue_directory
000121e0 T quote
00012188 T quote_mem
000121b4 T quote_n
00012150 T quote_n_mem
0000b5cc t quote_name
00025920 D quote_quoting_options
00011e48 T quotearg
00011a98 T quotearg_alloc
00011ac8 T quotearg_alloc_mem
00011a2c T quotearg_buffer
00010bf0 t quotearg_buffer_restyled
00011fd4 T quotearg_char
00011f80 T quotearg_char_mem
00012004 T quotearg_colon
0001202c T quotearg_colon_mem
000120e8 T quotearg_custom
00012118 T quotearg_custom_mem
00011b98 T quotearg_free
00011e70 T quotearg_mem
00011de0 T quotearg_n
00012058 T quotearg_n_custom
00012090 T quotearg_n_custom_mem
00011e10 T quotearg_n_mem
00011c40 t quotearg_n_options
00011e9c T quotearg_n_style
00011ee0 T quotearg_n_style_mem
00011f24 T quotearg_style
00011f50 T quotearg_style_mem
00010abc t quoting_options_from_style
000258e0 D quoting_style_args
0001ff40 R quoting_style_vals
         U raise
00018b98 t ranged_convert
0000e1e8 t raw_comparator
0000e1d4 t raw_hasher
         U readdir
         U readlink
         U realloc
00025a30 b recursive
000262ec b required_mon_width
00004e78 t restore_default_color
00009630 t rev_strcmp_atime
00008d90 t rev_strcmp_ctime
00009894 t rev_strcmp_df_atime
00008ff4 t rev_strcmp_df_ctime
0000a4dc t rev_strcmp_df_extension
00009444 t rev_strcmp_df_mtime
0000a02c t rev_strcmp_df_name
00009d58 t rev_strcmp_df_size
0000a21c t rev_strcmp_extension
000091e0 t rev_strcmp_mtime
00009ea8 t rev_strcmp_name
00009abc t rev_strcmp_size
000095c4 t rev_xstrcoll_atime
00008d24 t rev_xstrcoll_ctime
000097ec t rev_xstrcoll_df_atime
00008f4c t rev_xstrcoll_df_ctime
0000a41c t rev_xstrcoll_df_extension
0000939c t rev_xstrcoll_df_mtime
00009fbc t rev_xstrcoll_df_name
00009ca4 t rev_xstrcoll_df_size
0000a668 t rev_xstrcoll_df_version
0000a19c t rev_xstrcoll_extension
00009174 t rev_xstrcoll_mtime
00009e74 t rev_xstrcoll_name
00009a3c t rev_xstrcoll_size
0000a5cc t rev_xstrcoll_version
00014e90 T rpl_calloc
000199d8 T rpl_fclose
00019ab4 T rpl_fflush
00019b10 T rpl_fseeko
000185f4 T rpl_getopt
00018568 T rpl_getopt_internal
0001862c T rpl_getopt_long
000186ac T rpl_getopt_long_only
00018758 T rpl_lstat
00018818 T rpl_mbrtowc
00019118 T rpl_mktime
000264dc B rpl_optarg
00025954 D rpl_opterr
00025950 D rpl_optind
00025958 D rpl_optopt
000194ec T rpl_readlink
000195bc T rpl_stat
000196ec T rpl_vfprintf
0000ded4 t safe_hasher
000259cc b scontext_width
000109d4 T set_char_quoting
00010a74 T set_custom_quoting
00007318 t set_exit_status
00004eb0 t set_normal_color
00010894 T set_program_name
00010a44 T set_quoting_flags
000109ac T set_quoting_style
         U setjmp
         U setlocale
0001d8e0 r sig.252
         U sigaction@@LIBROOT_1_ALPHA4
         U sigaddset@@LIBROOT_1_ALPHA4
         U sigemptyset@@LIBROOT_1_ALPHA4
00004f14 t sighandler
         U sigismember@@LIBROOT_1_ALPHA4
         U signal@@LIBROOT_1_ALPHA4
         U sigprocmask@@LIBROOT_1_ALPHA4
00026380 b slot0
00025910 d slotvec
00025908 d slotvec0
         U snprintf
0002574c d sort_args
0000a718 t sort_files
000257a8 d sort_functions
000259f4 b sort_reverse
000259f0 b sort_type
0001d7e0 r sort_types
000259a0 b sorted_file
000259a4 b sorted_file_alloc
         U sprintf
         U stat@@LIBROOT_1_ALPHA1
         U stderr
         U stdout
00025a74 b stop_signal_count
00004f3c t stophandler
         U stpcpy
00019660 T stpncpy
         U strcat
         U strchr
         U strcmp
00009558 t strcmp_atime
00008cb8 t strcmp_ctime
00009744 t strcmp_df_atime
00008ea4 t strcmp_df_ctime
0000a35c t strcmp_df_extension
000092f4 t strcmp_df_mtime
00009f4c t strcmp_df_name
00009bf0 t strcmp_df_size
0000a11c t strcmp_extension
00009108 t strcmp_mtime
00009e40 t strcmp_name
000099bc t strcmp_size
         U strcoll
         U strcpy
         U strdup
         U strerror_r
         U strftime
00012290 t strftime_case_
0000d534 T strmode
         U strncmp
         U strrchr
         U strstr
         U strtoul
         U strtoumax
00025ae0 b subdired_obstack
00025a54 b tabsize
         U tcgetpgrp
00025764 d time_args
00025310 d time_style_args
0001d4d0 r time_style_types
00018a94 t time_t_add_ok
00018a70 t time_t_avg
00018acc t time_t_int_add_ok
000259ec b time_type
0001d814 r time_types
         U towlower
0000e6ec t transfer_entries
0000ff38 T umaxtostr
00007a80 t unsigned_file_size
00025980 b unsupported_device.309
00025984 b unsupported_device.313
00025988 b unsupported_device.317
0000c9c4 T usage
00025348 d used_color
00026328 b user_alist
00019b98 T vasnprintf
0000d900 t verrevcmp
0001407c T version_etc
00013fcc T version_etc_ar
00013d88 T version_etc_arn
00020380 R version_etc_copyright
00014014 T version_etc_va
00004d40 t visit_dir
0000ff9c t wc_ensure_printable
0000fff0 t wc_truncate
         U wcscat
         U wcslen
         U wcstombs
         U wcswidth
         U wctype
         U wcwidth
00020940 r wide_null_string.3
00025888 d width.531
         U wmemchr
         U wmempcpy
000141b4 T x2nrealloc
000142f8 T x2realloc
00014440 T xalloc_die
0001435c T xcalloc
0001423c T xcharalloc
0001457c T xdectoumax
00014264 T xmalloc
00014394 T xmemdup
00014120 T xnmalloc
00014168 T xnrealloc
00014478 T xnumtoumax
000142a0 T xrealloc
00008bac t xstrcoll
000094ec t xstrcoll_atime
00008c4c t xstrcoll_ctime
0000969c t xstrcoll_df_atime
00008dfc t xstrcoll_df_ctime
0000a29c t xstrcoll_df_extension
0000924c t xstrcoll_df_mtime
00009edc t xstrcoll_df_name
00009b3c t xstrcoll_df_size
0000a5fc t xstrcoll_df_version
0000a09c t xstrcoll_extension
0000909c t xstrcoll_mtime
00009e0c t xstrcoll_name
0000993c t xstrcoll_size
0000a59c t xstrcoll_version
000143d0 T xstrdup
00014974 t xstrtol_error
00014a1c T xstrtol_fatal
00014648 T xstrtoul
00014b44 T xstrtoumax
00014324 T xzalloc
00018948 t ydhms_diff

rsc/test_file/good_files/elf_Haiku_GCC7_WebPositive:
0006a613 t .L1030
0006a5c7 t .L1031
0006a51f t .L1033
0006a3d8 t .L1034
0006a4f2 t .L1035
0006a4bf t .L1036
0006a5dd t .L1037
0006a5fd t .L1038
00062bcf t .L110
00062b52 t .L111
00062b8c t .L113
00062b70 t .L114
00062b7e t .L115
00062b97 t .L116
00062ba5 t .L117
00062bb3 t .L118
00062bc1 t .L119
00062d52 t .L142
00062d4e t .L143
0006ebaf t .L1448
0006e66b t .L1450
0006e6b9 t .L1451
0006e940 t .L1452
0006eb4e t .L1453
00062eb3 t .L146
00062de2 t .L147
00062e7b t .L149
00062e89 t .L150
00062e97 t .L151
00062ea5 t .L152
0003737d t .L23
00037365 t .L24
00037314 t .L26
0003724b t .L27
00037296 t .L28
000372fc t .L29
00037200 t .L30
00037224 t .L31
         U B_CURSOR_SYSTEM_DEFAULT@@LIBBE_BASE
         U B_MAIN_SCREEN_ID@@LIBBE_BASE
         U B_ORIGIN@@LIBBE_BASE
         U B_SOLID_HIGH@@LIBBE_BASE
         U B_SOLID_LOW@@LIBBE_BASE
         U B_TRANSPARENT_32_BIT@@LIBBE_BASE
         U B_TRANSPARENT_COLOR@@LIBBE_BASE
0008a850 d DW.ref.__gxx_personality_v0
0008901c d _DYNAMIC
00089124 d _GLOBAL_OFFSET_TABLE_
000412e5 t _GLOBAL__sub_I_BrowserApp.cpp
0004f022 t _GLOBAL__sub_I_BrowsingHistory.cpp
000523aa t _GLOBAL__sub_I_CredentialsStorage.cpp
0003dbb6 t _GLOBAL__sub_I_TabManager.cpp
         U _Unwind_Resume@@GCC_3.0
         U _Z10tint_color9rgb_colorf@@LIBBE_BASE
         U _Z10watch_nodePK8node_refm10BMessenger@@LIBBE_BASE
         U _Z10watch_nodePK8node_refmPK8BHandlerPK7BLooper@@LIBBE_BASE
         U _Z11get_key_mapPP7key_mapPPc@@LIBBE_BASE
         U _Z13stop_watching10BMessenger@@LIBBE_BASE
         U _Z13stop_watchingPK8BHandlerPK7BLooper@@LIBBE_BASE
         U _Z14find_directory15directory_whichP5BPathbP7BVolume@@LIBBE_BASE
         U _Z14get_font_stylePclPA64_cPm@@LIBBE_BASE
         U _Z15get_click_speedPx@@LIBBE_BASE
         U _Z15get_font_familylPA64_cPm@@LIBBE_BASE
         U _Z16create_directoryPKcj@@LIBBE_BASE
         U _Z16get_ref_for_pathPKcP9entry_ref@@LIBBE_BASE
         U _Z17count_font_stylesPc@@LIBBE_BASE
         U _Z17current_workspacev@@LIBBE_BASE
         U _Z19count_font_familiesv@@LIBBE_BASE
00037556 T _Z7baseURL7BString
         U _Z8ICompareRK7BStringS1_@@LIBBE_BASE
         U _Z8ui_color11color_which@@LIBBE_BASE
         U _Z9mix_color9rgb_colorS_h@@LIBBE_BASE
         U _Z9modifiersv@@LIBBE_BASE
0008aa80 b _ZGVZN13BLocaleRoster10GetCatalogEvE8sCatalog
000435a1 t _ZL11viewIsChildPK5BViewS1_
0008a940 b _ZL12kEmptyString
000747c0 r _ZL13kGoBitmapBits
00075960 r _ZL13kSystemKeymap
000432b3 t _ZL15addOrDeleteMenuP5BMenuS0_
00075000 r _ZL15kSystemKeyChars
000736e0 r _ZL15kWindowIconBits
00074640 r _ZL16kPlaceholderIcon
0008a8e4 d _ZL16sCatalogInitOnce
00086078 d _ZL17kHandledProtocols
00043f9c t _ZL22addItemToMenuOrSubmenuP5BMenuP9BMenuItem
         U _ZN10BClipboard4LockEv@@LIBBE_BASE
         U _ZN10BClipboard5ClearEv@@LIBBE_BASE
         U _ZN10BClipboard6CommitEv@@LIBBE_BASE
         U _ZN10BClipboard6UnlockEv@@LIBBE_BASE
00071174 T _ZN10BDateField13ClippedStringEv
0007114a T _ZN10BDateField16SetClippedStringEPKc
0007113e T _ZN10BDateField5WidthEv
00071196 T _ZN10BDateField7SecondsEv
00071130 T _ZN10BDateField8SetWidthEf
000711d6 T _ZN10BDateField8UnixTimeEv
0007107c T _ZN10BDateFieldC1EPl
0007107c T _ZN10BDateFieldC2EPl
000721a2 W _ZN10BDateFieldD0Ev
000720dc W _ZN10BDateFieldD1Ev
000720dc W _ZN10BDateFieldD2Ev
         U _ZN10BDirectory12GetNextEntryEP6BEntryb@@LIBBE_BASE
         U _ZN10BDirectoryC1EPK6BEntry@@LIBBE_BASE
         U _ZN10BDirectoryC1EPK8node_ref@@LIBBE_BASE
         U _ZN10BDirectoryC1EPK9entry_ref@@LIBBE_BASE
         U _ZN10BDirectoryC1EPKc@@LIBBE_BASE
         U _ZN10BDirectoryD1Ev@@LIBBE_BASE
         U _ZN10BFilePanel11SetSaveTextEPKc
         U _ZN10BFilePanel4ShowEv
         U _ZN10BFilePanelC1E15file_panel_modeP10BMessengerPK9entry_refmbP8BMessageP10BRefFilterbb
         U _ZN10BGroupView19_ReservedGroupView1Ev@@LIBBE_BASE
         U _ZN10BGroupView19_ReservedGroupView2Ev@@LIBBE_BASE
         U _ZN10BGroupView19_ReservedGroupView3Ev@@LIBBE_BASE
         U _ZN10BGroupView19_ReservedGroupView4Ev@@LIBBE_BASE
         U _ZN10BGroupView19_ReservedGroupView5Ev@@LIBBE_BASE
         U _ZN10BGroupView19_ReservedGroupView6Ev@@LIBBE_BASE
         U _ZN10BGroupView19_ReservedGroupView7Ev@@LIBBE_BASE
         U _ZN10BGroupView19_ReservedGroupView8Ev@@LIBBE_BASE
         U _ZN10BGroupView19_ReservedGroupView9Ev@@LIBBE_BASE
         U _ZN10BGroupView20_ReservedGroupView10Ev@@LIBBE_BASE
         U _ZN10BGroupView7PerformEmPv@@LIBBE_BASE
         U _ZN10BGroupView9SetLayoutEP7BLayout@@LIBBE_BASE
         U _ZN10BGroupViewC1E11orientationf@@LIBBE_BASE
         U _ZN10BGroupViewC2E11orientationf@@LIBBE_BASE
         U _ZN10BGroupViewD2Ev@@LIBBE_BASE
         U _ZN10BIconUtils13GetVectorIconEPKhmP7BBitmap@@LIBBE_BASE
         U _ZN10BMenuField21CreateLabelLayoutItemEv@@LIBBE_BASE
         U _ZN10BMenuField23CreateMenuBarLayoutItemEv@@LIBBE_BASE
         U _ZN10BMenuFieldC1EPKcS1_P5BMenum@@LIBBE_BASE
         U _ZN10BMessengerC1EPK8BHandlerPK7BLooperPl@@LIBBE_BASE
         U _ZN10BMessengerC1EPKclPl@@LIBBE_BASE
         U _ZN10BMessengerC1ERKS_@@LIBBE_BASE
         U _ZN10BMessengerC1Ev@@LIBBE_BASE
         U _ZN10BMessengerD1Ev@@LIBBE_BASE
         U _ZN10BMessengeraSERKS_@@LIBBE_BASE
         U _ZN10BPopUpMenu2GoE6BPointbb5BRectb@@LIBBE_BASE
         U _ZN10BPopUpMenu2GoE6BPointbbb@@LIBBE_BASE
         U _ZN10BPopUpMenuC1EPKcbb11menu_layout@@LIBBE_BASE
         U _ZN10BResources12LoadResourceEmlPm@@LIBBE_BASE
         U _ZN10BResourcesC1EPK9entry_refb@@LIBBE_BASE
         U _ZN10BResourcesD1Ev@@LIBBE_BASE
         U _ZN10BScrollBar13SetProportionEf@@LIBBE_BASE
         U _ZN10BScrollBar20SetBorderHighlightedEb@@LIBBE_BASE
         U _ZN10BScrollBar8SetRangeEff@@LIBBE_BASE
         U _ZN10BScrollBar8SetStepsEff@@LIBBE_BASE
         U _ZN10BScrollBar8SetValueEf@@LIBBE_BASE
         U _ZN10BScrollBarC1E5BRectPKcP5BViewff11orientation@@LIBBE_BASE
0007151e T _ZN10BSizeField4SizeEv
0007150a T _ZN10BSizeField7SetSizeEx
000714c8 T _ZN10BSizeFieldC1Ex
000714c8 T _ZN10BSizeFieldC2Ex
00072232 W _ZN10BSizeFieldD0Ev
00072118 W _ZN10BSizeFieldD1Ev
00072118 W _ZN10BSizeFieldD2Ev
         U _ZN10BStatusBarC1EPKcS1_S1_@@LIBBE_BASE
         U _ZN10BWebWindow15MessageReceivedEP8BMessage
         U _ZN10BWebWindow17MainDocumentErrorERK7BStringS2_P8BWebView
         U _ZN10BWebWindow17SetCurrentWebViewEP8BWebView
         U _ZN10BWebWindowC2E5BRectPKc11window_look11window_feelmm
         U _ZN10BWebWindowD2Ev
000426ee T _ZN10BrowserApp10ReadyToRunEv
000411fc T _ZN10BrowserApp11_ShowWindowEPK8BMessageP7BWindow
00041e40 T _ZN10BrowserApp12ArgvReceivedElPPc
000431f6 T _ZN10BrowserApp12RefsReceivedEP8BMessage
00041794 T _ZN10BrowserApp13QuitRequestedEv
000411ae T _ZN10BrowserApp13_CreateNewTabEP13BrowserWindowRK7BStringb
000423de T _ZN10BrowserApp13_RefsReceivedEP8BMessagePlPb
00040c1a T _ZN10BrowserApp14AboutRequestedEv
00040f74 T _ZN10BrowserApp14_CreateNewPageERK7BStringP13BrowserWindowbb
00042068 T _ZN10BrowserApp15MessageReceivedEP8BMessage
00040dc0 T _ZN10BrowserApp16_CreateNewWindowERK7BStringb
0004134e T _ZN10BrowserAppC1Ev
0004134e T _ZN10BrowserAppC2Ev
00040be6 T _ZN10BrowserAppD0Ev
00040b46 T _ZN10BrowserAppD1Ev
00040b46 T _ZN10BrowserAppD2Ev
00051ca4 W _ZN10DomainItemD0Ev
00051c76 W _ZN10DomainItemD1Ev
00051c76 W _ZN10DomainItemD2Ev
0003db1c T _ZN10TabManager10SetTabIconEPK5BViewPK7BBitmap
0003daae T _ZN10TabManager11SetTabLabelElPKc
0003db80 T _ZN10TabManager24SetCloseButtonsAvailableEb
0003d9d0 T _ZN10TabManager6AddTabEP5BViewPKcl
0003e286 T _ZN10TabManager8CloseTabEl
0003dada T _ZN10TabManager8TabLabelEl
0003da14 T _ZN10TabManager9RemoveTabEl
0003e24c T _ZN10TabManager9SelectTabEPK5BView
0003e1b2 T _ZN10TabManager9SelectTabEl
0003d886 T _ZN10TabManager9SetTargetERK10BMessenger
0003d34e T _ZN10TabManagerC1ERK10BMessengerP8BMessage
0003d34e T _ZN10TabManagerC2ERK10BMessengerP8BMessage
0003cdd6 T _ZN10TabManagerD0Ev
0003cd8e T _ZN10TabManagerD1Ev
0003cd8e T _ZN10TabManagerD2Ev
         U _ZN10WebKitInfo13WebKitVersionEv
         U _ZN10WebKitInfo18HaikuWebKitVersionEv
0003e050 T _ZN10WebTabView10MouseMovedE6BPointmPK8BMessage
0003dc56 T _ZN10WebTabView12DrawContentsEP5BView5BRectRKS2_bbb
0003cf9a T _ZN10WebTabView16_DrawCloseButtonEP5BViewR5BRectRKS2_bbb
0003dbf6 T _ZN10WebTabView7MaxSizeEv
0003e41a T _ZN10WebTabView7MouseUpE6BPoint
0003ced6 T _ZN10WebTabView7SetIconEPK7BBitmap
0003e326 T _ZN10WebTabView9MouseDownE6BPointm
0003ce3a T _ZN10WebTabViewC1EP20TabManagerController
0003ce3a T _ZN10WebTabViewC2EP20TabManagerController
0003ccd8 T _ZN10WebTabViewD0Ev
0003cc94 T _ZN10WebTabViewD1Ev
0003cc94 T _ZN10WebTabViewD2Ev
         U _ZN11BArchivable13AllUnarchivedEPK8BMessage@@LIBBE_BASE
         U _ZN11BArchivable20_ReservedArchivable3Ev@@LIBBE_BASE
         U _ZN11BArchivableD2Ev@@LIBBE_BASE
         U _ZN11BCardLayout14SetVisibleItemEl@@LIBBE_BASE
         U _ZN11BCardLayoutC1Ev@@LIBBE_BASE
000711a2 T _ZN11BDateColumn13CompareFieldsEP6BFieldS1_
000711e2 T _ZN11BDateColumn9DrawFieldEP6BField5BRectP5BView
00071446 T _ZN11BDateColumnC1EPKcfff9alignment
00071446 T _ZN11BDateColumnC2EPKcfff9alignment
0007244e W _ZN11BDateColumnD0Ev
00072006 W _ZN11BDateColumnD1Ev
00072006 W _ZN11BDateColumnD2Ev
         U _ZN11BLayoutItem16InvalidateLayoutEb@@LIBBE_BASE
         U _ZN11BLayoutItem17GetHeightForWidthEfPfS0_S0_@@LIBBE_BASE
         U _ZN11BLayoutItem17HasHeightForWidthEv@@LIBBE_BASE
         U _ZN11BLayoutItem20_ReservedLayoutItem1Ev@@LIBBE_BASE
         U _ZN11BLayoutItem20_ReservedLayoutItem2Ev@@LIBBE_BASE
         U _ZN11BLayoutItem20_ReservedLayoutItem3Ev@@LIBBE_BASE
         U _ZN11BLayoutItem20_ReservedLayoutItem4Ev@@LIBBE_BASE
         U _ZN11BLayoutItem20_ReservedLayoutItem5Ev@@LIBBE_BASE
         U _ZN11BLayoutItem20_ReservedLayoutItem6Ev@@LIBBE_BASE
         U _ZN11BLayoutItem20_ReservedLayoutItem7Ev@@LIBBE_BASE
         U _ZN11BLayoutItem20_ReservedLayoutItem8Ev@@LIBBE_BASE
         U _ZN11BLayoutItem20_ReservedLayoutItem9Ev@@LIBBE_BASE
         U _ZN11BLayoutItem21_ReservedLayoutItem10Ev@@LIBBE_BASE
         U _ZN11BLayoutItem8RelayoutEb@@LIBBE_BASE
000707de W _ZN11BObjectListI4BRowE10RemoveItemEPS0_b
0007078a W _ZN11BObjectListI4BRowE11ReplaceItemElPS0_
000706ee W _ZN11BObjectListI4BRowED0Ev
00070658 W _ZN11BObjectListI4BRowED1Ev
00070658 W _ZN11BObjectListI4BRowED2Ev
0004e658 W _ZN11BObjectListIKcE9MakeEmptyEb
0004e716 W _ZN11BObjectListIKcED0Ev
0004e6ce W _ZN11BObjectListIKcED1Ev
0004e6ce W _ZN11BObjectListIKcED2Ev
         U _ZN11BScrollView10FrameMovedE6BPoint@@LIBBE_BASE
         U _ZN11BScrollView10MouseMovedE6BPointmPK8BMessage@@LIBBE_BASE
         U _ZN11BScrollView11AllAttachedEv@@LIBBE_BASE
         U _ZN11BScrollView11AllDetachedEv@@LIBBE_BASE
         U _ZN11BScrollView12FrameResizedEff@@LIBBE_BASE
         U _ZN11BScrollView13AllUnarchivedEPK8BMessage@@LIBBE_BASE
         U _ZN11BScrollView13PreferredSizeEv@@LIBBE_BASE
         U _ZN11BScrollView15MessageReceivedEP8BMessage@@LIBBE_BASE
         U _ZN11BScrollView15WindowActivatedEb@@LIBBE_BASE
         U _ZN11BScrollView16AttachedToWindowEv@@LIBBE_BASE
         U _ZN11BScrollView16GetPreferredSizeEPfS0_@@LIBBE_BASE
         U _ZN11BScrollView16ResolveSpecifierEP8BMessagelS1_lPKc@@LIBBE_BASE
         U _ZN11BScrollView17LayoutInvalidatedEb@@LIBBE_BASE
         U _ZN11BScrollView17ResizeToPreferredEv@@LIBBE_BASE
         U _ZN11BScrollView18DetachedFromWindowEv@@LIBBE_BASE
         U _ZN11BScrollView18GetSupportedSuitesEP8BMessage@@LIBBE_BASE
         U _ZN11BScrollView20SetBorderHighlightedEb@@LIBBE_BASE
         U _ZN11BScrollView20_ReservedScrollView1Ev@@LIBBE_BASE
         U _ZN11BScrollView20_ReservedScrollView2Ev@@LIBBE_BASE
         U _ZN11BScrollView20_ReservedScrollView3Ev@@LIBBE_BASE
         U _ZN11BScrollView20_ReservedScrollView4Ev@@LIBBE_BASE
         U _ZN11BScrollView4DrawE5BRect@@LIBBE_BASE
         U _ZN11BScrollView7MaxSizeEv@@LIBBE_BASE
         U _ZN11BScrollView7MinSizeEv@@LIBBE_BASE
         U _ZN11BScrollView7MouseUpE6BPoint@@LIBBE_BASE
         U _ZN11BScrollView7PerformEmPv@@LIBBE_BASE
         U _ZN11BScrollView8DoLayoutEv@@LIBBE_BASE
         U _ZN11BScrollView9MakeFocusEb@@LIBBE_BASE
         U _ZN11BScrollView9MouseDownE6BPoint@@LIBBE_BASE
         U _ZN11BScrollView9SetBorderE12border_style@@LIBBE_BASE
         U _ZN11BScrollViewC1EPKcP5BViewmbb12border_style@@LIBBE_BASE
         U _ZN11BScrollViewC1EPKcP5BViewmmbb12border_style@@LIBBE_BASE
         U _ZN11BScrollViewC2EPKcP5BViewmbb12border_style@@LIBBE_BASE
         U _ZN11BScrollViewD2Ev@@LIBBE_BASE
00071870 T _ZN11BSizeColumn13CompareFieldsEP6BFieldS1_
0007152c T _ZN11BSizeColumn9DrawFieldEP6BField5BRectP5BView
000718c4 T _ZN11BSizeColumnC1EPKcfff9alignment
000718c4 T _ZN11BSizeColumnC2EPKcfff9alignment
000723be W _ZN11BSizeColumnD0Ev
00071fca W _ZN11BSizeColumnD1Ev
00071fca W _ZN11BSizeColumnD2Ev
         U _ZN11BStringItem20_ReservedStringItem1Ev@@LIBBE_BASE
         U _ZN11BStringItem20_ReservedStringItem2Ev@@LIBBE_BASE
         U _ZN11BStringItem6UpdateEP5BViewPK5BFont@@LIBBE_BASE
         U _ZN11BStringItem7PerformEmPv@@LIBBE_BASE
         U _ZN11BStringItem7SetTextEPKc@@LIBBE_BASE
         U _ZN11BStringItem8DrawItemEP5BView5BRectb@@LIBBE_BASE
         U _ZN11BStringItemC1EPKcmb@@LIBBE_BASE
         U _ZN11BStringItemC2EPKcmb@@LIBBE_BASE
         U _ZN11BStringItemD2Ev@@LIBBE_BASE
         U _ZN11BStringView12SetAlignmentE9alignment@@LIBBE_BASE
         U _ZN11BStringView7SetTextEPKc@@LIBBE_BASE
         U _ZN11BStringViewC1EPKcS1_m@@LIBBE_BASE
         U _ZN11BTimeFormatC1Ev@@LIBBE_BASE
         U _ZN11BTimeFormatD1Ev@@LIBBE_BASE
         U _ZN11BUrlContext12GetCookieJarEv
         U _ZN11BUrlContext12SetCookieJarERK17BNetworkCookieJar
         U _ZN11BUrlContextC1Ev
00037b12 T _ZN11BookmarkBar12FrameResizedEff
00038452 T _ZN11BookmarkBar15MessageReceivedEP8BMessage
000382fc T _ZN11BookmarkBar16AttachedToWindowEv
00037e86 T _ZN11BookmarkBar7MinSizeEv
00037ed2 T _ZN11BookmarkBar8_AddItemExP6BEntry
00037d20 T _ZN11BookmarkBarC1EPKcP8BHandlerPK9entry_ref
00037d20 T _ZN11BookmarkBarC2EPKcP8BHandlerPK9entry_ref
00037cec T _ZN11BookmarkBarD0Ev
00037c84 T _ZN11BookmarkBarD1Ev
00037c84 T _ZN11BookmarkBarD2Ev
0004e94e W _ZN11CloseButton10MouseMovedE6BPointmPK8BMessage
0004e36a W _ZN11CloseButton4DrawE5BRect
0004e2ce W _ZN11CloseButtonD0Ev
0004e254 W _ZN11CloseButtonD1Ev
0004e254 W _ZN11CloseButtonD2Ev
00051eba T _ZN11CredentialsC1EPK8BMessage
00051e64 T _ZN11CredentialsC1ERK7BStringS2_
00052026 T _ZN11CredentialsC1ERKS_
00051e16 T _ZN11CredentialsC1Ev
00051eba T _ZN11CredentialsC2EPK8BMessage
00051e64 T _ZN11CredentialsC2ERK7BStringS2_
00052026 T _ZN11CredentialsC2ERKS_
00051e16 T _ZN11CredentialsC2Ev
00051f50 T _ZN11CredentialsD1Ev
00051f50 T _ZN11CredentialsD2Ev
00051fe0 T _ZN11CredentialsaSERKS_
00071a94 T _ZN11GraphColumn9DrawFieldEP6BField5BRectP5BView
00071cc0 T _ZN11GraphColumnC1EPKcfff9alignment
00071cc0 T _ZN11GraphColumnC2EPKcfff9alignment
0007232e W _ZN11GraphColumnD0Ev
00071f8e W _ZN11GraphColumnD1Ev
00071f8e W _ZN11GraphColumnD2Ev
0005711e W _ZN11SmallButtonD0Ev
000570a4 W _ZN11SmallButtonD1Ev
000570a4 W _ZN11SmallButtonD2Ev
         U _ZN12BAboutWindow10AddAuthorsEPPKc@@LIBBE_BASE
         U _ZN12BAboutWindow12AddCopyrightElPKcPS1_@@LIBBE_BASE
         U _ZN12BAboutWindow12AddExtraInfoEPKc@@LIBBE_BASE
         U _ZN12BAboutWindowC1EPKcS1_@@LIBBE_BASE
         U _ZN12BApplication12AppActivatedEb@@LIBBE_BASE
         U _ZN12BApplication14ScriptReceivedEP8BMessagelS1_lPKc@@LIBBE_BASE
         U _ZN12BApplication15DispatchMessageEP8BMessageP8BHandler@@LIBBE_BASE
         U _ZN12BApplication15MessageReceivedEP8BMessage@@LIBBE_BASE
         U _ZN12BApplication16ResolveSpecifierEP8BMessagelS1_lPKc@@LIBBE_BASE
         U _ZN12BApplication18GetSupportedSuitesEP8BMessage@@LIBBE_BASE
         U _ZN12BApplication21_ReservedApplication1Ev@@LIBBE_BASE
         U _ZN12BApplication21_ReservedApplication2Ev@@LIBBE_BASE
         U _ZN12BApplication21_ReservedApplication3Ev@@LIBBE_BASE
         U _ZN12BApplication21_ReservedApplication4Ev@@LIBBE_BASE
         U _ZN12BApplication21_ReservedApplication5Ev@@LIBBE_BASE
         U _ZN12BApplication21_ReservedApplication6Ev@@LIBBE_BASE
         U _ZN12BApplication21_ReservedApplication7Ev@@LIBBE_BASE
         U _ZN12BApplication21_ReservedApplication8Ev@@LIBBE_BASE
         U _ZN12BApplication3RunEv@@LIBBE_BASE
         U _ZN12BApplication4QuitEv@@LIBBE_BASE
         U _ZN12BApplication5PulseEv@@LIBBE_BASE
         U _ZN12BApplication7PerformEmPv@@LIBBE_BASE
         U _ZN12BApplicationC2EPKc@@LIBBE_BASE
         U _ZN12BApplicationD2Ev@@LIBBE_BASE
00071d38 T _ZN12BBitmapField6BitmapEv
00071e8c T _ZN12BBitmapField9SetBitmapEP7BBitmap
00071d00 T _ZN12BBitmapFieldC1EP7BBitmap
00071d00 T _ZN12BBitmapFieldC2EP7BBitmap
000722aa W _ZN12BBitmapFieldD0Ev
00072174 W _ZN12BBitmapFieldD1Ev
00072174 W _ZN12BBitmapFieldD2Ev
         U _ZN12BGroupLayoutC1E11orientationf@@LIBBE_BASE
         U _ZN12BLayoutUtils11ComposeSizeE5BSizeS0_@@LIBBE_BASE
00070e8c T _ZN12BStringField13ClippedStringEv
00070e3e T _ZN12BStringField16SetClippedStringEPKc
00070e32 T _ZN12BStringField5WidthEv
00070e24 T _ZN12BStringField8SetWidthEf
00070ce2 T _ZN12BStringField9SetStringEPKc
00070c50 T _ZN12BStringFieldC1EPKc
00070c50 T _ZN12BStringFieldC2EPKc
000724ac W _ZN12BStringFieldD0Ev
00072094 W _ZN12BStringFieldD1Ev
00072094 W _ZN12BStringFieldD2Ev
         U _ZN12BTextControl21CreateLabelLayoutItemEv@@LIBBE_BASE
         U _ZN12BTextControl24CreateTextViewLayoutItemEv@@LIBBE_BASE
         U _ZN12BTextControlC1EPKcS1_S1_P8BMessagem@@LIBBE_BASE
         U _ZN12BUnicodeChar8FromUTF8EPPKc@@LIBBE_BASE
         U _ZN12BWebDownload10HasMovedToERK5BPath
         U _ZN12BWebDownload19SetProgressListenerERK10BMessenger
         U _ZN12BWebDownload5StartERK5BPath
         U _ZN12BWebDownload6CancelEv
         U _ZN12BWebSettings12SetFixedFontERK5BFont
         U _ZN12BWebSettings12SetProxyInfoERK7BStringm10BProxyTypeS2_S2_
         U _ZN12BWebSettings12SetSerifFontERK5BFont
         U _ZN12BWebSettings15SetStandardFontERK5BFont
         U _ZN12BWebSettings16SetSansSerifFontERK5BFont
         U _ZN12BWebSettings23SetDefaultFixedFontSizeEf
         U _ZN12BWebSettings24SetPersistentStoragePathERK7BString
         U _ZN12BWebSettings26SetDefaultStandardFontSizeEf
         U _ZN12BWebSettings5ApplyEv
         U _ZN12BWebSettings7DefaultEv
00037616 T _ZN12BitmapButton13PreferredSizeEv
00037ada T _ZN12BitmapButton17SetBackgroundModeEm
0003774e T _ZN12BitmapButton4DrawE5BRect
000375f6 T _ZN12BitmapButton7MaxSizeEv
000376d2 T _ZN12BitmapButton7MinSizeEv
0003793a T _ZN12BitmapButtonC1EPKcP8BMessage
000379bc T _ZN12BitmapButtonC1EPKhmm11color_spaceP8BMessage
0003793a T _ZN12BitmapButtonC2EPKcP8BMessage
000379bc T _ZN12BitmapButtonC2EPKhmm11color_spaceP8BMessage
00037694 T _ZN12BitmapButtonD0Ev
00037636 T _ZN12BitmapButtonD1Ev
00037636 T _ZN12BitmapButtonD2Ev
0004e748 W _ZN12BookmarkMenu16AttachedToWindowEv
0004e214 W _ZN12BookmarkMenuD0Ev
0004e1e6 W _ZN12BookmarkMenuD1Ev
0004e1e6 W _ZN12BookmarkMenuD2Ev
00050268 T _ZN12CookieWindow10_AddDomainE7BStringb
0005022a T _ZN12CookieWindow13QuitRequestedEv
000510fe T _ZN12CookieWindow14_DeleteCookiesEv
000519f6 T _ZN12CookieWindow15MessageReceivedEP8BMessage
0005059c T _ZN12CookieWindow16_BuildDomainListEv
00050954 T _ZN12CookieWindow21_ShowCookiesForDomainE7BString
00051b12 T _ZN12CookieWindow4ShowEv
000511f0 T _ZN12CookieWindowC1E5BRectR17BNetworkCookieJar
000511f0 T _ZN12CookieWindowC2E5BRectR17BNetworkCookieJar
00051b86 W _ZN12CookieWindowD0Ev
00051b58 W _ZN12CookieWindowD1Ev
00051b58 W _ZN12CookieWindowD2Ev
0003ee3c W _ZN12NewTabButton10DrawSymbolE5BRectRKS0_RK9rgb_color
0003e530 W _ZN12NewTabButton7MinSizeEv
0003ea94 W _ZN12NewTabButtonD0Ev
0003ea1a W _ZN12NewTabButtonD1Ev
0003ea1a W _ZN12NewTabButtonD2Ev
0004e5fe W _ZN12PageUserDataD0Ev
0004e5ae W _ZN12PageUserDataD1Ev
0004e5ae W _ZN12PageUserDataD2Ev
00070836 T _ZN13BBitmapColumn13CompareFieldsEP6BFieldS1_
00071d44 T _ZN13BBitmapColumn9DrawFieldEP6BField5BRectP5BView
00071e9a T _ZN13BBitmapColumnC1EPKcfff9alignment
00071e9a T _ZN13BBitmapColumnC2EPKcfff9alignment
000722e6 W _ZN13BBitmapColumnD0Ev
00071f16 W _ZN13BBitmapColumnD1Ev
00071f16 W _ZN13BBitmapColumnD2Ev
0007194a T _ZN13BIntegerField5ValueEv
0007193c T _ZN13BIntegerField8SetValueEl
00071904 T _ZN13BIntegerFieldC1El
00071904 T _ZN13BIntegerFieldC2El
0007226e W _ZN13BIntegerFieldD0Ev
00072146 W _ZN13BIntegerFieldD1Ev
00072146 W _ZN13BIntegerFieldD2Ev
0005f5d6 t _ZN13BLocaleRoster10GetCatalogEv
         U _ZN13BLocaleRoster11_GetCatalogEP8BCatalogPl@@LIBBE_BASE
         U _ZN13BLocaleRoster7DefaultEv@@LIBBE_BASE
         U _ZN13BNotification10SetContentERK7BString@@LIBBE_BASE
         U _ZN13BNotification14SetOnClickFileEPK9entry_ref@@LIBBE_BASE
         U _ZN13BNotification4SendEx@@LIBBE_BASE
         U _ZN13BNotification7SetIconEPK7BBitmap@@LIBBE_BASE
         U _ZN13BNotification8SetGroupERK7BString@@LIBBE_BASE
         U _ZN13BNotification8SetTitleERK7BString@@LIBBE_BASE
         U _ZN13BNotificationC1E17notification_type@@LIBBE_BASE
         U _ZN13BNotificationD1Ev@@LIBBE_BASE
00070d80 T _ZN13BStringColumn13CompareFieldsEP6BFieldS1_
00070eae T _ZN13BStringColumn9DrawFieldEP6BField5BRectP5BView
00071036 T _ZN13BStringColumnC1EPKcfffm9alignment
00071036 T _ZN13BStringColumnC2EPKcfffm9alignment
00072406 W _ZN13BStringColumnD0Ev
00072058 W _ZN13BStringColumnD1Ev
00072058 W _ZN13BStringColumnD2Ev
         U _ZN13BStringFormatC1E7BString@@LIBBE_BASE
         U _ZN13BStringFormatD1Ev@@LIBBE_BASE
000709c6 T _ZN13BTitledColumn10DrawStringEPKcP5BView5BRect
00070bdc T _ZN13BTitledColumn8SetTitleEPKc
00070b1e T _ZN13BTitledColumn9DrawTitleE5BRectP5BView
00070922 T _ZN13BTitledColumnC1EPKcfff9alignment
00070922 T _ZN13BTitledColumnC2EPKcfff9alignment
000721ea W _ZN13BTitledColumnD0Ev
00071eda W _ZN13BTitledColumnD1Ev
00071eda W _ZN13BTitledColumnD2Ev
00043750 T _ZN13BrowserWindow10LoadFailedERK7BStringP8BWebView
0004328c T _ZN13BrowserWindow10MenusEndedEv
000445e2 T _ZN13BrowserWindow11_TabChangedEl
0004618c T _ZN13BrowserWindow12CreateNewTabERK7BStringbP8BWebView
0004487e T _ZN13BrowserWindow12IconReceivedEPK7BBitmapP8BWebView
0004398c T _ZN13BrowserWindow12LoadFinishedERK7BStringP8BWebView
00045e44 T _ZN13BrowserWindow12LoadProgressEfP8BWebView
00043606 T _ZN13BrowserWindow12SetResizableEbP8BWebView
000443d6 T _ZN13BrowserWindow12TitleChangedERK7BStringP8BWebView
00044712 T _ZN13BrowserWindow12_SetPageIconEP8BWebViewPK7BBitmap
00044530 T _ZN13BrowserWindow12_ShutdownTabEl
00044286 T _ZN13BrowserWindow12_UpdateTitleERK7BString
0004365a T _ZN13BrowserWindow13LoadCommittedERK7BStringP8BWebView
0004753c T _ZN13BrowserWindow13QuitRequestedEv
000459bc T _ZN13BrowserWindow13ScreenChangedE5BRect11color_space
00043e84 T _ZN13BrowserWindow13StatusChangedERK7BStringP8BWebView
000455f2 T _ZN13BrowserWindow14MenusBeginningEv
0004b04c T _ZN13BrowserWindow14NewPageCreatedEP8BWebView5BRectbbb
00046a2c T _ZN13BrowserWindow14_ShowBookmarksEv
00045a20 T _ZN13BrowserWindow14_ShowInterfaceEb
00046c7c T _ZN13BrowserWindow15DispatchMessageEP8BMessageP8BHandler
00043856 T _ZN13BrowserWindow15LoadNegotiatingERK7BStringP8BWebView
0004c8c6 T _ZN13BrowserWindow15MessageReceivedEP8BMessage
00043bb0 T _ZN13BrowserWindow15ResizeRequestedEffP8BWebView
0004b71e T _ZN13BrowserWindow15_CreateBookmarkEv
0004591a T _ZN13BrowserWindow15_ResizeToScreenEv
00045b4a T _ZN13BrowserWindow16ToggleFullscreenEv
0004694a T _ZN13BrowserWindow16_ShowBookmarkBarEb
00045d8c T _ZN13BrowserWindow16_ShowProgressBarEb
00046652 T _ZN13BrowserWindow16_SmartURLHandlerERK7BString
0004b614 T _ZN13BrowserWindow17MainDocumentErrorERK7BStringS2_P8BWebView
0004b188 T _ZN13BrowserWindow17SetCurrentWebViewEP8BWebView
000432ae T _ZN13BrowserWindow17SetMenuBarVisibleEbP8BWebView
000459ee T _ZN13BrowserWindow17WorkspacesChangedEmm
00047618 T _ZN13BrowserWindow18NewWindowRequestedERK7BStringb
000432a2 T _ZN13BrowserWindow18SetToolBarsVisibleEbP8BWebView
000448c6 T _ZN13BrowserWindow18_UpdateHistoryMenuEv
00046598 T _ZN13BrowserWindow18_VisitSearchEngineERK7BString
0004329c T _ZN13BrowserWindow19NavigationRequestedERK7BStringP8BWebView
000432a8 T _ZN13BrowserWindow19SetStatusBarVisibleEbP8BWebView
00043eda T _ZN13BrowserWindow19UpdateGlobalHistoryERK7BString
00046438 T _ZN13BrowserWindow19_EncodeURIComponentERK7BString
000476b8 T _ZN13BrowserWindow20CloseWindowRequestedEP8BWebView
00045efc T _ZN13BrowserWindow20_InvokeButtonVisiblyEP7BButton
00045482 T _ZN13BrowserWindow21_UpdateClipboardItemsEv
0004569c T _ZN13BrowserWindow23AuthenticationChallengeE7BStringRS0_S1_RbmP8BWebView
00045c88 T _ZN13BrowserWindow23_CheckAutoHideInterfaceEv
0004c3c6 T _ZN13BrowserWindow23_HandlePageSourceResultEPK8BMessage
000444a0 T _ZN13BrowserWindow25_UpdateTabGroupVisibilityEv
000433f6 T _ZN13BrowserWindow29NavigationCapabilitiesChangedEbbbP8BWebView
00047754 T _ZN13BrowserWindow33_SetAutoHideInterfaceInFullscreenEb
00045628 T _ZN13BrowserWindow9_ShowPageEP8BWebView
00046556 T _ZN13BrowserWindow9_VisitURLERK7BString
000478c4 T _ZN13BrowserWindowC1E5BRectP15SettingsMessageRK7BStringP11BUrlContextmP8BWebView
000478c4 T _ZN13BrowserWindowC2E5BRectP15SettingsMessageRK7BStringP11BUrlContextmP8BWebView
000433c2 T _ZN13BrowserWindowD0Ev
00043300 T _ZN13BrowserWindowD1Ev
00043300 T _ZN13BrowserWindowD2Ev
0004fbd6 T _ZN13ConsoleWindow13QuitRequestedEv
0004ff98 T _ZN13ConsoleWindow15MessageReceivedEP8BMessage
0004fc14 T _ZN13ConsoleWindowC1E5BRect
0004fc14 T _ZN13ConsoleWindowC2E5BRect
000501ea W _ZN13ConsoleWindowD0Ev
000501bc W _ZN13ConsoleWindowD1Ev
000501bc W _ZN13ConsoleWindowD2Ev
0003fc16 T _ZN13TabLayoutItem10SetVisibleEb
0003f4a4 T _ZN13TabLayoutItem11BaseMaxSizeEv
0003f484 T _ZN13TabLayoutItem11BaseMinSizeEv
0003f4e4 T _ZN13TabLayoutItem13BaseAlignmentEv
0003f4c4 T _ZN13TabLayoutItem17BasePreferredSizeEv
0003fa80 T _ZN13TabLayoutItem19InvalidateContainerE5BRect
0003fb88 T _ZN13TabLayoutItem19InvalidateContainerEv
0003f47a T _ZN13TabLayoutItem4ViewEv
0003f456 T _ZN13TabLayoutItem5FrameEv
0003fae0 T _ZN13TabLayoutItem8SetFrameE5BRect
0003f44a T _ZN13TabLayoutItem9IsVisibleEv
0003f9b4 T _ZN13TabLayoutItemC1EP7TabView
0003f9b4 T _ZN13TabLayoutItemC2EP7TabView
0003fc8c W _ZN13TabLayoutItemD0Ev
0003fc5e W _ZN13TabLayoutItemD1Ev
0003fc5e W _ZN13TabLayoutItemD2Ev
0005e36e T _ZN13URLInputGroup11SetPageIconEPK7BBitmap
0005ee24 T _ZN13URLInputGroup11URLTextView10DeleteTextEll
0005eb68 T _ZN13URLInputGroup11URLTextView10InsertTextEPKcllPK14text_run_array
0005e4cc T _ZN13URLInputGroup11URLTextView12FrameResizedEff
0005de98 T _ZN13URLInputGroup11URLTextView14_AlignTextRectEv
0005e482 T _ZN13URLInputGroup11URLTextView15MessageReceivedEP8BMessage
0005de86 T _ZN13URLInputGroup11URLTextView29SetUpdateAutoCompleterChoicesEb
0005e9e2 T _ZN13URLInputGroup11URLTextView7KeyDownEPKcl
0005db90 T _ZN13URLInputGroup11URLTextView7MaxSizeEv
0005db18 T _ZN13URLInputGroup11URLTextView7MinSizeEv
0005eade T _ZN13URLInputGroup11URLTextView9MakeFocusEb
0005e500 T _ZN13URLInputGroup11URLTextView9MouseDownE6BPoint
0005dd60 T _ZN13URLInputGroup11URLTextViewC1EPS_
0005dd60 T _ZN13URLInputGroup11URLTextViewC2EPS_
0005dae4 T _ZN13URLInputGroup11URLTextViewD0Ev
0005da9c T _ZN13URLInputGroup11URLTextViewD1Ev
0005da9c T _ZN13URLInputGroup11URLTextViewD2Ev
0005da8a T _ZN13URLInputGroup12LockURLInputEb
0005eea8 W _ZN13URLInputGroup12PageIconView13PreferredSizeEv
0005f43c W _ZN13URLInputGroup12PageIconView4DrawE5BRect
0005ee88 W _ZN13URLInputGroup12PageIconView7MaxSizeEv
0005ee68 W _ZN13URLInputGroup12PageIconView7MinSizeEv
0005f50e W _ZN13URLInputGroup12PageIconViewD0Ev
0005f3f4 W _ZN13URLInputGroup12PageIconViewD1Ev
0005f3f4 W _ZN13URLInputGroup12PageIconViewD2Ev
0005dc52 T _ZN13URLInputGroup15WindowActivatedEb
0005dca2 T _ZN13URLInputGroup16AttachedToWindowEv
0005dcde T _ZN13URLInputGroup4DrawE5BRect
0005e2d2 T _ZN13URLInputGroup7SetTextEPKc
0005da66 T _ZN13URLInputGroup9MakeFocusEb
0005dfcc T _ZN13URLInputGroupC1EP8BMessage
0005dfcc T _ZN13URLInputGroupC2EP8BMessage
0005dc1e T _ZN13URLInputGroupD0Ev
0005dbf0 T _ZN13URLInputGroupD1Ev
0005dbf0 T _ZN13URLInputGroupD2Ev
         U _ZN13_PointerList_11ReplaceItemElPv@@LIBBE_BASE
         U _ZN13_PointerList_C2Elb@@LIBBE_BASE
         U _ZN13_PointerList_D2Ev@@LIBBE_BASE
00035508 T _ZN14BAutoCompleter10SelectNextEb
00035610 T _ZN14BAutoCompleter11ApplyChoiceEb
0003567e T _ZN14BAutoCompleter11SetEditViewEPNS_8EditViewE
00035638 T _ZN14BAutoCompleter12CancelChoiceEv
0003570e T _ZN14BAutoCompleter13SetChoiceViewEPNS_10ChoiceViewE
00035534 T _ZN14BAutoCompleter14SelectPreviousEb
000356de T _ZN14BAutoCompleter14SetChoiceModelEPNS_11ChoiceModelE
000353b0 T _ZN14BAutoCompleter15CompletionStyle11SetEditViewEPNS_8EditViewE
00035428 T _ZN14BAutoCompleter15CompletionStyle13SetChoiceViewEPNS_10ChoiceViewE
00035400 T _ZN14BAutoCompleter15CompletionStyle14SetChoiceModelEPNS_11ChoiceModelE
000353d8 T _ZN14BAutoCompleter15CompletionStyle18SetPatternSelectorEPNS_15PatternSelectorE
000352b2 T _ZN14BAutoCompleter15CompletionStyleC1EPNS_8EditViewEPNS_11ChoiceModelEPNS_10ChoiceViewEPNS_15PatternSelectorE
000352b2 T _ZN14BAutoCompleter15CompletionStyleC2EPNS_8EditViewEPNS_11ChoiceModelEPNS_10ChoiceViewEPNS_15PatternSelectorE
0003537e T _ZN14BAutoCompleter15CompletionStyleD0Ev
0003530e T _ZN14BAutoCompleter15CompletionStyleD1Ev
0003530e T _ZN14BAutoCompleter15CompletionStyleD2Ev
0003573e T _ZN14BAutoCompleter18SetCompletionStyleEPNS_15CompletionStyleE
000356ae T _ZN14BAutoCompleter18SetPatternSelectorEPNS_15PatternSelectorE
00035656 T _ZN14BAutoCompleter20EditViewStateChangedEb
0005ef52 W _ZN14BAutoCompleter6ChoiceD0Ev
0005ef12 W _ZN14BAutoCompleter6ChoiceD1Ev
0005ef12 W _ZN14BAutoCompleter6ChoiceD2Ev
000354e2 T _ZN14BAutoCompleter6SelectEl
00035450 T _ZN14BAutoCompleterC1EPNS_15CompletionStyleE
00035474 T _ZN14BAutoCompleterC1EPNS_8EditViewEPNS_11ChoiceModelEPNS_10ChoiceViewEPNS_15PatternSelectorE
00035450 T _ZN14BAutoCompleterC2EPNS_15CompletionStyleE
00035474 T _ZN14BAutoCompleterC2EPNS_8EditViewEPNS_11ChoiceModelEPNS_10ChoiceViewEPNS_15PatternSelectorE
00035280 T _ZN14BAutoCompleterD0Ev
0003524c T _ZN14BAutoCompleterD1Ev
0003524c T _ZN14BAutoCompleterD2Ev
00071a60 T _ZN14BIntegerColumn13CompareFieldsEP6BFieldS1_
00071956 T _ZN14BIntegerColumn9DrawFieldEP6BField5BRectP5BView
00071c80 T _ZN14BIntegerColumnC1EPKcfff9alignment
00071c80 T _ZN14BIntegerColumnC2EPKcfff9alignment
00072376 W _ZN14BIntegerColumnD0Ev
00071f52 W _ZN14BIntegerColumnD1Ev
00071f52 W _ZN14BIntegerColumnD2Ev
         U _ZN14BMessageFilter23_ReservedMessageFilter1Ev@@LIBBE_BASE
         U _ZN14BMessageFilter23_ReservedMessageFilter2Ev@@LIBBE_BASE
         U _ZN14BMessageFilterC2EmPF13filter_resultP8BMessagePP8BHandlerPS_E@@LIBBE_BASE
         U _ZN14BMessageFilterD2Ev@@LIBBE_BASE
         U _ZN14BMessageRunnerC1E10BMessengerPK8BMessagexl@@LIBBE_BASE
         U _ZN14BNetworkCookie17SetExpirationDateEl
         U _ZN14BNetworkCookieD1Ev
         U _ZN14BSeparatorItemC1Ev@@LIBBE_BASE
         U _ZN14BSeparatorViewC1E11orientation12border_style@@LIBBE_BASE
000572f2 T _ZN14DownloadWindow12FrameResizedEff
00057316 T _ZN14DownloadWindow13QuitRequestedEv
00058aca T _ZN14DownloadWindow13_LoadSettingsEv
000581ac T _ZN14DownloadWindow13_SaveSettingsEv
00058044 T _ZN14DownloadWindow15DispatchMessageEP8BMessageP8BHandler
00058c9c T _ZN14DownloadWindow15MessageReceivedEP8BMessage
000583f4 T _ZN14DownloadWindow16_DownloadStartedEP12BWebDownload
00058788 T _ZN14DownloadWindow17_DownloadFinishedEP12BWebDownload
00057582 T _ZN14DownloadWindow17_OpenSettingsFileER5BFilem
0005743e T _ZN14DownloadWindow18SetMinimizeOnCloseEb
00057380 T _ZN14DownloadWindow19DownloadsInProgressEv
00057484 T _ZN14DownloadWindow21_ValidateButtonStatusEv
000589be T _ZN14DownloadWindow23_RemoveMissingDownloadsEv
000588b2 T _ZN14DownloadWindow24_RemoveFinishedDownloadsEv
00057652 T _ZN14DownloadWindowC1E5BRectbP15SettingsMessage
00057652 T _ZN14DownloadWindowC2E5BRectbP15SettingsMessage
000583c0 T _ZN14DownloadWindowD0Ev
00058378 T _ZN14DownloadWindowD1Ev
00058378 T _ZN14DownloadWindowD2Ev
0005944c T _ZN14SettingsWindow13QuitRequestedEv
0005adb2 T _ZN14SettingsWindow14_ApplySettingsEv
0005b526 T _ZN14SettingsWindow15MessageReceivedEP8BMessage
0005948a T _ZN14SettingsWindow15_BuildSizesMenuEP5BMenum
0005a6a6 T _ZN14SettingsWindow15_RevertSettingsEv
000598fc T _ZN14SettingsWindow16_CreateFontsPageEf
0005ca04 T _ZN14SettingsWindow16_CreateProxyPageEf
0005b7a8 T _ZN14SettingsWindow18_CreateGeneralPageEf
000596f2 T _ZN14SettingsWindow18_SetSizesMenuValueEP5BMenul
000595f6 T _ZN14SettingsWindow23_SetupFontSelectionViewEP17FontSelectionViewP8BMessage
0005a594 T _ZN14SettingsWindow30_ValidateControlsEnabledStatusEv
0005b77a T _ZN14SettingsWindow4ShowEv
0005d346 T _ZN14SettingsWindowC1E5BRectP15SettingsMessage
0005d346 T _ZN14SettingsWindowC2E5BRectP15SettingsMessage
00059418 T _ZN14SettingsWindowD0Ev
00059346 T _ZN14SettingsWindowD1Ev
00059346 T _ZN14SettingsWindowD2Ev
000655b4 T _ZN15BColumnListView10MoveColumnEP7BColumnl
000682ee T _ZN15BColumnListView11DeselectAllEv
000635ce T _ZN15BColumnListView11ItemInvokedEv
000650f4 T _ZN15BColumnListView11ResetColorsEv
00064e28 T _ZN15BColumnListView11SetEditModeEb
0006853e T _ZN15BColumnListView11SetFocusRowEP4BRowb
00068570 T _ZN15BColumnListView11SetFocusRowElb
000635c0 T _ZN15BColumnListView12InitiateDragE6BPointb
00066b2a T _ZN15BColumnListView12RemoveColumnEP7BColumn
00064b90 T _ZN15BColumnListView12SetEditColorE9rgb_color
0006388a T _ZN15BColumnListView12SetHighColorE9rgb_color
000644d2 T _ZN15BColumnListView13AddStatusViewEP5BView
0006763a T _ZN15BColumnListView13InvalidateRowEP4BRow
0006a8e4 T _ZN15BColumnListView13PreferredSizeEv
00064c08 T _ZN15BColumnListView13SetLatchWidthEf
00066e06 T _ZN15BColumnListView13SetSortColumnEP7BColumnbb
00064e4c T _ZN15BColumnListView13_UpdateColorsEv
00068422 T _ZN15BColumnListView14AddToSelectionEP4BRow
000635c8 T _ZN15BColumnListView14MessageDroppedEP8BMessage6BPoint
000655f4 T _ZN15BColumnListView14SetColumnFlagsE12column_flags
0006bd22 T _ZN15BColumnListView15MessageReceivedEP8BMessage
00063e3a T _ZN15BColumnListView15WindowActivatedEb
00067062 T _ZN15BColumnListView16AttachedToWindowEv
00064498 T _ZN15BColumnListView16ClearSortColumnsEv
00068158 T _ZN15BColumnListView16ExpandOrCollapseEP4BRowb
00064646 T _ZN15BColumnListView16RemoveStatusViewEv
0006360a T _ZN15BColumnListView16SelectionChangedEv
0006441c T _ZN15BColumnListView16SelectionMessageEv
00066a78 T _ZN15BColumnListView16SetColumnVisibleEP7BColumnb
00066ae8 T _ZN15BColumnListView16SetColumnVisibleElb
00068346 T _ZN15BColumnListView16SetSelectionModeE14list_view_type
000636d6 T _ZN15BColumnListView17LayoutInvalidatedEb
00064b00 T _ZN15BColumnListView17SetSelectionColorE9rgb_color
00064446 T _ZN15BColumnListView17SetSortingEnabledEb
00064b36 T _ZN15BColumnListView18SetBackgroundColorE9rgb_color
0006512a T _ZN15BColumnListView18_GetChildViewRectsERK5BRectRS0_S3_S3_S3_
00063630 T _ZN15BColumnListView19SetSelectionMessageEP8BMessage
000635e8 T _ZN15BColumnListView20SetInvocationMessageEP8BMessage
0006a81e T _ZN15BColumnListView23ResizeColumnToPreferredEl
00066014 T _ZN15BColumnListView23SetMouseTrackingEnabledEb
0006a89c T _ZN15BColumnListView27ResizeAllColumnsToPreferredEv
0006bef8 T _ZN15BColumnListView4DrawE5BRect
00068608 T _ZN15BColumnListView5ClearEv
000689ae T _ZN15BColumnListView5RowAtE6BPoint
00066140 T _ZN15BColumnListView5RowAtElP4BRow
0006b532 T _ZN15BColumnListView5_InitEv
000704a4 T _ZN15BColumnListView6AddRowEP4BRowS1_
0007045a T _ZN15BColumnListView6AddRowEP4BRowlS1_
0006bcd2 T _ZN15BColumnListView6InvokeEP8BMessage
000671ea T _ZN15BColumnListView7IndexOfEP4BRow
0006a3a0 T _ZN15BColumnListView7KeyDownEPKcl
00063f5a T _ZN15BColumnListView7MaxSizeEv
00063e82 T _ZN15BColumnListView7MinSizeEv
000662fa T _ZN15BColumnListView7RefreshEv
000649d2 T _ZN15BColumnListView7SetFontE18ColumnListViewFontPK5BFontm
00063694 T _ZN15BColumnListView7SetFontEPK5BFontm
00065ef0 T _ZN15BColumnListView8DeselectEP4BRow
000663be T _ZN15BColumnListView8DoLayoutEv
00063662 T _ZN15BColumnListView8ScrollToE6BPoint
0006799a T _ZN15BColumnListView8ScrollToEPK4BRow
00064a7c T _ZN15BColumnListView8SetColorE19ColumnListViewColor9rgb_color
0006aaaa T _ZN15BColumnListView8SwapRowsEllP4BRowS1_
00066ba2 T _ZN15BColumnListView9AddColumnEP7BColumnl
000638b0 T _ZN15BColumnListView9DrawLatchEP5BView5BRect9LatchTypeP4BRow
00066ea8 T _ZN15BColumnListView9LoadStateEP8BMessage
00063dc6 T _ZN15BColumnListView9MakeFocusEb
0006b05e T _ZN15BColumnListView9RemoveRowEP4BRow
00064d06 T _ZN15BColumnListView9SaveStateEP8BMessage
00067d66 T _ZN15BColumnListView9UpdateRowEP4BRow
0006b98e T _ZN15BColumnListViewC1E5BRectPKcmm12border_styleb
0006bad4 T _ZN15BColumnListViewC1EPKcm12border_styleb
0006b98e T _ZN15BColumnListViewC2E5BRectPKcmm12border_styleb
0006bad4 T _ZN15BColumnListViewC2EPKcm12border_styleb
0006bc94 T _ZN15BColumnListViewD0Ev
0006bbfa T _ZN15BColumnListViewD1Ev
0006bbfa T _ZN15BColumnListViewD2Ev
         U _ZN15BDateTimeFormatC1EPK7BLocale@@LIBBE_BASE
         U _ZN15BDateTimeFormatD1Ev@@LIBBE_BASE
         U _ZN15BDurationFormatC1ERK7BString15time_unit_style@@LIBBE_BASE
         U _ZN15BDurationFormatD1Ev@@LIBBE_BASE
0004f936 T _ZN15BrowsingHistory13_LoadSettingsEv
0004f354 T _ZN15BrowsingHistory13_SaveSettingsEv
0004fb88 T _ZN15BrowsingHistory15DefaultInstanceEv
0008a960 B _ZN15BrowsingHistory16sDefaultInstanceE
0004f284 T _ZN15BrowsingHistory17_OpenSettingsFileER5BFilem
0004f64c T _ZN15BrowsingHistory20SetMaxHistoryItemAgeEl
0004f5c0 T _ZN15BrowsingHistory5ClearEv
0004ef9e T _ZN15BrowsingHistory6_ClearEv
0004f8a8 T _ZN15BrowsingHistory7AddItemERK19BrowsingHistoryItem
0004f6e4 T _ZN15BrowsingHistory8_AddItemERK19BrowsingHistoryItemb
0004edae T _ZN15BrowsingHistoryC1Ev
0004edae T _ZN15BrowsingHistoryC2Ev
0004f58e T _ZN15BrowsingHistoryD0Ev
0004f542 T _ZN15BrowsingHistoryD1Ev
0004f542 T _ZN15BrowsingHistoryD2Ev
0003a450 T _ZN15SettingsMessage11AddListenerERK10BMessenger
0003a54e T _ZN15SettingsMessage14RemoveListenerERK10BMessenger
0003aa96 T _ZN15SettingsMessage4LoadEv
0003b738 T _ZN15SettingsMessage8SetValueEPKcPK12BFlattenable
0003b792 T _ZN15SettingsMessage8SetValueEPKcRK5BFont
0003b5ee T _ZN15SettingsMessage8SetValueEPKcRK5BRect
0003b574 T _ZN15SettingsMessage8SetValueEPKcRK6BPoint
0003b518 T _ZN15SettingsMessage8SetValueEPKcRK7BString
0003b6dc T _ZN15SettingsMessage8SetValueEPKcRK8BMessage
0003b680 T _ZN15SettingsMessage8SetValueEPKcRK9entry_ref
0003b4bc T _ZN15SettingsMessage8SetValueEPKcS1_
0003b228 T _ZN15SettingsMessage8SetValueEPKca
0003b1c4 T _ZN15SettingsMessage8SetValueEPKcb
0003b45a T _ZN15SettingsMessage8SetValueEPKcd
0003b3fe T _ZN15SettingsMessage8SetValueEPKcf
0003b2e4 T _ZN15SettingsMessage8SetValueEPKcl
0003b340 T _ZN15SettingsMessage8SetValueEPKcm
0003b286 T _ZN15SettingsMessage8SetValueEPKcs
0003b39c T _ZN15SettingsMessage8SetValueEPKcx
0003ab8e T _ZN15SettingsMessageC1E15directory_whichPKc
0003ab8e T _ZN15SettingsMessageC2E15directory_whichPKc
0003ae72 T _ZN15SettingsMessageD0Ev
0003adae T _ZN15SettingsMessageD1Ev
0003adae T _ZN15SettingsMessageD2Ev
         U _ZN16BOutlineListViewC1EPKc14list_view_typem@@LIBBE_BASE
         U _ZN16BSpaceLayoutItem10CreateGlueEv@@LIBBE_BASE
         U _ZN16BSpaceLayoutItem19CreateVerticalStrutEf@@LIBBE_BASE
         U _ZN16BSpaceLayoutItem21CreateHorizontalStrutEf@@LIBBE_BASE
00051bc6 W _ZN16CookieDateColumn9DrawFieldEP6BField5BRectP5BView
00051db8 W _ZN16CookieDateColumnD0Ev
00051d66 W _ZN16CookieDateColumnD1Ev
00051d66 W _ZN16CookieDateColumnD2Ev
0003c0f2 T _ZN16TabContainerView10MouseMovedE6BPointmPK8BMessage
0003bd94 T _ZN16TabContainerView11SetTabLabelElPKc
0003bf7e T _ZN16TabContainerView11_MouseMovedE6BPointmPK8BMessage
0003cc38 T _ZN16TabContainerView15MessageReceivedEP8BMessage
0003cafa T _ZN16TabContainerView19_SendFakeMouseMovedEv
0003c296 T _ZN16TabContainerView20_UpdateTabVisibilityEv
0003c5b2 T _ZN16TabContainerView22_ValidateTabVisibilityEv
0003c3ea T _ZN16TabContainerView23SetFirstVisibleTabIndexEl
0003b97c T _ZN16TabContainerView4DrawE5BRect
0003c608 T _ZN16TabContainerView6AddTabEP7TabViewl
0003c79a T _ZN16TabContainerView6AddTabEPKcl
0003cc08 T _ZN16TabContainerView7MinSizeEv
0003cb7c T _ZN16TabContainerView7MouseUpE6BPoint
0003cc5e T _ZN16TabContainerView8DoLayoutEv
0003baf2 T _ZN16TabContainerView9MouseDownE6BPoint
0003c824 T _ZN16TabContainerView9RemoveTabEl
0003c44c T _ZN16TabContainerView9SelectTabEP7TabView
0003c53a T _ZN16TabContainerView9SelectTabEl
0003bbec T _ZN16TabContainerViewC1EPNS_10ControllerE
0003bbec T _ZN16TabContainerViewC2EPNS_10ControllerE
0003b948 T _ZN16TabContainerViewD0Ev
0003b91a T _ZN16TabContainerViewD1Ev
0003b91a T _ZN16TabContainerViewD2Ev
0003e560 W _ZN16TabMenuTabButton10DrawSymbolE5BRectRKS0_RK9rgb_color
0003e548 W _ZN16TabMenuTabButton7MinSizeEv
0003e59a W _ZN16TabMenuTabButton7MouseUpE6BPoint
0003ef32 W _ZN16TabMenuTabButton9MouseDownE6BPoint
0003ebaa W _ZN16TabMenuTabButtonD0Ev
0003eb30 W _ZN16TabMenuTabButtonD1Ev
0003eb30 W _ZN16TabMenuTabButtonD2Ev
         U _ZN17BNetworkCookieJar12PurgeForExitEv
         U _ZN17BNetworkCookieJar8Iterator10NextDomainEv
         U _ZN17BNetworkCookieJar8Iterator4NextEv
         U _ZN17BNetworkCookieJar8IteratorD1Ev
         U _ZN17BNetworkCookieJar9AddCookieERK14BNetworkCookie
         U _ZN17BNetworkCookieJarC1EP8BMessage
         U _ZN17BNetworkCookieJarD1Ev
         U _ZN17BTranslationUtils9GetBitmapEPKcP17BTranslatorRoster
0003902a T _ZN17FontSelectionView10SetMessageEP8BMessage
000398c4 T _ZN17FontSelectionView11SetDefaultsEv
00039076 T _ZN17FontSelectionView12IsRevertableEv
0003924c T _ZN17FontSelectionView13IsDefaultableEv
0003a1b0 T _ZN17FontSelectionView15MessageReceivedEP8BMessage
00039d92 T _ZN17FontSelectionView15UpdateFontsMenuEv
000399ac T _ZN17FontSelectionView15_BuildSizesMenuEv
0003a0e6 T _ZN17FontSelectionView16AttachedToLooperEv
00039282 T _ZN17FontSelectionView18_SelectCurrentFontEb
00039320 T _ZN17FontSelectionView18_SelectCurrentSizeEb
000393a0 T _ZN17FontSelectionView18_UpdateFontPreviewEv
000390e2 T _ZN17FontSelectionView26CreateFontsLabelLayoutItemEv
0003909e T _ZN17FontSelectionView26CreateSizesLabelLayoutItemEv
00039126 T _ZN17FontSelectionView27CreateStylesLabelLayoutItemEv
00039104 T _ZN17FontSelectionView28CreateFontsMenuBarLayoutItemEv
000390c0 T _ZN17FontSelectionView28CreateSizesMenuBarLayoutItemEv
0003915a T _ZN17FontSelectionView29CreateStylesMenuBarLayoutItemEv
00039944 T _ZN17FontSelectionView6RevertEv
000397ca T _ZN17FontSelectionView7SetFontERK5BFont
00039858 T _ZN17FontSelectionView7SetFontERK5BFontf
0003989a T _ZN17FontSelectionView7SetSizeEf
0003a114 T _ZN17FontSelectionView7_InvokeEv
00039058 T _ZN17FontSelectionView9SetTargetEP8BHandler
000393c4 T _ZN17FontSelectionViewC1EPKcS1_bPK5BFont
000393c4 T _ZN17FontSelectionViewC2EPKcS1_bPK5BFont
00038ff6 T _ZN17FontSelectionViewD0Ev
00038f0e T _ZN17FontSelectionViewD1Ev
00038f0e T _ZN17FontSelectionViewD2Ev
0003f0ae W _ZN17TabContainerGroup15MessageReceivedEP8BMessage
0003e5a0 W _ZN17TabContainerGroup16AttachedToWindowEv
0003e698 W _ZN17TabContainerGroupD0Ev
0003e66a W _ZN17TabContainerGroupD1Ev
0003e66a W _ZN17TabContainerGroupD2Ev
00037504 T _ZN17TextViewCompleter12TextModifiedEb
00036f52 T _ZN17TextViewCompleter15TextViewWrapper16GetEditViewStateER7BStringPl
00036fcc T _ZN17TextViewCompleter15TextViewWrapper16SetEditViewStateERK7BStringll
0003705c T _ZN17TextViewCompleter15TextViewWrapper18GetAdjustmentFrameEv
000373ce T _ZN17TextViewCompleter15TextViewWrapperC1EP9BTextView
000373ce T _ZN17TextViewCompleter15TextViewWrapperC2EP9BTextView
00037532 W _ZN17TextViewCompleter15TextViewWrapperD0Ev
0003752c W _ZN17TextViewCompleter15TextViewWrapperD1Ev
0003752c W _ZN17TextViewCompleter15TextViewWrapperD2Ev
000374f6 T _ZN17TextViewCompleter24SetModificationsReportedEb
0003716e T _ZN17TextViewCompleter6FilterEP8BMessagePP8BHandler
000373f2 T _ZN17TextViewCompleterC1EP9BTextViewPN14BAutoCompleter11ChoiceModelEPNS2_15PatternSelectorE
000373f2 T _ZN17TextViewCompleterC2EP9BTextViewPN14BAutoCompleter11ChoiceModelEPNS2_15PatternSelectorE
00037136 T _ZN17TextViewCompleterD0Ev
000370de T _ZN17TextViewCompleterD1Ev
000370de T _ZN17TextViewCompleterD2Ev
000363ec T _ZN18BDefaultChoiceView11HideChoicesEv
00036736 T _ZN18BDefaultChoiceView11ShowChoicesEPN14BAutoCompleter15CompletionStyleE
00036378 T _ZN18BDefaultChoiceView14SelectChoiceAtEl
00035988 T _ZN18BDefaultChoiceView15ChoicesAreShownEv
00036bc0 T _ZN18BDefaultChoiceView20SetMaxVisibleChoicesEl
00035d9c T _ZN18BDefaultChoiceView8ListItem8DrawItemEP5BView5BRectb
0003660a T _ZN18BDefaultChoiceView8ListItemC1EPKN14BAutoCompleter6ChoiceE
0003660a T _ZN18BDefaultChoiceView8ListItemC2EPKN14BAutoCompleter6ChoiceE
00036ef0 W _ZN18BDefaultChoiceView8ListItemD0Ev
00036e9e W _ZN18BDefaultChoiceView8ListItemD1Ev
00036e9e W _ZN18BDefaultChoiceView8ListItemD2Ev
00036c76 T _ZN18BDefaultChoiceView8ListView15MessageReceivedEP8BMessage
00036bec T _ZN18BDefaultChoiceView8ListView16AttachedToWindowEv
00035d60 T _ZN18BDefaultChoiceView8ListView16SelectionChangedEv
00036cc2 T _ZN18BDefaultChoiceView8ListView9MouseDownE6BPoint
0003656e T _ZN18BDefaultChoiceView8ListViewC1EPN14BAutoCompleter15CompletionStyleE
0003656e T _ZN18BDefaultChoiceView8ListViewC2EPN14BAutoCompleter15CompletionStyleE
00036e02 W _ZN18BDefaultChoiceView8ListViewD0Ev
00036d88 W _ZN18BDefaultChoiceView8ListViewD1Ev
00036d88 W _ZN18BDefaultChoiceView8ListViewD2Ev
00036b8c T _ZN18BDefaultChoiceViewC1Ev
00036b8c T _ZN18BDefaultChoiceViewC2Ev
0003646a T _ZN18BDefaultChoiceViewD0Ev
0003643c T _ZN18BDefaultChoiceViewD1Ev
0003643c T _ZN18BDefaultChoiceViewD2Ev
         U _ZN18BGridLayoutBuilder3AddEP11BLayoutItemllll@@LIBBE_BASE
         U _ZN18BGridLayoutBuilder3AddEP5BViewllll@@LIBBE_BASE
         U _ZN18BGridLayoutBuilder9SetInsetsEffff@@LIBBE_BASE
         U _ZN18BGridLayoutBuilderC1Eff@@LIBBE_BASE
         U _ZN18BGridLayoutBuildercvP11BGridLayoutEv@@LIBBE_BASE
000524e0 T _ZN18CredentialsStorage13_LoadSettingsEv
0005222e T _ZN18CredentialsStorage14GetCredentialsERKN8BPrivate13HashKeyStringE
000522e8 T _ZN18CredentialsStorage14PutCredentialsERKN8BPrivate13HashKeyStringERK11Credentials
00052164 T _ZN18CredentialsStorage15SessionInstanceEv
0008a9c0 B _ZN18CredentialsStorage16sSessionInstanceE
00052760 T _ZN18CredentialsStorage18PersistentInstanceEv
0008aa20 B _ZN18CredentialsStorage19sPersistentInstanceE
000521da T _ZN18CredentialsStorage8ContainsERKN8BPrivate13HashKeyStringE
0005217a T _ZN18CredentialsStorageC1Eb
0005217a T _ZN18CredentialsStorageC2Eb
00052bf4 T _ZN18CredentialsStorageD0Ev
00052ba4 T _ZN18CredentialsStorageD1Ev
00052ba4 T _ZN18CredentialsStorageD2Ev
0003fd3a T _ZN19AuthenticationPanel13QuitRequestedEv
000401e0 T _ZN19AuthenticationPanel15MessageReceivedEP8BMessage
000403ee T _ZN19AuthenticationPanel17getAuthenticationERK7BStringS2_S2_bbRS0_S3_Pb
0003fd68 T _ZN19AuthenticationPanelC1E5BRect
0003fd68 T _ZN19AuthenticationPanelC2E5BRect
0003fd06 T _ZN19AuthenticationPanelD0Ev
0003fcc8 T _ZN19AuthenticationPanelD1Ev
0003fcc8 T _ZN19AuthenticationPanelD2Ev
         U _ZN19BAbstractLayoutItem13AllUnarchivedEPK8BMessage@@LIBBE_BASE
         U _ZN19BAbstractLayoutItem13PreferredSizeEv@@LIBBE_BASE
         U _ZN19BAbstractLayoutItem16AttachedToLayoutEv@@LIBBE_BASE
         U _ZN19BAbstractLayoutItem17LayoutInvalidatedEb@@LIBBE_BASE
         U _ZN19BAbstractLayoutItem18DetachedFromLayoutEP7BLayout@@LIBBE_BASE
         U _ZN19BAbstractLayoutItem18SetExplicitMaxSizeE5BSize@@LIBBE_BASE
         U _ZN19BAbstractLayoutItem18SetExplicitMinSizeE5BSize@@LIBBE_BASE
         U _ZN19BAbstractLayoutItem20SetExplicitAlignmentE10BAlignment@@LIBBE_BASE
         U _ZN19BAbstractLayoutItem24SetExplicitPreferredSizeE5BSize@@LIBBE_BASE
         U _ZN19BAbstractLayoutItem25AncestorVisibilityChangedEb@@LIBBE_BASE
         U _ZN19BAbstractLayoutItem28_ReservedAbstractLayoutItem1Ev@@LIBBE_BASE
         U _ZN19BAbstractLayoutItem28_ReservedAbstractLayoutItem2Ev@@LIBBE_BASE
         U _ZN19BAbstractLayoutItem28_ReservedAbstractLayoutItem3Ev@@LIBBE_BASE
         U _ZN19BAbstractLayoutItem28_ReservedAbstractLayoutItem4Ev@@LIBBE_BASE
         U _ZN19BAbstractLayoutItem28_ReservedAbstractLayoutItem5Ev@@LIBBE_BASE
         U _ZN19BAbstractLayoutItem28_ReservedAbstractLayoutItem6Ev@@LIBBE_BASE
         U _ZN19BAbstractLayoutItem28_ReservedAbstractLayoutItem7Ev@@LIBBE_BASE
         U _ZN19BAbstractLayoutItem28_ReservedAbstractLayoutItem8Ev@@LIBBE_BASE
         U _ZN19BAbstractLayoutItem28_ReservedAbstractLayoutItem9Ev@@LIBBE_BASE
         U _ZN19BAbstractLayoutItem29_ReservedAbstractLayoutItem10Ev@@LIBBE_BASE
         U _ZN19BAbstractLayoutItem7MaxSizeEv@@LIBBE_BASE
         U _ZN19BAbstractLayoutItem7MinSizeEv@@LIBBE_BASE
         U _ZN19BAbstractLayoutItem7PerformEmPv@@LIBBE_BASE
         U _ZN19BAbstractLayoutItem9AlignmentEv@@LIBBE_BASE
         U _ZN19BAbstractLayoutItemC2Ev@@LIBBE_BASE
         U _ZN19BAbstractLayoutItemD2Ev@@LIBBE_BASE
         U _ZN19BGroupLayoutBuilder3AddEP11BLayoutItem@@LIBBE_BASE
         U _ZN19BGroupLayoutBuilder3AddEP5BView@@LIBBE_BASE
         U _ZN19BGroupLayoutBuilder3EndEv@@LIBBE_BASE
         U _ZN19BGroupLayoutBuilder7AddGlueEf@@LIBBE_BASE
         U _ZN19BGroupLayoutBuilder8AddGroupE11orientationff@@LIBBE_BASE
         U _ZN19BGroupLayoutBuilder9SetInsetsEffff@@LIBBE_BASE
         U _ZN19BGroupLayoutBuilderC1E11orientationf@@LIBBE_BASE
         U _ZN19BGroupLayoutBuildercvP12BGroupLayoutEv@@LIBBE_BASE
0004ed4c T _ZN19BrowsingHistoryItem7InvokedEv
0004f062 T _ZN19BrowsingHistoryItemC1EPK8BMessage
0004e9ee T _ZN19BrowsingHistoryItemC1ERK7BString
0004ead6 T _ZN19BrowsingHistoryItemC1ERKS_
0004f062 T _ZN19BrowsingHistoryItemC2EPK8BMessage
0004e9ee T _ZN19BrowsingHistoryItemC2ERK7BString
0004ead6 T _ZN19BrowsingHistoryItemC2ERKS_
0004ea4a T _ZN19BrowsingHistoryItemD1Ev
0004ea4a T _ZN19BrowsingHistoryItemD2Ev
0004ea7c T _ZN19BrowsingHistoryItemaSERKS_
0003ec46 W _ZN19ScrollLeftTabButton10DrawSymbolE5BRectRKS0_RK9rgb_color
0003e868 W _ZN19ScrollLeftTabButtonD0Ev
0003e7ee W _ZN19ScrollLeftTabButtonD1Ev
0003e7ee W _ZN19ScrollLeftTabButtonD2Ev
0008a888 D _ZN20DownloadProgressView10sShowSpeedE
0005329c T _ZN20DownloadProgressView11AllAttachedEv
00054c78 T _ZN20DownloadProgressView12SaveSettingsEP8BMessage
00055fa0 T _ZN20DownloadProgressView13_UpdateStatusExx
00055138 T _ZN20DownloadProgressView14CancelDownloadEv
00056190 T _ZN20DownloadProgressView15MessageReceivedEP8BMessage
000534ce T _ZN20DownloadProgressView15ShowContextMenuE6BPoint
000539c4 T _ZN20DownloadProgressView16AttachedToWindowEv
00054d3c T _ZN20DownloadProgressView16DownloadFinishedEv
0005386e T _ZN20DownloadProgressView16_StopNodeMonitorEv
00053826 T _ZN20DownloadProgressView17_StartNodeMonitorERK6BEntry
0005552a T _ZN20DownloadProgressView17_UpdateStatusTextEv
00053892 T _ZN20DownloadProgressView18DetachedFromWindowEv
0008a890 D _ZN20DownloadProgressView35sLastEstimatedFinishSpeedToggleTimeE
00053794 T _ZN20DownloadProgressView37SpeedVersusEstimatedFinishTogglePulseEv
0005337e T _ZN20DownloadProgressView4DrawE5BRect
00053aee T _ZN20DownloadProgressView4InitEP8BMessage
00053414 T _ZN20DownloadProgressViewC1EP12BWebDownload
000538b4 T _ZN20DownloadProgressViewC1EPK8BMessage
00053414 T _ZN20DownloadProgressViewC2EP12BWebDownload
000538b4 T _ZN20DownloadProgressViewC2EPK8BMessage
00057208 W _ZN20DownloadProgressViewD0Ev
000571ba W _ZN20DownloadProgressViewD1Ev
000571ba W _ZN20DownloadProgressViewD2Ev
0003eca4 W _ZN20ScrollRightTabButton10DrawSymbolE5BRectRKS0_RK9rgb_color
0003e97e W _ZN20ScrollRightTabButtonD0Ev
0003e904 W _ZN20ScrollRightTabButtonD1Ev
0003e904 W _ZN20ScrollRightTabButtonD2Ev
0003efee W _ZN20TabManagerController10SetToolTipERK7BString
0003f3d4 W _ZN20TabManagerController11TabSelectedEl
0003ce80 T _ZN20TabManagerController13CreateTabViewEv
0003ce08 T _ZN20TabManagerController22DoubleClickOutsideTabsEv
0003e620 W _ZN20TabManagerController22UpdateTabScrollabilityEbb
0003d2cc T _ZN20TabManagerController32SetDoubleClickOutsideTabsMessageERK8BMessageRK10BMessenger
0003e2fe T _ZN20TabManagerController8CloseTabEl
0003e618 W _ZN20TabManagerController9HasFramesEv
0003d256 T _ZN20TabManagerControllerC1EP10TabManager
0003d256 T _ZN20TabManagerControllerC2EP10TabManager
0003cd5c T _ZN20TabManagerControllerD0Ev
0003cd0a T _ZN20TabManagerControllerD1Ev
0003cd0a T _ZN20TabManagerControllerD2Ev
         U _ZN21BTwoDimensionalLayout9SetInsetsEffff@@LIBBE_BASE
00035218 T _ZN22DefaultPatternSelector19SelectPatternBoundsERK7BStringlPlS3_
0003576c W _ZN22DefaultPatternSelectorD0Ev
00035766 W _ZN22DefaultPatternSelectorD1Ev
00035766 W _ZN22DefaultPatternSelectorD2Ev
0005910a W _ZN22DownloadsContainerView5PulseEv
00059240 W _ZN22DownloadsContainerView7MinSizeEv
00059196 W _ZN22DownloadsContainerView8DoLayoutEv
000590ca W _ZN22DownloadsContainerViewD0Ev
0005909c W _ZN22DownloadsContainerViewD1Ev
0005909c W _ZN22DownloadsContainerViewD2Ev
00035838 T _ZN23BDefaultCompletionStyle10SelectNextEb
00035a06 T _ZN23BDefaultCompletionStyle11ApplyChoiceEb
00035922 T _ZN23BDefaultCompletionStyle12CancelChoiceEv
000358a4 T _ZN23BDefaultCompletionStyle14SelectPreviousEb
00035b4a T _ZN23BDefaultCompletionStyle20EditViewStateChangedEb
000357d0 T _ZN23BDefaultCompletionStyle6SelectEl
000364ee T _ZN23BDefaultCompletionStyleC1EPN14BAutoCompleter8EditViewEPNS0_11ChoiceModelEPNS0_10ChoiceViewEPNS0_15PatternSelectorE
000364ee T _ZN23BDefaultCompletionStyleC2EPN14BAutoCompleter8EditViewEPNS0_11ChoiceModelEPNS0_10ChoiceViewEPNS0_15PatternSelectorE
000359d4 T _ZN23BDefaultCompletionStyleD0Ev
00035998 T _ZN23BDefaultCompletionStyleD1Ev
00035998 T _ZN23BDefaultCompletionStyleD2Ev
0003579c T _ZN23BDefaultPatternSelector19SelectPatternBoundsERK7BStringlPlS3_
00036d64 W _ZN23BDefaultPatternSelectorD0Ev
00036d5e W _ZN23BDefaultPatternSelectorD1Ev
00036d5e W _ZN23BDefaultPatternSelectorD2Ev
0005f026 W _ZN26BrowsingHistoryChoiceModel15FetchChoicesForERK7BString
0005f32b W _ZN26BrowsingHistoryChoiceModel15_CompareChoicesEPKvS1_
0005f596 W _ZN26BrowsingHistoryChoiceModelD0Ev
0005f564 W _ZN26BrowsingHistoryChoiceModelD1Ev
0005f564 W _ZN26BrowsingHistoryChoiceModelD2Ev
0005927a W _ZN27DownloadContainerScrollView8DoLayoutEv
00059156 W _ZN27DownloadContainerScrollViewD0Ev
00059128 W _ZN27DownloadContainerScrollViewD1Ev
00059128 W _ZN27DownloadContainerScrollViewD2Ev
000676a4 T _ZN4BRow10InvalidateEv
0006427e T _ZN4BRow8GetFieldEl
000676d2 T _ZN4BRow8SetFieldEP6BFieldl
000641f6 T _ZN4BRowC1Ef
0006b094 T _ZN4BRowC1Ev
000641f6 T _ZN4BRowC2Ef
0006b094 T _ZN4BRowC2Ev
0006b1a8 T _ZN4BRowD0Ev
0006b154 T _ZN4BRowD1Ev
0006b154 T _ZN4BRowD2Ev
         U _ZN4BUrlC1ERK5BPath@@LIBBE_BASE
         U _ZN4BUrlD1Ev@@LIBBE_BASE
         U _ZN5BFile5SetToEPK6BEntrym@@LIBBE_BASE
         U _ZN5BFile5SetToEPKcm@@LIBBE_BASE
         U _ZN5BFile5WriteEPKvm@@LIBBE_BASE
         U _ZN5BFileC1EPK10BDirectoryPKcm@@LIBBE_BASE
         U _ZN5BFileC1EPK6BEntrym@@LIBBE_BASE
         U _ZN5BFileC1EPK9entry_refm@@LIBBE_BASE
         U _ZN5BFileC1EPKcm@@LIBBE_BASE
         U _ZN5BFileC1Ev@@LIBBE_BASE
         U _ZN5BFileD1Ev@@LIBBE_BASE
         U _ZN5BFont16SetFamilyAndFaceEPKct@@LIBBE_BASE
         U _ZN5BFont17SetFamilyAndStyleEPKcS1_@@LIBBE_BASE
         U _ZN5BFont7SetFaceEt@@LIBBE_BASE
         U _ZN5BFont7SetSizeEf@@LIBBE_BASE
         U _ZN5BFontC1EPKS_@@LIBBE_BASE
         U _ZN5BFontC1ERKS_@@LIBBE_BASE
         U _ZN5BFontC1Ev@@LIBBE_BASE
         U _ZN5BFontaSERKS_@@LIBBE_BASE
         U _ZN5BList10RemoveItemEPv@@LIBBE_BASE
         U _ZN5BList10RemoveItemEl@@LIBBE_BASE
         U _ZN5BList14_ReservedList1Ev@@LIBBE_BASE
         U _ZN5BList14_ReservedList2Ev@@LIBBE_BASE
         U _ZN5BList7AddItemEPv@@LIBBE_BASE
         U _ZN5BList7AddItemEPvl@@LIBBE_BASE
         U _ZN5BList9MakeEmptyEv@@LIBBE_BASE
         U _ZN5BList9SortItemsEPFiPKvS1_E@@LIBBE_BASE
         U _ZN5BListC1El@@LIBBE_BASE
         U _ZN5BListD1Ev@@LIBBE_BASE
         U _ZN5BMenu10FindMarkedEv@@LIBBE_BASE
         U _ZN5BMenu10FrameMovedE6BPoint@@LIBBE_BASE
         U _ZN5BMenu10RemoveItemEP9BMenuItem@@LIBBE_BASE
         U _ZN5BMenu10RemoveItemEl@@LIBBE_BASE
         U _ZN5BMenu10SetEnabledEb@@LIBBE_BASE
         U _ZN5BMenu11AllAttachedEv@@LIBBE_BASE
         U _ZN5BMenu11AllDetachedEv@@LIBBE_BASE
         U _ZN5BMenu11RemoveItemsEllb@@LIBBE_BASE
         U _ZN5BMenu12FrameResizedEff@@LIBBE_BASE
         U _ZN5BMenu12SetRadioModeEb@@LIBBE_BASE
         U _ZN5BMenu13PreferredSizeEv@@LIBBE_BASE
         U _ZN5BMenu14AddDynamicItemENS_9add_stateE@@LIBBE_BASE
         U _ZN5BMenu14DrawBackgroundE5BRect@@LIBBE_BASE
         U _ZN5BMenu14ScreenLocationEv@@LIBBE_BASE
         U _ZN5BMenu14_ReservedMenu3Ev@@LIBBE_BASE
         U _ZN5BMenu14_ReservedMenu4Ev@@LIBBE_BASE
         U _ZN5BMenu14_ReservedMenu5Ev@@LIBBE_BASE
         U _ZN5BMenu14_ReservedMenu6Ev@@LIBBE_BASE
         U _ZN5BMenu15MessageReceivedEP8BMessage@@LIBBE_BASE
         U _ZN5BMenu16AddSeparatorItemEv@@LIBBE_BASE
         U _ZN5BMenu16GetPreferredSizeEPfS0_@@LIBBE_BASE
         U _ZN5BMenu16ResolveSpecifierEP8BMessagelS1_lPKc@@LIBBE_BASE
         U _ZN5BMenu17LayoutInvalidatedEb@@LIBBE_BASE
         U _ZN5BMenu17ResizeToPreferredEv@@LIBBE_BASE
         U _ZN5BMenu17SetTargetForItemsE10BMessenger@@LIBBE_BASE
         U _ZN5BMenu17SetTargetForItemsEP8BHandler@@LIBBE_BASE
         U _ZN5BMenu18GetSupportedSuitesEP8BMessage@@LIBBE_BASE
         U _ZN5BMenu18SetMaxContentWidthEf@@LIBBE_BASE
         U _ZN5BMenu18SetTriggersEnabledEb@@LIBBE_BASE
         U _ZN5BMenu4DrawE5BRect@@LIBBE_BASE
         U _ZN5BMenu4HideEv@@LIBBE_BASE
         U _ZN5BMenu4ShowEv@@LIBBE_BASE
         U _ZN5BMenu7AddItemEP9BMenuItem@@LIBBE_BASE
         U _ZN5BMenu7AddItemEP9BMenuIteml@@LIBBE_BASE
         U _ZN5BMenu7AddItemEPS_@@LIBBE_BASE
         U _ZN5BMenu7KeyDownEPKcl@@LIBBE_BASE
         U _ZN5BMenu7MaxSizeEv@@LIBBE_BASE
         U _ZN5BMenu7MinSizeEv@@LIBBE_BASE
         U _ZN5BMenu7PerformEmPv@@LIBBE_BASE
         U _ZN5BMenu8DoLayoutEv@@LIBBE_BASE
         U _ZN5BMenu9MakeFocusEb@@LIBBE_BASE
         U _ZN5BMenuC1EPKc11menu_layout@@LIBBE_BASE
         U _ZN5BNode15WriteAttrStringEPKcPK7BString@@LIBBE_BASE
         U _ZN5BNode9WriteAttrEPKcmxPKvm@@LIBBE_BASE
         U _ZN5BNodeC1EPK6BEntry@@LIBBE_BASE
         U _ZN5BNodeD1Ev@@LIBBE_BASE
         U _ZN5BPath5SetToEPKcS1_b@@LIBBE_BASE
         U _ZN5BPath5UnsetEv@@LIBBE_BASE
         U _ZN5BPath6AppendEPKcb@@LIBBE_BASE
         U _ZN5BPathC1EPKcS1_b@@LIBBE_BASE
         U _ZN5BPathC1ERKS_@@LIBBE_BASE
         U _ZN5BPathC1Ev@@LIBBE_BASE
         U _ZN5BPathD1Ev@@LIBBE_BASE
         U _ZN5BPathaSERKS_@@LIBBE_BASE
         U _ZN5BRect7InsetByEff@@LIBBE_BASE
         U _ZN5BRect8OffsetByEff@@LIBBE_BASE
         U _ZN5BRect8OffsetToE6BPoint@@LIBBE_BASE
         U _ZN5BRect8OffsetToEff@@LIBBE_BASE
         U _ZN5BView10DrawBitmapEPK7BBitmap5BRectS3_@@LIBBE_BASE
         U _ZN5BView10DrawBitmapEPK7BBitmap5BRectS3_m@@LIBBE_BASE
         U _ZN5BView10DrawBitmapEPK7BBitmap6BPoint@@LIBBE_BASE
         U _ZN5BView10DrawStringEPKc6BPointP16escapement_delta@@LIBBE_BASE
         U _ZN5BView10DrawStringEPKcP16escapement_delta@@LIBBE_BASE
         U _ZN5BView10FrameMovedE6BPoint@@LIBBE_BASE
         U _ZN5BView10InvalidateE5BRect@@LIBBE_BASE
         U _ZN5BView10InvalidateEv@@LIBBE_BASE
         U _ZN5BView10InvertRectE5BRect@@LIBBE_BASE
         U _ZN5BView10MouseMovedE6BPointmPK8BMessage@@LIBBE_BASE
         U _ZN5BView10RemoveSelfEv@@LIBBE_BASE
         U _ZN5BView10SetPenSizeEf@@LIBBE_BASE
         U _ZN5BView10SetToolTipEP8BToolTip@@LIBBE_BASE
         U _ZN5BView10SetToolTipEPKc@@LIBBE_BASE
         U _ZN5BView10StrokeLineE6BPointS0_7pattern@@LIBBE_BASE
         U _ZN5BView10StrokeRectE5BRect7pattern@@LIBBE_BASE
         U _ZN5BView11AllAttachedEv@@LIBBE_BASE
         U _ZN5BView11AllDetachedEv@@LIBBE_BASE
         U _ZN5BView11HideToolTipEv@@LIBBE_BASE
         U _ZN5BView11SetLowColorE9rgb_color@@LIBBE_BASE
         U _ZN5BView12FrameResizedEff@@LIBBE_BASE
         U _ZN5BView12GetToolTipAtE6BPointPP8BToolTip@@LIBBE_BASE
         U _ZN5BView12SetEventMaskEmm@@LIBBE_BASE
         U _ZN5BView12SetHighColorE9rgb_color@@LIBBE_BASE
         U _ZN5BView12SetViewColorE9rgb_color@@LIBBE_BASE
         U _ZN5BView13AllUnarchivedEPK8BMessage@@LIBBE_BASE
         U _ZN5BView13FillRoundRectE5BRectff7pattern@@LIBBE_BASE
         U _ZN5BView13LayoutChangedEv@@LIBBE_BASE
         U _ZN5BView13PreferredSizeEv@@LIBBE_BASE
         U _ZN5BView13SetLowUIColorE11color_whichf@@LIBBE_BASE
         U _ZN5BView13SetViewCursorEPK7BCursorb@@LIBBE_BASE
         U _ZN5BView14SetDrawingModeE12drawing_mode@@LIBBE_BASE
         U _ZN5BView14SetHighUIColorE11color_whichf@@LIBBE_BASE
         U _ZN5BView14SetViewUIColorE11color_whichf@@LIBBE_BASE
         U _ZN5BView15DrawBitmapAsyncEPK7BBitmap6BPoint@@LIBBE_BASE
         U _ZN5BView15DrawBitmapAsyncEPK7BBitmap@@LIBBE_BASE
         U _ZN5BView15EndRectTrackingEv@@LIBBE_BASE
         U _ZN5BView15LayoutAlignmentEv@@LIBBE_BASE
         U _ZN5BView15MessageReceivedEP8BMessage@@LIBBE_BASE
         U _ZN5BView15SetBlendingModeE12source_alpha14alpha_function@@LIBBE_BASE
         U _ZN5BView15SetResizingModeEm@@LIBBE_BASE
         U _ZN5BView15WindowActivatedEb@@LIBBE_BASE
         U _ZN5BView15_ReservedView13Ev@@LIBBE_BASE
         U _ZN5BView15_ReservedView14Ev@@LIBBE_BASE
         U _ZN5BView15_ReservedView15Ev@@LIBBE_BASE
         U _ZN5BView15_ReservedView16Ev@@LIBBE_BASE
         U _ZN5BView16AttachedToWindowEv@@LIBBE_BASE
         U _ZN5BView16GetPreferredSizeEPfS0_@@LIBBE_BASE
         U _ZN5BView16InvalidateLayoutEb@@LIBBE_BASE
         U _ZN5BView16ResolveSpecifierEP8BMessagelS1_lPKc@@LIBBE_BASE
         U _ZN5BView17AdoptParentColorsEv@@LIBBE_BASE
         U _ZN5BView17AdoptSystemColorsEv@@LIBBE_BASE
         U _ZN5BView17BeginRectTrackingE5BRectm@@LIBBE_BASE
         U _ZN5BView17DrawAfterChildrenE5BRect@@LIBBE_BASE
         U _ZN5BView17GetHeightForWidthEfPfS0_S0_@@LIBBE_BASE
         U _ZN5BView17HasHeightForWidthEv@@LIBBE_BASE
         U _ZN5BView17LayoutInvalidatedEb@@LIBBE_BASE
         U _ZN5BView17ResizeToPreferredEv@@LIBBE_BASE
         U _ZN5BView17SetMouseEventMaskEmm@@LIBBE_BASE
         U _ZN5BView18DetachedFromWindowEv@@LIBBE_BASE
         U _ZN5BView18GetSupportedSuitesEP8BMessage@@LIBBE_BASE
         U _ZN5BView18SetExplicitMaxSizeE5BSize@@LIBBE_BASE
         U _ZN5BView18SetExplicitMinSizeE5BSize@@LIBBE_BASE
         U _ZN5BView20SetExplicitAlignmentE10BAlignment@@LIBBE_BASE
         U _ZN5BView20TargetedByScrollViewEP11BScrollView@@LIBBE_BASE
         U _ZN5BView23ConstrainClippingRegionEP7BRegion@@LIBBE_BASE
         U _ZN5BView4DrawE5BRect@@LIBBE_BASE
         U _ZN5BView4HideEv@@LIBBE_BASE
         U _ZN5BView4ShowEv@@LIBBE_BASE
         U _ZN5BView5KeyUpEPKcl@@LIBBE_BASE
         U _ZN5BView5PulseEv@@LIBBE_BASE
         U _ZN5BView6MoveByEff@@LIBBE_BASE
         U _ZN5BView6MoveToE6BPoint@@LIBBE_BASE
         U _ZN5BView6MoveToEff@@LIBBE_BASE
         U _ZN5BView7KeyDownEPKcl@@LIBBE_BASE
         U _ZN5BView7MaxSizeEv@@LIBBE_BASE
         U _ZN5BView7MinSizeEv@@LIBBE_BASE
         U _ZN5BView7MouseUpE6BPoint@@LIBBE_BASE
         U _ZN5BView7PerformEmPv@@LIBBE_BASE
         U _ZN5BView7SetFontEPK5BFontm@@LIBBE_BASE
         U _ZN5BView8AddChildEP11BLayoutItem@@LIBBE_BASE
         U _ZN5BView8AddChildEPS_S0_@@LIBBE_BASE
         U _ZN5BView8CopyBitsE5BRectS0_@@LIBBE_BASE
         U _ZN5BView8DoLayoutEv@@LIBBE_BASE
         U _ZN5BView8FillRectE5BRect7pattern@@LIBBE_BASE
         U _ZN5BView8GetMouseEP6BPointPmb@@LIBBE_BASE
         U _ZN5BView8PopStateEv@@LIBBE_BASE
         U _ZN5BView8ResizeByEff@@LIBBE_BASE
         U _ZN5BView8ResizeToEff@@LIBBE_BASE
         U _ZN5BView8ScrollByEff@@LIBBE_BASE
         U _ZN5BView8ScrollToE6BPoint@@LIBBE_BASE
         U _ZN5BView8SetFlagsEm@@LIBBE_BASE
         U _ZN5BView9MakeFocusEb@@LIBBE_BASE
         U _ZN5BView9MouseDownE6BPoint@@LIBBE_BASE
         U _ZN5BView9MovePenToE6BPoint@@LIBBE_BASE
         U _ZN5BView9MovePenToEff@@LIBBE_BASE
         U _ZN5BView9PushStateEv@@LIBBE_BASE
         U _ZN5BView9SetLayoutEP7BLayout@@LIBBE_BASE
         U _ZN5BViewC1E5BRectPKcmm@@LIBBE_BASE
         U _ZN5BViewC1EPKcmP7BLayout@@LIBBE_BASE
         U _ZN5BViewC2E5BRectPKcmm@@LIBBE_BASE
         U _ZN5BViewC2EPKcmP7BLayout@@LIBBE_BASE
         U _ZN5BViewD2Ev@@LIBBE_BASE
         U _ZN6BAlert11SetShortcutElc@@LIBBE_BASE
         U _ZN6BAlert2GoEP8BInvoker@@LIBBE_BASE
         U _ZN6BAlert2GoEv@@LIBBE_BASE
         U _ZN6BAlertC1EPKcS1_S1_S1_S1_12button_width10alert_type@@LIBBE_BASE
         U _ZN6BEntry5SetToEPKcb@@LIBBE_BASE
         U _ZN6BEntry5UnsetEv@@LIBBE_BASE
         U _ZN6BEntryC1EPK10BDirectoryPKcb@@LIBBE_BASE
         U _ZN6BEntryC1EPK9entry_refb@@LIBBE_BASE
         U _ZN6BEntryC1EPKcb@@LIBBE_BASE
         U _ZN6BEntryC1Ev@@LIBBE_BASE
         U _ZN6BEntryD1Ev@@LIBBE_BASE
000641d8 T _ZN6BFieldC1Ev
000641d8 T _ZN6BFieldC2Ev
000636dc T _ZN6BFieldD0Ev
00063568 T _ZN6BFieldD1Ev
00063568 T _ZN6BFieldD2Ev
         U _ZN6BPointpLERKS_@@LIBBE_BASE
         U _ZN7BBitmap10ImportBitsEPKS_@@LIBBE_BASE
         U _ZN7BBitmap4LockEv@@LIBBE_BASE
         U _ZN7BBitmap6UnlockEv@@LIBBE_BASE
         U _ZN7BBitmap7SetBitsEPKvll11color_space@@LIBBE_BASE
         U _ZN7BBitmapC1E5BRect11color_spacebb@@LIBBE_BASE
         U _ZN7BBitmapC1E5BRectm11color_spacel9screen_id@@LIBBE_BASE
         U _ZN7BBitmapC1EP8BMessage@@LIBBE_BASE
         U _ZN7BBitmapC1EPKS_bb@@LIBBE_BASE
         U _ZN7BBitmapD1Ev@@LIBBE_BASE
         U _ZN7BButton10FrameMovedE6BPoint@@LIBBE_BASE
         U _ZN7BButton10MouseMovedE6BPointmPK8BMessage@@LIBBE_BASE
         U _ZN7BButton11AllAttachedEv@@LIBBE_BASE
         U _ZN7BButton11AllDetachedEv@@LIBBE_BASE
         U _ZN7BButton11MakeDefaultEb@@LIBBE_BASE
         U _ZN7BButton12FrameResizedEff@@LIBBE_BASE
         U _ZN7BButton13PreferredSizeEv@@LIBBE_BASE
         U _ZN7BButton15MessageReceivedEP8BMessage@@LIBBE_BASE
         U _ZN7BButton15WindowActivatedEb@@LIBBE_BASE
         U _ZN7BButton16AttachedToWindowEv@@LIBBE_BASE
         U _ZN7BButton16GetPreferredSizeEPfS0_@@LIBBE_BASE
         U _ZN7BButton16ResolveSpecifierEP8BMessagelS1_lPKc@@LIBBE_BASE
         U _ZN7BButton16_ReservedButton1Ev@@LIBBE_BASE
